
AVRASM ver. 2.1.30  C:\cvavreval\Tryumf4.0\List\Tryumf.asm Thu Jan 16 13:01:58 2020

C:\cvavreval\Tryumf4.0\List\Tryumf.asm(1061): warning: Register r4 already defined by the .DEF directive
C:\cvavreval\Tryumf4.0\List\Tryumf.asm(1062): warning: Register r6 already defined by the .DEF directive
C:\cvavreval\Tryumf4.0\List\Tryumf.asm(1063): warning: Register r8 already defined by the .DEF directive
C:\cvavreval\Tryumf4.0\List\Tryumf.asm(1064): warning: Register r10 already defined by the .DEF directive
C:\cvavreval\Tryumf4.0\List\Tryumf.asm(1065): warning: Register r12 already defined by the .DEF directive
                 
                 
                 ;CodeVisionAVR C Compiler V2.05.0 Professional
                 ;(C) Copyright 1998-2010 Pavel Haiduc, HP InfoTech s.r.l.
                 ;http://www.hpinfotech.com
                 
                 ;Chip type                : ATmega128
                 ;Program type             : Application
                 ;Clock frequency          : 16.000000 MHz
                 ;Memory model             : Small
                 ;Optimize for             : Size
                 ;(s)printf features       : int, width
                 ;(s)scanf features        : int, width
                 ;External RAM size        : 0
                 ;Data Stack size          : 1024 byte(s)
                 ;Heap size                : 0 byte(s)
                 ;Promote 'char' to 'int'  : Yes
                 ;'char' is unsigned       : Yes
                 ;8 bit enums              : Yes
                 ;global 'const' stored in FLASH: No
                 ;Enhanced core instructions    : On
                 ;Smart register allocation     : On
                 ;Automatic register allocation : On
                 
                 	#pragma AVRPART ADMIN PART_NAME ATmega128
                 	#pragma AVRPART MEMORY PROG_FLASH 131072
                 	#pragma AVRPART MEMORY EEPROM 4096
                 	#pragma AVRPART MEMORY INT_SRAM SIZE 4351
                 	#pragma AVRPART MEMORY INT_SRAM START_ADDR 0x100
                 
                 	#define CALL_SUPPORTED 1
                 
                 	.LISTMAC
                 	.EQU UDRE=0x5
                 	.EQU RXC=0x7
                 	.EQU USR=0xB
                 	.EQU UDR=0xC
                 	.EQU SPSR=0xE
                 	.EQU SPDR=0xF
                 	.EQU EERE=0x0
                 	.EQU EEWE=0x1
                 	.EQU EEMWE=0x2
                 	.EQU EECR=0x1C
                 	.EQU EEDR=0x1D
                 	.EQU EEARL=0x1E
                 	.EQU EEARH=0x1F
                 	.EQU WDTCR=0x21
                 	.EQU MCUCR=0x35
                 	.EQU RAMPZ=0x3B
                 	.EQU SPL=0x3D
                 	.EQU SPH=0x3E
                 	.EQU SREG=0x3F
                 	.EQU XMCRA=0x6D
                 	.EQU XMCRB=0x6C
                 
                 	.DEF R0X0=R0
                 	.DEF R0X1=R1
                 	.DEF R0X2=R2
                 	.DEF R0X3=R3
                 	.DEF R0X4=R4
                 	.DEF R0X5=R5
                 	.DEF R0X6=R6
                 	.DEF R0X7=R7
                 	.DEF R0X8=R8
                 	.DEF R0X9=R9
                 	.DEF R0XA=R10
                 	.DEF R0XB=R11
                 	.DEF R0XC=R12
                 	.DEF R0XD=R13
                 	.DEF R0XE=R14
                 	.DEF R0XF=R15
                 	.DEF R0X10=R16
                 	.DEF R0X11=R17
                 	.DEF R0X12=R18
                 	.DEF R0X13=R19
                 	.DEF R0X14=R20
                 	.DEF R0X15=R21
                 	.DEF R0X16=R22
                 	.DEF R0X17=R23
                 	.DEF R0X18=R24
                 	.DEF R0X19=R25
                 	.DEF R0X1A=R26
                 	.DEF R0X1B=R27
                 	.DEF R0X1C=R28
                 	.DEF R0X1D=R29
                 	.DEF R0X1E=R30
                 	.DEF R0X1F=R31
                 
                 	.EQU __SRAM_START=0x0100
                 	.EQU __SRAM_END=0x10FF
                 	.EQU __DSTACK_SIZE=0x0400
                 	.EQU __HEAP_SIZE=0x0000
                 	.EQU __CLEAR_SRAM_SIZE=__SRAM_END-__SRAM_START+1
                 
                 	.MACRO __CPD1N
                 	CPI  R30,LOW(@0)
                 	LDI  R26,HIGH(@0)
                 	CPC  R31,R26
                 	LDI  R26,BYTE3(@0)
                 	CPC  R22,R26
                 	LDI  R26,BYTE4(@0)
                 	CPC  R23,R26
                 	.ENDM
                 
                 	.MACRO __CPD2N
                 	CPI  R26,LOW(@0)
                 	LDI  R30,HIGH(@0)
                 	CPC  R27,R30
                 	LDI  R30,BYTE3(@0)
                 	CPC  R24,R30
                 	LDI  R30,BYTE4(@0)
                 	CPC  R25,R30
                 	.ENDM
                 
                 	.MACRO __CPWRR
                 	CP   R@0,R@2
                 	CPC  R@1,R@3
                 	.ENDM
                 
                 	.MACRO __CPWRN
                 	CPI  R@0,LOW(@2)
                 	LDI  R30,HIGH(@2)
                 	CPC  R@1,R30
                 	.ENDM
                 
                 	.MACRO __ADDB1MN
                 	SUBI R30,LOW(-@0-(@1))
                 	.ENDM
                 
                 	.MACRO __ADDB2MN
                 	SUBI R26,LOW(-@0-(@1))
                 	.ENDM
                 
                 	.MACRO __ADDW1MN
                 	SUBI R30,LOW(-@0-(@1))
                 	SBCI R31,HIGH(-@0-(@1))
                 	.ENDM
                 
                 	.MACRO __ADDW2MN
                 	SUBI R26,LOW(-@0-(@1))
                 	SBCI R27,HIGH(-@0-(@1))
                 	.ENDM
                 
                 	.MACRO __ADDW1FN
                 	SUBI R30,LOW(-2*@0-(@1))
                 	SBCI R31,HIGH(-2*@0-(@1))
                 	.ENDM
                 
                 	.MACRO __ADDD1FN
                 	SUBI R30,LOW(-2*@0-(@1))
                 	SBCI R31,HIGH(-2*@0-(@1))
                 	SBCI R22,BYTE3(-2*@0-(@1))
                 	.ENDM
                 
                 	.MACRO __ADDD1N
                 	SUBI R30,LOW(-@0)
                 	SBCI R31,HIGH(-@0)
                 	SBCI R22,BYTE3(-@0)
                 	SBCI R23,BYTE4(-@0)
                 	.ENDM
                 
                 	.MACRO __ADDD2N
                 	SUBI R26,LOW(-@0)
                 	SBCI R27,HIGH(-@0)
                 	SBCI R24,BYTE3(-@0)
                 	SBCI R25,BYTE4(-@0)
                 	.ENDM
                 
                 	.MACRO __SUBD1N
                 	SUBI R30,LOW(@0)
                 	SBCI R31,HIGH(@0)
                 	SBCI R22,BYTE3(@0)
                 	SBCI R23,BYTE4(@0)
                 	.ENDM
                 
                 	.MACRO __SUBD2N
                 	SUBI R26,LOW(@0)
                 	SBCI R27,HIGH(@0)
                 	SBCI R24,BYTE3(@0)
                 	SBCI R25,BYTE4(@0)
                 	.ENDM
                 
                 	.MACRO __ANDBMNN
                 	LDS  R30,@0+(@1)
                 	ANDI R30,LOW(@2)
                 	STS  @0+(@1),R30
                 	.ENDM
                 
                 	.MACRO __ANDWMNN
                 	LDS  R30,@0+(@1)
                 	ANDI R30,LOW(@2)
                 	STS  @0+(@1),R30
                 	LDS  R30,@0+(@1)+1
                 	ANDI R30,HIGH(@2)
                 	STS  @0+(@1)+1,R30
                 	.ENDM
                 
                 	.MACRO __ANDD1N
                 	ANDI R30,LOW(@0)
                 	ANDI R31,HIGH(@0)
                 	ANDI R22,BYTE3(@0)
                 	ANDI R23,BYTE4(@0)
                 	.ENDM
                 
                 	.MACRO __ANDD2N
                 	ANDI R26,LOW(@0)
                 	ANDI R27,HIGH(@0)
                 	ANDI R24,BYTE3(@0)
                 	ANDI R25,BYTE4(@0)
                 	.ENDM
                 
                 	.MACRO __ORBMNN
                 	LDS  R30,@0+(@1)
                 	ORI  R30,LOW(@2)
                 	STS  @0+(@1),R30
                 	.ENDM
                 
                 	.MACRO __ORWMNN
                 	LDS  R30,@0+(@1)
                 	ORI  R30,LOW(@2)
                 	STS  @0+(@1),R30
                 	LDS  R30,@0+(@1)+1
                 	ORI  R30,HIGH(@2)
                 	STS  @0+(@1)+1,R30
                 	.ENDM
                 
                 	.MACRO __ORD1N
                 	ORI  R30,LOW(@0)
                 	ORI  R31,HIGH(@0)
                 	ORI  R22,BYTE3(@0)
                 	ORI  R23,BYTE4(@0)
                 	.ENDM
                 
                 	.MACRO __ORD2N
                 	ORI  R26,LOW(@0)
                 	ORI  R27,HIGH(@0)
                 	ORI  R24,BYTE3(@0)
                 	ORI  R25,BYTE4(@0)
                 	.ENDM
                 
                 	.MACRO __DELAY_USB
                 	LDI  R24,LOW(@0)
                 __DELAY_USB_LOOP:
                 	DEC  R24
                 	BRNE __DELAY_USB_LOOP
                 	.ENDM
                 
                 	.MACRO __DELAY_USW
                 	LDI  R24,LOW(@0)
                 	LDI  R25,HIGH(@0)
                 __DELAY_USW_LOOP:
                 	SBIW R24,1
                 	BRNE __DELAY_USW_LOOP
                 	.ENDM
                 
                 	.MACRO __GETD1S
                 	LDD  R30,Y+@0
                 	LDD  R31,Y+@0+1
                 	LDD  R22,Y+@0+2
                 	LDD  R23,Y+@0+3
                 	.ENDM
                 
                 	.MACRO __GETD2S
                 	LDD  R26,Y+@0
                 	LDD  R27,Y+@0+1
                 	LDD  R24,Y+@0+2
                 	LDD  R25,Y+@0+3
                 	.ENDM
                 
                 	.MACRO __PUTD1S
                 	STD  Y+@0,R30
                 	STD  Y+@0+1,R31
                 	STD  Y+@0+2,R22
                 	STD  Y+@0+3,R23
                 	.ENDM
                 
                 	.MACRO __PUTD2S
                 	STD  Y+@0,R26
                 	STD  Y+@0+1,R27
                 	STD  Y+@0+2,R24
                 	STD  Y+@0+3,R25
                 	.ENDM
                 
                 	.MACRO __PUTDZ2
                 	STD  Z+@0,R26
                 	STD  Z+@0+1,R27
                 	STD  Z+@0+2,R24
                 	STD  Z+@0+3,R25
                 	.ENDM
                 
                 	.MACRO __CLRD1S
                 	STD  Y+@0,R30
                 	STD  Y+@0+1,R30
                 	STD  Y+@0+2,R30
                 	STD  Y+@0+3,R30
                 	.ENDM
                 
                 	.MACRO __POINTB1MN
                 	LDI  R30,LOW(@0+(@1))
                 	.ENDM
                 
                 	.MACRO __POINTW1MN
                 	LDI  R30,LOW(@0+(@1))
                 	LDI  R31,HIGH(@0+(@1))
                 	.ENDM
                 
                 	.MACRO __POINTD1M
                 	LDI  R30,LOW(@0)
                 	LDI  R31,HIGH(@0)
                 	LDI  R22,BYTE3(@0)
                 	LDI  R23,BYTE4(@0)
                 	.ENDM
                 
                 	.MACRO __POINTW1FN
                 	LDI  R30,LOW(2*@0+(@1))
                 	LDI  R31,HIGH(2*@0+(@1))
                 	.ENDM
                 
                 	.MACRO __POINTD1FN
                 	LDI  R30,LOW(2*@0+(@1))
                 	LDI  R31,HIGH(2*@0+(@1))
                 	LDI  R22,BYTE3(2*@0+(@1))
                 	LDI  R23,BYTE4(2*@0+(@1))
                 	.ENDM
                 
                 	.MACRO __POINTB2MN
                 	LDI  R26,LOW(@0+(@1))
                 	.ENDM
                 
                 	.MACRO __POINTW2MN
                 	LDI  R26,LOW(@0+(@1))
                 	LDI  R27,HIGH(@0+(@1))
                 	.ENDM
                 
                 	.MACRO __POINTBRM
                 	LDI  R@0,LOW(@1)
                 	.ENDM
                 
                 	.MACRO __POINTWRM
                 	LDI  R@0,LOW(@2)
                 	LDI  R@1,HIGH(@2)
                 	.ENDM
                 
                 	.MACRO __POINTBRMN
                 	LDI  R@0,LOW(@1+(@2))
                 	.ENDM
                 
                 	.MACRO __POINTWRMN
                 	LDI  R@0,LOW(@2+(@3))
                 	LDI  R@1,HIGH(@2+(@3))
                 	.ENDM
                 
                 	.MACRO __POINTWRFN
                 	LDI  R@0,LOW(@2*2+(@3))
                 	LDI  R@1,HIGH(@2*2+(@3))
                 	.ENDM
                 
                 	.MACRO __GETD1N
                 	LDI  R30,LOW(@0)
                 	LDI  R31,HIGH(@0)
                 	LDI  R22,BYTE3(@0)
                 	LDI  R23,BYTE4(@0)
                 	.ENDM
                 
                 	.MACRO __GETD2N
                 	LDI  R26,LOW(@0)
                 	LDI  R27,HIGH(@0)
                 	LDI  R24,BYTE3(@0)
                 	LDI  R25,BYTE4(@0)
                 	.ENDM
                 
                 	.MACRO __GETB1MN
                 	LDS  R30,@0+(@1)
                 	.ENDM
                 
                 	.MACRO __GETB1HMN
                 	LDS  R31,@0+(@1)
                 	.ENDM
                 
                 	.MACRO __GETW1MN
                 	LDS  R30,@0+(@1)
                 	LDS  R31,@0+(@1)+1
                 	.ENDM
                 
                 	.MACRO __GETD1MN
                 	LDS  R30,@0+(@1)
                 	LDS  R31,@0+(@1)+1
                 	LDS  R22,@0+(@1)+2
                 	LDS  R23,@0+(@1)+3
                 	.ENDM
                 
                 	.MACRO __GETBRMN
                 	LDS  R@0,@1+(@2)
                 	.ENDM
                 
                 	.MACRO __GETWRMN
                 	LDS  R@0,@2+(@3)
                 	LDS  R@1,@2+(@3)+1
                 	.ENDM
                 
                 	.MACRO __GETWRZ
                 	LDD  R@0,Z+@2
                 	LDD  R@1,Z+@2+1
                 	.ENDM
                 
                 	.MACRO __GETD2Z
                 	LDD  R26,Z+@0
                 	LDD  R27,Z+@0+1
                 	LDD  R24,Z+@0+2
                 	LDD  R25,Z+@0+3
                 	.ENDM
                 
                 	.MACRO __GETB2MN
                 	LDS  R26,@0+(@1)
                 	.ENDM
                 
                 	.MACRO __GETW2MN
                 	LDS  R26,@0+(@1)
                 	LDS  R27,@0+(@1)+1
                 	.ENDM
                 
                 	.MACRO __GETD2MN
                 	LDS  R26,@0+(@1)
                 	LDS  R27,@0+(@1)+1
                 	LDS  R24,@0+(@1)+2
                 	LDS  R25,@0+(@1)+3
                 	.ENDM
                 
                 	.MACRO __PUTB1MN
                 	STS  @0+(@1),R30
                 	.ENDM
                 
                 	.MACRO __PUTW1MN
                 	STS  @0+(@1),R30
                 	STS  @0+(@1)+1,R31
                 	.ENDM
                 
                 	.MACRO __PUTD1MN
                 	STS  @0+(@1),R30
                 	STS  @0+(@1)+1,R31
                 	STS  @0+(@1)+2,R22
                 	STS  @0+(@1)+3,R23
                 	.ENDM
                 
                 	.MACRO __PUTB1EN
                 	LDI  R26,LOW(@0+(@1))
                 	LDI  R27,HIGH(@0+(@1))
                 	CALL __EEPROMWRB
                 	.ENDM
                 
                 	.MACRO __PUTW1EN
                 	LDI  R26,LOW(@0+(@1))
                 	LDI  R27,HIGH(@0+(@1))
                 	CALL __EEPROMWRW
                 	.ENDM
                 
                 	.MACRO __PUTD1EN
                 	LDI  R26,LOW(@0+(@1))
                 	LDI  R27,HIGH(@0+(@1))
                 	CALL __EEPROMWRD
                 	.ENDM
                 
                 	.MACRO __PUTBR0MN
                 	STS  @0+(@1),R0
                 	.ENDM
                 
                 	.MACRO __PUTBMRN
                 	STS  @0+(@1),R@2
                 	.ENDM
                 
                 	.MACRO __PUTWMRN
                 	STS  @0+(@1),R@2
                 	STS  @0+(@1)+1,R@3
                 	.ENDM
                 
                 	.MACRO __PUTBZR
                 	STD  Z+@1,R@0
                 	.ENDM
                 
                 	.MACRO __PUTWZR
                 	STD  Z+@2,R@0
                 	STD  Z+@2+1,R@1
                 	.ENDM
                 
                 	.MACRO __GETW1R
                 	MOV  R30,R@0
                 	MOV  R31,R@1
                 	.ENDM
                 
                 	.MACRO __GETW2R
                 	MOV  R26,R@0
                 	MOV  R27,R@1
                 	.ENDM
                 
                 	.MACRO __GETWRN
                 	LDI  R@0,LOW(@2)
                 	LDI  R@1,HIGH(@2)
                 	.ENDM
                 
                 	.MACRO __PUTW1R
                 	MOV  R@0,R30
                 	MOV  R@1,R31
                 	.ENDM
                 
                 	.MACRO __PUTW2R
                 	MOV  R@0,R26
                 	MOV  R@1,R27
                 	.ENDM
                 
                 	.MACRO __ADDWRN
                 	SUBI R@0,LOW(-@2)
                 	SBCI R@1,HIGH(-@2)
                 	.ENDM
                 
                 	.MACRO __ADDWRR
                 	ADD  R@0,R@2
                 	ADC  R@1,R@3
                 	.ENDM
                 
                 	.MACRO __SUBWRN
                 	SUBI R@0,LOW(@2)
                 	SBCI R@1,HIGH(@2)
                 	.ENDM
                 
                 	.MACRO __SUBWRR
                 	SUB  R@0,R@2
                 	SBC  R@1,R@3
                 	.ENDM
                 
                 	.MACRO __ANDWRN
                 	ANDI R@0,LOW(@2)
                 	ANDI R@1,HIGH(@2)
                 	.ENDM
                 
                 	.MACRO __ANDWRR
                 	AND  R@0,R@2
                 	AND  R@1,R@3
                 	.ENDM
                 
                 	.MACRO __ORWRN
                 	ORI  R@0,LOW(@2)
                 	ORI  R@1,HIGH(@2)
                 	.ENDM
                 
                 	.MACRO __ORWRR
                 	OR   R@0,R@2
                 	OR   R@1,R@3
                 	.ENDM
                 
                 	.MACRO __EORWRR
                 	EOR  R@0,R@2
                 	EOR  R@1,R@3
                 	.ENDM
                 
                 	.MACRO __GETWRS
                 	LDD  R@0,Y+@2
                 	LDD  R@1,Y+@2+1
                 	.ENDM
                 
                 	.MACRO __PUTBSR
                 	STD  Y+@1,R@0
                 	.ENDM
                 
                 	.MACRO __PUTWSR
                 	STD  Y+@2,R@0
                 	STD  Y+@2+1,R@1
                 	.ENDM
                 
                 	.MACRO __MOVEWRR
                 	MOV  R@0,R@2
                 	MOV  R@1,R@3
                 	.ENDM
                 
                 	.MACRO __INWR
                 	IN   R@0,@2
                 	IN   R@1,@2+1
                 	.ENDM
                 
                 	.MACRO __OUTWR
                 	OUT  @2+1,R@1
                 	OUT  @2,R@0
                 	.ENDM
                 
                 	.MACRO __CALL1MN
                 	LDS  R30,@0+(@1)
                 	LDS  R31,@0+(@1)+1
                 	ICALL
                 	.ENDM
                 
                 	.MACRO __CALL1FN
                 	LDI  R30,LOW(2*@0+(@1))
                 	LDI  R31,HIGH(2*@0+(@1))
                 	CALL __GETW1PF
                 	ICALL
                 	.ENDM
                 
                 	.MACRO __CALL2EN
                 	LDI  R26,LOW(@0+(@1))
                 	LDI  R27,HIGH(@0+(@1))
                 	CALL __EEPROMRDW
                 	ICALL
                 	.ENDM
                 
                 	.MACRO __GETW1STACK
                 	IN   R26,SPL
                 	IN   R27,SPH
                 	ADIW R26,@0+1
                 	LD   R30,X+
                 	LD   R31,X
                 	.ENDM
                 
                 	.MACRO __GETD1STACK
                 	IN   R26,SPL
                 	IN   R27,SPH
                 	ADIW R26,@0+1
                 	LD   R30,X+
                 	LD   R31,X+
                 	LD   R22,X
                 	.ENDM
                 
                 	.MACRO __NBST
                 	BST  R@0,@1
                 	IN   R30,SREG
                 	LDI  R31,0x40
                 	EOR  R30,R31
                 	OUT  SREG,R30
                 	.ENDM
                 
                 
                 	.MACRO __PUTB1SN
                 	LDD  R26,Y+@0
                 	LDD  R27,Y+@0+1
                 	SUBI R26,LOW(-@1)
                 	SBCI R27,HIGH(-@1)
                 	ST   X,R30
                 	.ENDM
                 
                 	.MACRO __PUTW1SN
                 	LDD  R26,Y+@0
                 	LDD  R27,Y+@0+1
                 	SUBI R26,LOW(-@1)
                 	SBCI R27,HIGH(-@1)
                 	ST   X+,R30
                 	ST   X,R31
                 	.ENDM
                 
                 	.MACRO __PUTD1SN
                 	LDD  R26,Y+@0
                 	LDD  R27,Y+@0+1
                 	SUBI R26,LOW(-@1)
                 	SBCI R27,HIGH(-@1)
                 	CALL __PUTDP1
                 	.ENDM
                 
                 	.MACRO __PUTB1SNS
                 	LDD  R26,Y+@0
                 	LDD  R27,Y+@0+1
                 	ADIW R26,@1
                 	ST   X,R30
                 	.ENDM
                 
                 	.MACRO __PUTW1SNS
                 	LDD  R26,Y+@0
                 	LDD  R27,Y+@0+1
                 	ADIW R26,@1
                 	ST   X+,R30
                 	ST   X,R31
                 	.ENDM
                 
                 	.MACRO __PUTD1SNS
                 	LDD  R26,Y+@0
                 	LDD  R27,Y+@0+1
                 	ADIW R26,@1
                 	CALL __PUTDP1
                 	.ENDM
                 
                 	.MACRO __PUTB1PMN
                 	LDS  R26,@0
                 	LDS  R27,@0+1
                 	SUBI R26,LOW(-@1)
                 	SBCI R27,HIGH(-@1)
                 	ST   X,R30
                 	.ENDM
                 
                 	.MACRO __PUTW1PMN
                 	LDS  R26,@0
                 	LDS  R27,@0+1
                 	SUBI R26,LOW(-@1)
                 	SBCI R27,HIGH(-@1)
                 	ST   X+,R30
                 	ST   X,R31
                 	.ENDM
                 
                 	.MACRO __PUTD1PMN
                 	LDS  R26,@0
                 	LDS  R27,@0+1
                 	SUBI R26,LOW(-@1)
                 	SBCI R27,HIGH(-@1)
                 	CALL __PUTDP1
                 	.ENDM
                 
                 	.MACRO __PUTB1PMNS
                 	LDS  R26,@0
                 	LDS  R27,@0+1
                 	ADIW R26,@1
                 	ST   X,R30
                 	.ENDM
                 
                 	.MACRO __PUTW1PMNS
                 	LDS  R26,@0
                 	LDS  R27,@0+1
                 	ADIW R26,@1
                 	ST   X+,R30
                 	ST   X,R31
                 	.ENDM
                 
                 	.MACRO __PUTD1PMNS
                 	LDS  R26,@0
                 	LDS  R27,@0+1
                 	ADIW R26,@1
                 	CALL __PUTDP1
                 	.ENDM
                 
                 	.MACRO __PUTB1RN
                 	MOVW R26,R@0
                 	SUBI R26,LOW(-@1)
                 	SBCI R27,HIGH(-@1)
                 	ST   X,R30
                 	.ENDM
                 
                 	.MACRO __PUTW1RN
                 	MOVW R26,R@0
                 	SUBI R26,LOW(-@1)
                 	SBCI R27,HIGH(-@1)
                 	ST   X+,R30
                 	ST   X,R31
                 	.ENDM
                 
                 	.MACRO __PUTD1RN
                 	MOVW R26,R@0
                 	SUBI R26,LOW(-@1)
                 	SBCI R27,HIGH(-@1)
                 	CALL __PUTDP1
                 	.ENDM
                 
                 	.MACRO __PUTB1RNS
                 	MOVW R26,R@0
                 	ADIW R26,@1
                 	ST   X,R30
                 	.ENDM
                 
                 	.MACRO __PUTW1RNS
                 	MOVW R26,R@0
                 	ADIW R26,@1
                 	ST   X+,R30
                 	ST   X,R31
                 	.ENDM
                 
                 	.MACRO __PUTD1RNS
                 	MOVW R26,R@0
                 	ADIW R26,@1
                 	CALL __PUTDP1
                 	.ENDM
                 
                 	.MACRO __PUTB1RON
                 	MOV  R26,R@0
                 	MOV  R27,R@1
                 	SUBI R26,LOW(-@2)
                 	SBCI R27,HIGH(-@2)
                 	ST   X,R30
                 	.ENDM
                 
                 	.MACRO __PUTW1RON
                 	MOV  R26,R@0
                 	MOV  R27,R@1
                 	SUBI R26,LOW(-@2)
                 	SBCI R27,HIGH(-@2)
                 	ST   X+,R30
                 	ST   X,R31
                 	.ENDM
                 
                 	.MACRO __PUTD1RON
                 	MOV  R26,R@0
                 	MOV  R27,R@1
                 	SUBI R26,LOW(-@2)
                 	SBCI R27,HIGH(-@2)
                 	CALL __PUTDP1
                 	.ENDM
                 
                 	.MACRO __PUTB1RONS
                 	MOV  R26,R@0
                 	MOV  R27,R@1
                 	ADIW R26,@2
                 	ST   X,R30
                 	.ENDM
                 
                 	.MACRO __PUTW1RONS
                 	MOV  R26,R@0
                 	MOV  R27,R@1
                 	ADIW R26,@2
                 	ST   X+,R30
                 	ST   X,R31
                 	.ENDM
                 
                 	.MACRO __PUTD1RONS
                 	MOV  R26,R@0
                 	MOV  R27,R@1
                 	ADIW R26,@2
                 	CALL __PUTDP1
                 	.ENDM
                 
                 
                 	.MACRO __GETB1SX
                 	MOVW R30,R28
                 	SUBI R30,LOW(-@0)
                 	SBCI R31,HIGH(-@0)
                 	LD   R30,Z
                 	.ENDM
                 
                 	.MACRO __GETB1HSX
                 	MOVW R30,R28
                 	SUBI R30,LOW(-@0)
                 	SBCI R31,HIGH(-@0)
                 	LD   R31,Z
                 	.ENDM
                 
                 	.MACRO __GETW1SX
                 	MOVW R30,R28
                 	SUBI R30,LOW(-@0)
                 	SBCI R31,HIGH(-@0)
                 	LD   R0,Z+
                 	LD   R31,Z
                 	MOV  R30,R0
                 	.ENDM
                 
                 	.MACRO __GETD1SX
                 	MOVW R30,R28
                 	SUBI R30,LOW(-@0)
                 	SBCI R31,HIGH(-@0)
                 	LD   R0,Z+
                 	LD   R1,Z+
                 	LD   R22,Z+
                 	LD   R23,Z
                 	MOVW R30,R0
                 	.ENDM
                 
                 	.MACRO __GETB2SX
                 	MOVW R26,R28
                 	SUBI R26,LOW(-@0)
                 	SBCI R27,HIGH(-@0)
                 	LD   R26,X
                 	.ENDM
                 
                 	.MACRO __GETW2SX
                 	MOVW R26,R28
                 	SUBI R26,LOW(-@0)
                 	SBCI R27,HIGH(-@0)
                 	LD   R0,X+
                 	LD   R27,X
                 	MOV  R26,R0
                 	.ENDM
                 
                 	.MACRO __GETD2SX
                 	MOVW R26,R28
                 	SUBI R26,LOW(-@0)
                 	SBCI R27,HIGH(-@0)
                 	LD   R0,X+
                 	LD   R1,X+
                 	LD   R24,X+
                 	LD   R25,X
                 	MOVW R26,R0
                 	.ENDM
                 
                 	.MACRO __GETBRSX
                 	MOVW R30,R28
                 	SUBI R30,LOW(-@1)
                 	SBCI R31,HIGH(-@1)
                 	LD   R@0,Z
                 	.ENDM
                 
                 	.MACRO __GETWRSX
                 	MOVW R30,R28
                 	SUBI R30,LOW(-@2)
                 	SBCI R31,HIGH(-@2)
                 	LD   R@0,Z+
                 	LD   R@1,Z
                 	.ENDM
                 
                 	.MACRO __GETBRSX2
                 	MOVW R26,R28
                 	SUBI R26,LOW(-@1)
                 	SBCI R27,HIGH(-@1)
                 	LD   R@0,X
                 	.ENDM
                 
                 	.MACRO __GETWRSX2
                 	MOVW R26,R28
                 	SUBI R26,LOW(-@2)
                 	SBCI R27,HIGH(-@2)
                 	LD   R@0,X+
                 	LD   R@1,X
                 	.ENDM
                 
                 	.MACRO __LSLW8SX
                 	MOVW R30,R28
                 	SUBI R30,LOW(-@0)
                 	SBCI R31,HIGH(-@0)
                 	LD   R31,Z
                 	CLR  R30
                 	.ENDM
                 
                 	.MACRO __PUTB1SX
                 	MOVW R26,R28
                 	SUBI R26,LOW(-@0)
                 	SBCI R27,HIGH(-@0)
                 	ST   X,R30
                 	.ENDM
                 
                 	.MACRO __PUTW1SX
                 	MOVW R26,R28
                 	SUBI R26,LOW(-@0)
                 	SBCI R27,HIGH(-@0)
                 	ST   X+,R30
                 	ST   X,R31
                 	.ENDM
                 
                 	.MACRO __PUTD1SX
                 	MOVW R26,R28
                 	SUBI R26,LOW(-@0)
                 	SBCI R27,HIGH(-@0)
                 	ST   X+,R30
                 	ST   X+,R31
                 	ST   X+,R22
                 	ST   X,R23
                 	.ENDM
                 
                 	.MACRO __CLRW1SX
                 	MOVW R26,R28
                 	SUBI R26,LOW(-@0)
                 	SBCI R27,HIGH(-@0)
                 	ST   X+,R30
                 	ST   X,R30
                 	.ENDM
                 
                 	.MACRO __CLRD1SX
                 	MOVW R26,R28
                 	SUBI R26,LOW(-@0)
                 	SBCI R27,HIGH(-@0)
                 	ST   X+,R30
                 	ST   X+,R30
                 	ST   X+,R30
                 	ST   X,R30
                 	.ENDM
                 
                 	.MACRO __PUTB2SX
                 	MOVW R30,R28
                 	SUBI R30,LOW(-@0)
                 	SBCI R31,HIGH(-@0)
                 	ST   Z,R26
                 	.ENDM
                 
                 	.MACRO __PUTW2SX
                 	MOVW R30,R28
                 	SUBI R30,LOW(-@0)
                 	SBCI R31,HIGH(-@0)
                 	ST   Z+,R26
                 	ST   Z,R27
                 	.ENDM
                 
                 	.MACRO __PUTD2SX
                 	MOVW R30,R28
                 	SUBI R30,LOW(-@0)
                 	SBCI R31,HIGH(-@0)
                 	ST   Z+,R26
                 	ST   Z+,R27
                 	ST   Z+,R24
                 	ST   Z,R25
                 	.ENDM
                 
                 	.MACRO __PUTBSRX
                 	MOVW R30,R28
                 	SUBI R30,LOW(-@1)
                 	SBCI R31,HIGH(-@1)
                 	ST   Z,R@0
                 	.ENDM
                 
                 	.MACRO __PUTWSRX
                 	MOVW R30,R28
                 	SUBI R30,LOW(-@2)
                 	SBCI R31,HIGH(-@2)
                 	ST   Z+,R@0
                 	ST   Z,R@1
                 	.ENDM
                 
                 	.MACRO __PUTB1SNX
                 	MOVW R26,R28
                 	SUBI R26,LOW(-@0)
                 	SBCI R27,HIGH(-@0)
                 	LD   R0,X+
                 	LD   R27,X
                 	MOV  R26,R0
                 	SUBI R26,LOW(-@1)
                 	SBCI R27,HIGH(-@1)
                 	ST   X,R30
                 	.ENDM
                 
                 	.MACRO __PUTW1SNX
                 	MOVW R26,R28
                 	SUBI R26,LOW(-@0)
                 	SBCI R27,HIGH(-@0)
                 	LD   R0,X+
                 	LD   R27,X
                 	MOV  R26,R0
                 	SUBI R26,LOW(-@1)
                 	SBCI R27,HIGH(-@1)
                 	ST   X+,R30
                 	ST   X,R31
                 	.ENDM
                 
                 	.MACRO __PUTD1SNX
                 	MOVW R26,R28
                 	SUBI R26,LOW(-@0)
                 	SBCI R27,HIGH(-@0)
                 	LD   R0,X+
                 	LD   R27,X
                 	MOV  R26,R0
                 	SUBI R26,LOW(-@1)
                 	SBCI R27,HIGH(-@1)
                 	ST   X+,R30
                 	ST   X+,R31
                 	ST   X+,R22
                 	ST   X,R23
                 	.ENDM
                 
                 	.MACRO __MULBRR
                 	MULS R@0,R@1
                 	MOVW R30,R0
                 	.ENDM
                 
                 	.MACRO __MULBRRU
                 	MUL  R@0,R@1
                 	MOVW R30,R0
                 	.ENDM
                 
                 	.MACRO __MULBRR0
                 	MULS R@0,R@1
                 	.ENDM
                 
                 	.MACRO __MULBRRU0
                 	MUL  R@0,R@1
                 	.ENDM
                 
                 	.MACRO __MULBNWRU
                 	LDI  R26,@2
                 	MUL  R26,R@0
                 	MOVW R30,R0
                 	MUL  R26,R@1
                 	ADD  R31,R0
                 	.ENDM
                 
                 ;NAME DEFINITIONS FOR GLOBAL VARIABLES ALLOCATED TO REGISTERS
                 	.DEF _monter_1_skonczyl=R4
                 	.DEF _monter_2_skonczyl=R6
                 	.DEF _monter_3_skonczyl=R8
                 	.DEF _monterzy_skonczyli=R10
                 	.DEF _start=R12
                 
                 	.CSEG
                 	.ORG 0x00
                 
                 ;START OF CODE MARKER
                 __START_OF_CODE:
                 
                 ;INTERRUPT VECTORS
000000 940c 01cb 	JMP  __RESET
000002 940c 0000 	JMP  0x00
000004 940c 0000 	JMP  0x00
000006 940c 0000 	JMP  0x00
000008 940c 0000 	JMP  0x00
00000a 940c 0000 	JMP  0x00
00000c 940c 0000 	JMP  0x00
00000e 940c 0000 	JMP  0x00
000010 940c 0000 	JMP  0x00
000012 940c 0000 	JMP  0x00
000014 940c 0000 	JMP  0x00
000016 940c 0000 	JMP  0x00
000018 940c 0000 	JMP  0x00
00001a 940c 0000 	JMP  0x00
00001c 940c 0000 	JMP  0x00
00001e 940c 0000 	JMP  0x00
000020 940c 020a 	JMP  _timer0_ovf_isr
000022 940c 0000 	JMP  0x00
000024 940c 0000 	JMP  0x00
000026 940c 0000 	JMP  0x00
000028 940c 0000 	JMP  0x00
00002a 940c 0000 	JMP  0x00
00002c 940c 0000 	JMP  0x00
00002e 940c 0000 	JMP  0x00
000030 940c 0000 	JMP  0x00
000032 940c 0000 	JMP  0x00
000034 940c 0000 	JMP  0x00
000036 940c 0000 	JMP  0x00
000038 940c 0000 	JMP  0x00
00003a 940c 0000 	JMP  0x00
00003c 940c 0000 	JMP  0x00
00003e 940c 0000 	JMP  0x00
000040 940c 0000 	JMP  0x00
000042 940c 0000 	JMP  0x00
000044 940c 0000 	JMP  0x00
                 
                 _tbl10_G100:
000046 2710
000047 03e8
000048 0064
000049 000a      	.DB  0x10,0x27,0xE8,0x3,0x64,0x0,0xA,0x0
00004a 0001      	.DB  0x1,0x0
                 _tbl16_G100:
00004b 1000
00004c 0100
00004d 0010
00004e 0001      	.DB  0x0,0x10,0x0,0x1,0x10,0x0,0x1,0x0
                 
                 _0x0:
00004f 2020
000050 2020
000051 2020
000052 2020      	.DB  0x20,0x20,0x20,0x20,0x20,0x20,0x20,0x20
000053 2020
000054 2020
000055 2020
000056 2020      	.DB  0x20,0x20,0x20,0x20,0x20,0x20,0x20,0x20
000057 2020
000058 2020
000059 2020
00005a 2020      	.DB  0x20,0x20,0x20,0x20,0x20,0x20,0x20,0x20
00005b 2020
00005c 2020
00005d 2020
00005e 2020      	.DB  0x20,0x20,0x20,0x20,0x20,0x20,0x20,0x20
00005f 2020
000060 2020
000061 2020
000062 2020      	.DB  0x20,0x20,0x20,0x20,0x20,0x20,0x20,0x20
000063 4900
000064 696e
000065 6a63
000066 6c61      	.DB  0x0,0x49,0x6E,0x69,0x63,0x6A,0x61,0x6C
000067 7a69
000068 6a75
000069 2065
00006a 616d      	.DB  0x69,0x7A,0x75,0x6A,0x65,0x20,0x6D,0x61
00006b 7a73
00006c 6e79
00006d 0065
00006e 7957      	.DB  0x73,0x7A,0x79,0x6E,0x65,0x0,0x57,0x79
00006f 7a63
000070 7379
000071 637a
000072 6f7a      	.DB  0x63,0x7A,0x79,0x73,0x7A,0x63,0x7A,0x6F
000073 6f6e
000074 6d20
000075 7361
000076 797a      	.DB  0x6E,0x6F,0x20,0x6D,0x61,0x73,0x7A,0x79
000077 656e
000078 4d00
000079 7361
00007a 797a      	.DB  0x6E,0x65,0x0,0x4D,0x61,0x73,0x7A,0x79
00007b 616e
00007c 7a20
00007d 6961
00007e 696e      	.DB  0x6E,0x61,0x20,0x7A,0x61,0x69,0x6E,0x69
00007f 6a63
000080 6c61
000081 7a69
000082 776f      	.DB  0x63,0x6A,0x61,0x6C,0x69,0x7A,0x6F,0x77
000083 6e61
000084 0061
000085 7a43
000086 6b65      	.DB  0x61,0x6E,0x61,0x0,0x43,0x7A,0x65,0x6B
000087 6d61
000088 6e20
000089 2061
00008a 7270      	.DB  0x61,0x6D,0x20,0x6E,0x61,0x20,0x70,0x72
00008b 7465
00008c 6720
00008d 6977
00008e 746e      	.DB  0x65,0x74,0x20,0x67,0x77,0x69,0x6E,0x74
00008f 776f
000090 6e61
000091 0079
000092 7250      	.DB  0x6F,0x77,0x61,0x6E,0x79,0x0,0x50,0x72
000093 6361
000094 0061
000095 615a
000096 726b      	.DB  0x61,0x63,0x61,0x0,0x5A,0x61,0x6B,0x72
000097 6365
000098 6c69
000099 6d65
00009a 7720      	.DB  0x65,0x63,0x69,0x6C,0x65,0x6D,0x20,0x77
00009b 7a73
00009c 7379
00009d 6b74
00009e 6569      	.DB  0x73,0x7A,0x79,0x73,0x74,0x6B,0x69,0x65
00009f 7a20
0000a0 6461
0000a1 6e61
0000a2 2065      	.DB  0x20,0x7A,0x61,0x64,0x61,0x6E,0x65,0x20
0000a3 7570
0000a4 6863
0000a5 7261
0000a6 0079      	.DB  0x70,0x75,0x63,0x68,0x61,0x72,0x79,0x0
0000a7 7242
0000a8 6b61
0000a9 7720
0000aa 6d79      	.DB  0x42,0x72,0x61,0x6B,0x20,0x77,0x79,0x6D
0000ab 6761
0000ac 6e61
0000ad 6765
0000ae 206f      	.DB  0x61,0x67,0x61,0x6E,0x65,0x67,0x6F,0x20
0000af 6963
0000b0 6e73
0000b1 6569
0000b2 696e      	.DB  0x63,0x69,0x73,0x6E,0x69,0x65,0x6E,0x69
0000b3 2061
0000b4 2036
0000b5 6162
0000b6 0072      	.DB  0x61,0x20,0x36,0x20,0x62,0x61,0x72,0x0
0000b7 6f44
0000b8 6f7a
0000b9 6e77
0000ba 6b69      	.DB  0x44,0x6F,0x7A,0x6F,0x77,0x6E,0x69,0x6B
0000bb 6b20
0000bc 656c
0000bd 756a
0000be 7020      	.DB  0x20,0x6B,0x6C,0x65,0x6A,0x75,0x20,0x70
0000bf 6572
0000c0 6f74
0000c1 2077
0000c2 696e      	.DB  0x72,0x65,0x74,0x6F,0x77,0x20,0x6E,0x69
0000c3 2065
0000c4 6f67
0000c5 6f74
0000c6 7977      	.DB  0x65,0x20,0x67,0x6F,0x74,0x6F,0x77,0x79
0000c7 4400
0000c8 7a6f
0000c9 776f
0000ca 696e      	.DB  0x0,0x44,0x6F,0x7A,0x6F,0x77,0x6E,0x69
0000cb 206b
0000cc 6c6b
0000cd 6a65
0000ce 2075      	.DB  0x6B,0x20,0x6B,0x6C,0x65,0x6A,0x75,0x20
0000cf 616e
0000d0 726b
0000d1 7465
0000d2 6b65      	.DB  0x6E,0x61,0x6B,0x72,0x65,0x74,0x65,0x6B
0000d3 6e20
0000d4 6569
0000d5 6720
0000d6 746f      	.DB  0x20,0x6E,0x69,0x65,0x20,0x67,0x6F,0x74
0000d7 776f
0000d8 0079
0000d9 7957
0000da 616c      	.DB  0x6F,0x77,0x79,0x0,0x57,0x79,0x6C,0x61
0000db 7a63
0000dc 6d20
0000dd 7361
0000de 797a      	.DB  0x63,0x7A,0x20,0x6D,0x61,0x73,0x7A,0x79
0000df 656e
0000e0 6920
0000e1 7020
0000e2 636f      	.DB  0x6E,0x65,0x20,0x69,0x20,0x70,0x6F,0x63
0000e3 657a
0000e4 616b
0000e5 206a
0000e6 2031      	.DB  0x7A,0x65,0x6B,0x61,0x6A,0x20,0x31,0x20
0000e7 696d
0000e8 756e
0000e9 6574
0000ea 4f00      	.DB  0x6D,0x69,0x6E,0x75,0x74,0x65,0x0,0x4F
0000eb 7364
0000ec 6f6c
0000ed 206e
0000ee 2069      	.DB  0x64,0x73,0x6C,0x6F,0x6E,0x20,0x69,0x20
0000ef 727a
0000f0 7365
0000f1 7465
0000f2 6a75      	.DB  0x7A,0x72,0x65,0x73,0x65,0x74,0x75,0x6A
0000f3 6b20
0000f4 7275
0000f5 7974
0000f6 656e      	.DB  0x20,0x6B,0x75,0x72,0x74,0x79,0x6E,0x65
0000f7 4d00
0000f8 6e6f
0000f9 6574
0000fa 2072      	.DB  0x0,0x4D,0x6F,0x6E,0x74,0x65,0x72,0x20
0000fb 2033
0000fc 696e
0000fd 2065
0000fe 616e      	.DB  0x33,0x20,0x6E,0x69,0x65,0x20,0x6E,0x61
0000ff 6963
000100 6e73
000101 6c61
000102 7020      	.DB  0x63,0x69,0x73,0x6E,0x61,0x6C,0x20,0x70
000103 6465
000104 6c61
000105 0061
000106 7a43      	.DB  0x65,0x64,0x61,0x6C,0x61,0x0,0x43,0x7A
000107 6b65
000108 6d61
000109 6e20
00010a 2061      	.DB  0x65,0x6B,0x61,0x6D,0x20,0x6E,0x61,0x20
00010b 7572
00010c 6863
00010d 6c20
00010e 6e61      	.DB  0x72,0x75,0x63,0x68,0x20,0x6C,0x61,0x6E
00010f 7563
000110 6863
000111 0061
000112 6f50      	.DB  0x63,0x75,0x63,0x68,0x61,0x0,0x50,0x6F
000113 7270
000114 7761
000115 7020
000116 6572      	.DB  0x70,0x72,0x61,0x77,0x20,0x70,0x72,0x65
000117 2074
000118 207a
000119 7267
00011a 797a      	.DB  0x74,0x20,0x7A,0x20,0x67,0x72,0x7A,0x79
00011b 6b62
00011c 6569
00011d 206d
00011e 2069      	.DB  0x62,0x6B,0x69,0x65,0x6D,0x20,0x69,0x20
00011f 616e
000120 6963
000121 6e73
000122 6a69      	.DB  0x6E,0x61,0x63,0x69,0x73,0x6E,0x69,0x6A
000123 6720
000124 7a75
000125 6b69
000126 5500      	.DB  0x20,0x67,0x75,0x7A,0x69,0x6B,0x0,0x55
000127 7573
000128 206e
000129 7270
00012a 7465      	.DB  0x73,0x75,0x6E,0x20,0x70,0x72,0x65,0x74
00012b 7a20
00012c 2065
00012d 7a73
00012e 7a63      	.DB  0x20,0x7A,0x65,0x20,0x73,0x7A,0x63,0x7A
00012f 6b65
000130 6920
000131 6e20
000132 6361      	.DB  0x65,0x6B,0x20,0x69,0x20,0x6E,0x61,0x63
000133 7369
000134 696e
000135 206a
000136 7567      	.DB  0x69,0x73,0x6E,0x69,0x6A,0x20,0x67,0x75
000137 697a
000138 006b
000139 7957
00013a 696d      	.DB  0x7A,0x69,0x6B,0x0,0x57,0x79,0x6D,0x69
00013b 6e65
00013c 6c20
00013d 6275
00013e 6e20      	.DB  0x65,0x6E,0x20,0x6C,0x75,0x62,0x20,0x6E
00013f 6b61
000140 6572
000141 2f63
000142 6f64      	.DB  0x61,0x6B,0x72,0x65,0x63,0x2F,0x64,0x6F
000143 726b
000144 6365
000145 6720
000146 7a72      	.DB  0x6B,0x72,0x65,0x63,0x20,0x67,0x72,0x7A
000147 6279
000148 6b65
000149 6920
00014a 6e20      	.DB  0x79,0x62,0x65,0x6B,0x20,0x69,0x20,0x6E
00014b 6361
00014c 7369
00014d 696e
00014e 206a      	.DB  0x61,0x63,0x69,0x73,0x6E,0x69,0x6A,0x20
00014f 7567
000150 697a
000151 006b
000152 6f4d      	.DB  0x67,0x75,0x7A,0x69,0x6B,0x0,0x4D,0x6F
000153 746e
000154 7265
000155 3320
000156 2d20      	.DB  0x6E,0x74,0x65,0x72,0x20,0x33,0x20,0x2D
000157 7a20
000158 6564
000159 6f6d
00015a 746e      	.DB  0x20,0x7A,0x64,0x65,0x6D,0x6F,0x6E,0x74
00015b 6a75
00015c 7020
00015d 6375
00015e 6168      	.DB  0x75,0x6A,0x20,0x70,0x75,0x63,0x68,0x61
00015f 2072
000160 2069
000161 6f70
000162 7774      	.DB  0x72,0x20,0x69,0x20,0x70,0x6F,0x74,0x77
000163 6569
000164 6472
000165 007a
000166 6f4d      	.DB  0x69,0x65,0x72,0x64,0x7A,0x0,0x4D,0x6F
000167 746e
000168 7265
000169 3320
00016a 2d20      	.DB  0x6E,0x74,0x65,0x72,0x20,0x33,0x20,0x2D
00016b 7720
00016c 7a79
00016d 6f77
00016e 206c      	.DB  0x20,0x77,0x79,0x7A,0x77,0x6F,0x6C,0x20
00016f 6572
000170 7a63
000171 696e
000172 2065      	.DB  0x72,0x65,0x63,0x7A,0x6E,0x69,0x65,0x20
000173 7a63
000174 6a75
000175 696e
000176 206b      	.DB  0x63,0x7A,0x75,0x6A,0x6E,0x69,0x6B,0x20
000177 7570
000178 6863
000179 7261
00017a 0061      	.DB  0x70,0x75,0x63,0x68,0x61,0x72,0x61,0x0
00017b 4c53
00017c 5641
00017d 2045
00017e 696e      	.DB  0x53,0x4C,0x41,0x56,0x45,0x20,0x6E,0x69
00017f 2065
000180 6f70
000181 7774
000182 6569      	.DB  0x65,0x20,0x70,0x6F,0x74,0x77,0x69,0x65
000183 6472
000184 697a
000185 206c
000186 6f70      	.DB  0x72,0x64,0x7A,0x69,0x6C,0x20,0x70,0x6F
000187 6164
000188 696e
000189 2061
00018a 616e      	.DB  0x64,0x61,0x6E,0x69,0x61,0x20,0x6E,0x61
00018b 726b
00018c 7465
00018d 696b
00018e 5300      	.DB  0x6B,0x72,0x65,0x74,0x6B,0x69,0x0,0x53
00018f 414c
000190 4556
000191 6e20
000192 6569      	.DB  0x4C,0x41,0x56,0x45,0x20,0x6E,0x69,0x65
000193 7020
000194 746f
000195 6977
000196 7265      	.DB  0x20,0x70,0x6F,0x74,0x77,0x69,0x65,0x72
000197 7a64
000198 6c69
000199 7a20
00019a 7a65      	.DB  0x64,0x7A,0x69,0x6C,0x20,0x7A,0x65,0x7A
00019b 6f77
00019c 656c
00019d 696e
00019e 2061      	.DB  0x77,0x6F,0x6C,0x65,0x6E,0x69,0x61,0x20
00019f 616e
0001a0 7320
0001a1 637a
0001a2 657a      	.DB  0x6E,0x61,0x20,0x73,0x7A,0x63,0x7A,0x65
0001a3 696b
0001a4 2000
0001a5 2020
0001a6 2020      	.DB  0x6B,0x69,0x0,0x20,0x20,0x20,0x20,0x20
0001a7 2020
0001a8 2020
0001a9 2020
0001aa 2020      	.DB  0x20,0x20,0x20,0x20,0x20,0x20,0x20,0x20
0001ab 2020
0001ac 2020
0001ad 2020
0001ae 2020      	.DB  0x20,0x20,0x20,0x20,0x20,0x20,0x20,0x20
0001af 2020
0001b0 2020
0001b1 2020
0001b2 2020      	.DB  0x20,0x20,0x20,0x20,0x20,0x20,0x20,0x20
0001b3 2020
0001b4 2020
0001b5 2020
0001b6 2020      	.DB  0x20,0x20,0x20,0x20,0x20,0x20,0x20,0x20
0001b7 2020
0001b8 2020
0001b9 2020
0001ba 2020      	.DB  0x20,0x20,0x20,0x20,0x20,0x20,0x20,0x20
0001bb 2020
0001bc 2020
0001bd 0020
0001be 2530      	.DB  0x20,0x20,0x20,0x20,0x20,0x0,0x30,0x25
0001bf 0064
0001c0 003a      	.DB  0x64,0x0,0x3A,0x0
                 _0x2040060:
C:\cvavreval\Tryumf4.0\List\Tryumf.asm(1211): warning: .cseg .db misalignment - padding zero byte
0001c1 0001      	.DB  0x1
                 _0x2040000:
0001c2 4e2d
0001c3 4e41
0001c4 4900
0001c5 464e      	.DB  0x2D,0x4E,0x41,0x4E,0x0,0x49,0x4E,0x46
C:\cvavreval\Tryumf4.0\List\Tryumf.asm(1214): warning: .cseg .db misalignment - padding zero byte
0001c6 0000      	.DB  0x0
                 
                 __GLOBAL_INI_TBL:
0001c7 0001      	.DW  0x01
0001c8 05d5      	.DW  __seed_G102
0001c9 0382      	.DW  _0x2040060*2
                 
                 _0xFFFFFFFF:
0001ca 0000      	.DW  0
                 
                 __RESET:
0001cb 94f8      	CLI
0001cc 27ee      	CLR  R30
0001cd bbec      	OUT  EECR,R30
                 
                 ;INTERRUPT VECTORS ARE PLACED
                 ;AT THE START OF FLASH
0001ce e0f1      	LDI  R31,1
0001cf bff5      	OUT  MCUCR,R31
0001d0 bfe5      	OUT  MCUCR,R30
0001d1 93e0 006c 	STS  XMCRB,R30
                 
                 ;DISABLE WATCHDOG
0001d3 e1f8      	LDI  R31,0x18
0001d4 bdf1      	OUT  WDTCR,R31
0001d5 bde1      	OUT  WDTCR,R30
                 
                 ;CLEAR R2-R14
0001d6 e08d      	LDI  R24,(14-2)+1
0001d7 e0a2      	LDI  R26,2
0001d8 27bb      	CLR  R27
                 __CLEAR_REG:
0001d9 93ed      	ST   X+,R30
0001da 958a      	DEC  R24
0001db f7e9      	BRNE __CLEAR_REG
                 
                 ;CLEAR SRAM
0001dc e080      	LDI  R24,LOW(__CLEAR_SRAM_SIZE)
0001dd e190      	LDI  R25,HIGH(__CLEAR_SRAM_SIZE)
0001de e0a0      	LDI  R26,LOW(__SRAM_START)
0001df e0b1      	LDI  R27,HIGH(__SRAM_START)
                 __CLEAR_SRAM:
0001e0 93ed      	ST   X+,R30
0001e1 9701      	SBIW R24,1
0001e2 f7e9      	BRNE __CLEAR_SRAM
                 
                 ;GLOBAL VARIABLES INITIALIZATION
0001e3 e8ee      	LDI  R30,LOW(__GLOBAL_INI_TBL*2)
0001e4 e0f3      	LDI  R31,HIGH(__GLOBAL_INI_TBL*2)
                 __GLOBAL_INI_NEXT:
0001e5 9185      	LPM  R24,Z+
0001e6 9195      	LPM  R25,Z+
0001e7 9700      	SBIW R24,0
0001e8 f061      	BREQ __GLOBAL_INI_END
0001e9 91a5      	LPM  R26,Z+
0001ea 91b5      	LPM  R27,Z+
0001eb 9005      	LPM  R0,Z+
0001ec 9015      	LPM  R1,Z+
0001ed 01bf      	MOVW R22,R30
0001ee 01f0      	MOVW R30,R0
                 __GLOBAL_INI_LOOP:
0001ef 9005      	LPM  R0,Z+
0001f0 920d      	ST   X+,R0
0001f1 9701      	SBIW R24,1
0001f2 f7e1      	BRNE __GLOBAL_INI_LOOP
0001f3 01fb      	MOVW R30,R22
0001f4 cff0      	RJMP __GLOBAL_INI_NEXT
                 __GLOBAL_INI_END:
                 
0001f5 bf8b      	OUT  RAMPZ,R24
                 
                 ;HARDWARE STACK POINTER INITIALIZATION
0001f6 efef      	LDI  R30,LOW(__SRAM_END-__HEAP_SIZE)
0001f7 bfed      	OUT  SPL,R30
0001f8 e1e0      	LDI  R30,HIGH(__SRAM_END-__HEAP_SIZE)
0001f9 bfee      	OUT  SPH,R30
                 
                 ;DATA STACK POINTER INITIALIZATION
0001fa e0c0      	LDI  R28,LOW(__SRAM_START+__DSTACK_SIZE)
0001fb e0d5      	LDI  R29,HIGH(__SRAM_START+__DSTACK_SIZE)
                 
0001fc 940c 11a8 	JMP  _main
                 
                 	.ESEG
                 	.ORG 0
                 
                 	.DSEG
                 	.ORG 0x500
                 
                 	.CSEG
                 ;/*****************************************************
                 ;This program was produced by the
                 ;CodeWizardAVR V2.05.0 Professional
                 ;Automatic Program Generator
                 ;© Copyright 1998-2010 Pavel Haiduc, HP InfoTech s.r.l.
                 ;http://www.hpinfotech.com
                 ;
                 ;Project :
                 ;Version :
                 ;Date    : 2016-11-18
                 ;Author  :
                 ;Company :
                 ;Comments:
                 ;
                 ;
                 ;Chip type               : ATmega128
                 ;Program type            : Application
                 ;AVR Core Clock frequency: 16,000000 MHz
                 ;Memory model            : Small
                 ;External RAM size       : 0
                 ;Data Stack size         : 1024
                 ;*****************************************************/
                 ;
                 ;#include <io.h>
                 	#ifndef __SLEEP_DEFINED__
                 	#define __SLEEP_DEFINED__
                 	.EQU __se_bit=0x20
                 	.EQU __sm_mask=0x1C
                 	.EQU __sm_powerdown=0x10
                 	.EQU __sm_powersave=0x18
                 	.EQU __sm_standby=0x14
                 	.EQU __sm_ext_standby=0x1C
                 	.EQU __sm_adc_noise_red=0x08
                 	.SET power_ctrl_reg=mcucr
                 	#endif
                 ;
                 ;// Declare your global variables here
                 ;
                 ;#define DATA_REGISTER_EMPTY (1<<UDRE0)
                 ;#define RX_COMPLETE (1<<RXC0)
                 ;#define FRAMING_ERROR (1<<FE0)
                 ;#define PARITY_ERROR (1<<UPE0)
                 ;#define DATA_OVERRUN (1<<DOR0)
                 ;
                 ;// Get a character from the USART1 Receiver
                 ;#pragma used+
                 ;char getchar1(void)
                 ; 0000 0025 {
                 
                 	.CSEG
                 ; 0000 0026 unsigned char status;
                 ; 0000 0027 char data;
                 ; 0000 0028 while (1)
                 ;	status -> R17
                 ;	data -> R16
                 ; 0000 0029       {
                 ; 0000 002A       while (((status=UCSR1A) & RX_COMPLETE)==0);
                 ; 0000 002B       data=UDR1;
                 ; 0000 002C       if ((status & (FRAMING_ERROR | PARITY_ERROR | DATA_OVERRUN))==0)
                 ; 0000 002D          return data;
                 ; 0000 002E       }
                 ; 0000 002F }
                 ;#pragma used-
                 ;
                 ;// Write a character to the USART1 Transmitter
                 ;#pragma used+
                 ;void putchar1(char c)
                 ; 0000 0035 {
                 ; 0000 0036 while ((UCSR1A & DATA_REGISTER_EMPTY)==0);
                 ;	c -> Y+0
                 ; 0000 0037 UDR1=c;
                 ; 0000 0038 }
                 ;#pragma used-
                 ;
                 ;
                 ;#include <stdio.h>
                 ;#include <mega128.h>
                 ;#include <delay.h>
                 ;//#include <alcd.h>
                 ;#include <string.h>
                 ;#include <stdlib.h>
                 ;#include <math.h>
                 ;
                 ;int skonczony_proces[10];
                 ;int proces[10];
                 ;int monter_1_skonczyl,monter_2_skonczyl,monter_3_skonczyl,monterzy_skonczyli;
                 ;int start;
                 ;int licznik_pucharow;
                 ;int licznik;
                 ;int jest_pret_pod_czujnikami;
                 ;int czas_silnika_dokrecajacego_grzybki, czas_silnika_dokrecajacego_grzybki_stala;
                 ;int il_pretow_gwintowanych;
                 ;int dlugosc_preta_gwintowanego;
                 ;long int sek0,sek1,sek2,sek3;
                 ;long int sek0_7s,sek1_7s,sek2_7s,sek3_7s;
                 ;long int czas_monterow,czas_na_transport_preta;
                 ;long int monter_1_time, monter_2_time, monter_3_time;
                 ;long int stala_czasowa;
                 ;int licznik_spoznien_monter_1,licznik_spoznien_monter_2, licznik_spoznien_monter_3;
                 ;int licznik_spoznien_monter_1_2, licznik_spoznien_monter_3_nowy;
                 ;int d,dd,gg,klej,klej_slave,monter_slave;
                 ;//char *dupa1;
                 ;//int i,ff;
                 ;int ff;
                 ;char z;
                 ;int grzybek;
                 ;int il_grzybkow,kontrola_grzybkow;
                 ;int licz;
                 ;int grzybek_biezacy_dokrecony;
                 ;int grzybek_dokrecony;
                 ;int oproznij_podajnik;
                 ;int metalowe_grzybki;
                 ;int zajechalem,sekwencja;
                 ;int pierwszy_raz;
                 ;int czas_monterow_stala;
                 ;int il_pretow_gwintowanych_stala;
                 ;int oczekiwanie_na_poprawienie;
                 ;int potw_zielonym_bo_pomyliles_pedal_z_potwierdz;
                 ;int czekaj_komunikat;
                 ;int przejechalem_czujnik_lub_jestem_na_nim;
                 ;int licznik_niezakreconych_grzybkow;
                 ;int grzybek_jest_nakrecony_na_precie;
                 ;int licznik_wylatujacych_grzybkow;
                 ;int licznik_wyzwolen_kurtyny;
                 ;int licznik_pucharow_global;
                 ;long int czas_zaloczonego_orientatora;
                 ;int zaloczono_kurtyne;
                 ;int anuluj_biezace_zlecenie;
                 ;int licznik_niewlozonych_pretow_z_grzybkiem;
                 ;int anuluj_biezace_zlecenie_const;
                 ;int msek_clock;
                 ;int sek_clock, min_clock, godz_clock;
                 ;int przez_sek_clock, przez_min_clock, przez_godz_clock;
                 ;
                 ;int tryb_male_puchary;
                 ;int predkosc_wiezyczek_male_puchary;
                 ;int wynik_wyboru_male_puchary;
                 ;int wielkosc_kamienia;
                 ;
                 ;
                 ;
                 ;//int dupcia;
                 ;//int wynik;
                 ;//int wynik1;
                 ;//int oleole;
                 ;
                 ;
                 ;void sterowanie_tasmociagami_monterow()
                 ; 0000 0085 {
                 ; 0000 0086 /*
                 ; 0000 0087 
                 ; 0000 0088 if(PINF.0 == 0)
                 ; 0000 0089     PORTD.7 = 1;
                 ; 0000 008A else                //tasma 1
                 ; 0000 008B     PORTD.7 = 0;
                 ; 0000 008C 
                 ; 0000 008D if(PINF.1 == 0)
                 ; 0000 008E     PORTD.6 = 1;
                 ; 0000 008F else                //tasma 2
                 ; 0000 0090     PORTD.6 = 0;
                 ; 0000 0091 
                 ; 0000 0092 */
                 ; 0000 0093 }
                 ;
                 ;void zerowanie_czasu()
                 ; 0000 0096 {
                 _zerowanie_czasu:
                 ; 0000 0097 msek_clock = 0;
0001fe 940e 1455 	CALL SUBOPT_0x0
                 ; 0000 0098 sek_clock = 0;
000200 940e 145b 	CALL SUBOPT_0x1
                 ; 0000 0099 min_clock = 0;
000202 940e 1461 	CALL SUBOPT_0x2
                 ; 0000 009A godz_clock = 0;
000204 e0e0      	LDI  R30,LOW(0)
000205 93e0 05c5 	STS  _godz_clock,R30
000207 93e0 05c6 	STS  _godz_clock+1,R30
                 ; 0000 009B }
000209 9508      	RET
                 ;
                 ;// Timer 0 overflow interrupt service routine
                 ;interrupt [TIM0_OVF] void timer0_ovf_isr(void)
                 ; 0000 009F {
                 _timer0_ovf_isr:
00020a 936a      	ST   -Y,R22
00020b 937a      	ST   -Y,R23
00020c 93aa      	ST   -Y,R26
00020d 93ba      	ST   -Y,R27
00020e 93ea      	ST   -Y,R30
00020f 93fa      	ST   -Y,R31
000210 b7ef      	IN   R30,SREG
000211 93ea      	ST   -Y,R30
                 ; 0000 00A0 sek0++;
000212 e3a6      	LDI  R26,LOW(_sek0)
000213 e0b5      	LDI  R27,HIGH(_sek0)
000214 940e 1467 	CALL SUBOPT_0x3
                 ; 0000 00A1 sek1++;
000216 e3aa      	LDI  R26,LOW(_sek1)
000217 e0b5      	LDI  R27,HIGH(_sek1)
000218 940e 1467 	CALL SUBOPT_0x3
                 ; 0000 00A2 sek2++;
00021a e3ae      	LDI  R26,LOW(_sek2)
00021b e0b5      	LDI  R27,HIGH(_sek2)
00021c 940e 1467 	CALL SUBOPT_0x3
                 ; 0000 00A3 sek3++;
00021e e4a2      	LDI  R26,LOW(_sek3)
00021f e0b5      	LDI  R27,HIGH(_sek3)
000220 940e 1467 	CALL SUBOPT_0x3
                 ; 0000 00A4 
                 ; 0000 00A5 msek_clock++;
000222 ebaf      	LDI  R26,LOW(_msek_clock)
000223 e0b5      	LDI  R27,HIGH(_msek_clock)
000224 940e 1470 	CALL SUBOPT_0x4
                 ; 0000 00A6 if(msek_clock == 60)
000226 91a0 05bf 	LDS  R26,_msek_clock
000228 91b0 05c0 	LDS  R27,_msek_clock+1
00022a 97dc      	SBIW R26,60
00022b f4d1      	BRNE _0xD
                 ; 0000 00A7      {
                 ; 0000 00A8      msek_clock = 0;
00022c 940e 1455 	CALL SUBOPT_0x0
                 ; 0000 00A9      sek_clock++;
00022e eca1      	LDI  R26,LOW(_sek_clock)
00022f e0b5      	LDI  R27,HIGH(_sek_clock)
000230 940e 1470 	CALL SUBOPT_0x4
                 ; 0000 00AA      if(sek_clock == 60)
000232 940e 1476 	CALL SUBOPT_0x5
000234 97dc      	SBIW R26,60
000235 f481      	BRNE _0xE
                 ; 0000 00AB         {
                 ; 0000 00AC         sek_clock = 0;
000236 940e 145b 	CALL SUBOPT_0x1
                 ; 0000 00AD         min_clock++;
000238 eca3      	LDI  R26,LOW(_min_clock)
000239 e0b5      	LDI  R27,HIGH(_min_clock)
00023a 940e 1470 	CALL SUBOPT_0x4
                 ; 0000 00AE         if(min_clock == 60)
00023c 940e 147b 	CALL SUBOPT_0x6
00023e 97dc      	SBIW R26,60
00023f f431      	BRNE _0xF
                 ; 0000 00AF             {
                 ; 0000 00B0             min_clock = 0;
000240 940e 1461 	CALL SUBOPT_0x2
                 ; 0000 00B1             godz_clock++;
000242 eca5      	LDI  R26,LOW(_godz_clock)
000243 e0b5      	LDI  R27,HIGH(_godz_clock)
000244 940e 1470 	CALL SUBOPT_0x4
                 ; 0000 00B2             }
                 ; 0000 00B3         }
                 _0xF:
                 ; 0000 00B4      }
                 _0xE:
                 ; 0000 00B5 
                 ; 0000 00B6 //16 mhz =
                 ; 0000 00B7 //co 1/16000s wykonywana jest operacja
                 ; 0000 00B8 //co 1/15,625 whodzi tam
                 ; 0000 00B9 //co 1024 jest 1s
                 ; 0000 00BA 
                 ; 0000 00BB 
                 ; 0000 00BC 
                 ; 0000 00BD 
                 ; 0000 00BE 
                 ; 0000 00BF //sek0_7s++;
                 ; 0000 00C0 
                 ; 0000 00C1 //sek1_7s++;
                 ; 0000 00C2 
                 ; 0000 00C3 //sek2_7s++;
                 ; 0000 00C4 
                 ; 0000 00C5 //sek3_7s++;
                 ; 0000 00C6 //if(z == 1)
                 ; 0000 00C7 //    {
                 ; 0000 00C8 //    monter_1_time++;
                 ; 0000 00C9 //    monter_2_time++;
                 ; 0000 00CA //    monter_3_time++;
                 ; 0000 00CB //    }
                 ; 0000 00CC //if(start == 0)
                 ; 0000 00CD     //sterowanie_tasmociagami_monterow();
                 ; 0000 00CE }
                 _0xD:
000246 91e9      	LD   R30,Y+
000247 bfef      	OUT  SREG,R30
000248 91f9      	LD   R31,Y+
000249 91e9      	LD   R30,Y+
00024a 91b9      	LD   R27,Y+
00024b 91a9      	LD   R26,Y+
00024c 9179      	LD   R23,Y+
00024d 9169      	LD   R22,Y+
00024e 9518      	RETI
                 ;
                 ;
                 ;
                 ;void orientator_grzybkow()
                 ; 0000 00D3 {
                 _orientator_grzybkow:
                 ; 0000 00D4 
                 ; 0000 00D5 if(PINA.1 == 1)
00024f 99c9      	SBIC 0x19,1
                 ; 0000 00D6     {
                 ; 0000 00D7     PORTD.4 = 1;
000250 9a94      	SBI  0x12,4
                 ; 0000 00D8     //if(grzybek == 0)
                 ; 0000 00D9     //   {
                 ; 0000 00DA     //   il_grzybkow++;
                 ; 0000 00DB     //   grzybek = 1;
                 ; 0000 00DC     //
                 ; 0000 00DD     }
                 ; 0000 00DE if(PORTD.4 == 1 & PINA.1 == 0)
000251 e0a0      	LDI  R26,0
000252 9994      	SBIC 0x12,4
000253 e0a1      	LDI  R26,1
000254 940e 1480 	CALL SUBOPT_0x7
000256 940e 1485 	CALL SUBOPT_0x8
000258 21e0      	AND  R30,R0
000259 f021      	BREQ _0x13
                 ; 0000 00DF     czas_zaloczonego_orientatora++;
00025a eba3      	LDI  R26,LOW(_czas_zaloczonego_orientatora)
00025b e0b5      	LDI  R27,HIGH(_czas_zaloczonego_orientatora)
00025c 940e 1467 	CALL SUBOPT_0x3
                 ; 0000 00E0 
                 ; 0000 00E1 if(PINA.1 == 0 & czas_zaloczonego_orientatora > 100000) //zmieniam z 10000
                 _0x13:
00025e 940e 1485 	CALL SUBOPT_0x8
000260 2e0e      	MOV  R0,R30
000261 91a0 05b3 	LDS  R26,_czas_zaloczonego_orientatora
000263 91b0 05b4 	LDS  R27,_czas_zaloczonego_orientatora+1
000265 9180 05b5 	LDS  R24,_czas_zaloczonego_orientatora+2
000267 9190 05b6 	LDS  R25,_czas_zaloczonego_orientatora+3
000269 940e 148c 	CALL SUBOPT_0x9
00026b 21e0      	AND  R30,R0
00026c f041      	BREQ _0x14
                 ; 0000 00E2     {
                 ; 0000 00E3     czas_zaloczonego_orientatora = 0;
00026d 940e 1493 	CALL SUBOPT_0xA
                 ; 0000 00E4     PORTD.4 = 0;
00026f 9894      	CBI  0x12,4
                 ; 0000 00E5     grzybek = 0;
000270 e0e0      	LDI  R30,LOW(0)
000271 93e0 0587 	STS  _grzybek,R30
000273 93e0 0588 	STS  _grzybek+1,R30
                 ; 0000 00E6     }
                 ; 0000 00E7 
                 ; 0000 00E8 
                 ; 0000 00E9 }
                 _0x14:
000275 9508      	RET
                 ;
                 ;int kontrola_grzyb()
                 ; 0000 00EC {
                 _kontrola_grzyb:
                 ; 0000 00ED int k;
                 ; 0000 00EE 
                 ; 0000 00EF /*
                 ; 0000 00F0 if(il_grzybkow < 7)
                 ; 0000 00F1     k = 0;
                 ; 0000 00F2 else
                 ; 0000 00F3     k = 1;
                 ; 0000 00F4 if(il_grzybkow >= 7 | PINA.1 == 0)
                 ; 0000 00F5     k = 1;
                 ; 0000 00F6 
                 ; 0000 00F7 */
                 ; 0000 00F8 
                 ; 0000 00F9 k = 1; //na pewno beda grzybki
000276 931a      	ST   -Y,R17
000277 930a      	ST   -Y,R16
                 ;	k -> R16,R17
                +
000278 e001     +LDI R16 , LOW ( 1 )
000279 e010     +LDI R17 , HIGH ( 1 )
                 	__GETWRN 16,17,1
                 ; 0000 00FA 
                 ; 0000 00FB 
                 ; 0000 00FC return k;
00027a 01f8      	MOVW R30,R16
00027b c01d      	RJMP _0x20A0006
                 ; 0000 00FD }
                 ;
                 ;
                 ;void inicjalizacja_orientator_grzybkow()
                 ; 0000 0101 {
                 _inicjalizacja_orientator_grzybkow:
                 ; 0000 0102 int g;
                 ; 0000 0103 g = 0;
00027c 940e 149d 	CALL SUBOPT_0xB
                 ;	g -> R16,R17
                 ; 0000 0104 
                 ; 0000 0105 
                 ; 0000 0106 while(PINA.1 == 1)
                 _0x17:
00027e 9bc9      	SBIS 0x19,1
00027f c002      	RJMP _0x19
                 ; 0000 0107    PORTD.4 = 1;
000280 9a94      	SBI  0x12,4
000281 cffc      	RJMP _0x17
                 _0x19:
                 ; 0000 0108 delay_ms(2000);
000282 940e 14a2 	CALL SUBOPT_0xC
                 ; 0000 0109 PORTD.4 = 0;
                 ; 0000 010A 
                 ; 0000 010B while(g<20)
                 _0x1E:
                +
000284 3104     +CPI R16 , LOW ( 20 )
000285 e0e0     +LDI R30 , HIGH ( 20 )
000286 071e     +CPC R17 , R30
                 	__CPWRN 16,17,20
000287 f45c      	BRGE _0x20
                 ; 0000 010C     {
                 ; 0000 010D     if(PINA.1 == 1)
000288 9bc9      	SBIS 0x19,1
000289 c006      	RJMP _0x21
                 ; 0000 010E         {
                 ; 0000 010F         while(PINA.1 == 1)
                 _0x22:
00028a 9bc9      	SBIS 0x19,1
00028b c002      	RJMP _0x24
                 ; 0000 0110             PORTD.4 = 1;
00028c 9a94      	SBI  0x12,4
00028d cffc      	RJMP _0x22
                 _0x24:
                 ; 0000 0111 delay_ms(2000);
00028e 940e 14a2 	CALL SUBOPT_0xC
                 ; 0000 0112         PORTD.4 = 0;
                 ; 0000 0113         }
                 ; 0000 0114     g++;
                 _0x21:
                +
000290 5f0f     +SUBI R16 , LOW ( - 1 )
000291 4f1f     +SBCI R17 , HIGH ( - 1 )
                 	__ADDWRN 16,17,1
                 ; 0000 0115     }
000292 cff1      	RJMP _0x1E
                 _0x20:
                 ; 0000 0116 
                 ; 0000 0117 
                 ; 0000 0118 
                 ; 0000 0119 il_grzybkow = 20;
000293 e1e4      	LDI  R30,LOW(20)
000294 e0f0      	LDI  R31,HIGH(20)
000295 93e0 0589 	STS  _il_grzybkow,R30
000297 93f0 058a 	STS  _il_grzybkow+1,R31
                 ; 0000 011A }
                 _0x20A0006:
000299 9109      	LD   R16,Y+
00029a 9119      	LD   R17,Y+
00029b 9508      	RET
                 ;
                 ;
                 ;void wylacz_maszyne()
                 ; 0000 011E {
                 _wylacz_maszyne:
                 ; 0000 011F putchar(90);  //5A
00029c 940e 14aa 	CALL SUBOPT_0xD
                 ; 0000 0120 putchar(165); //A5
                 ; 0000 0121 putchar(5);//05
00029e 940e 14b2 	CALL SUBOPT_0xE
                 ; 0000 0122 putchar(130);  //82
                 ; 0000 0123 putchar(0);    //00
                 ; 0000 0124 putchar(48);   //adres zmiennej 30
0002a0 940e 14be 	CALL SUBOPT_0xF
                 ; 0000 0125 putchar(0);    //00
0002a2 940e 14c2 	CALL SUBOPT_0x10
                 ; 0000 0126 putchar(0);   //0
0002a4 e0e0      	LDI  R30,LOW(0)
0002a5 c2e7      	RJMP _0x20A0004
                 ; 0000 0127 }
                 ;
                 ;int czekaj_na_guzik_start()
                 ; 0000 012A {
                 _czekaj_na_guzik_start:
                 ; 0000 012B z = 0;
0002a6 e0e0      	LDI  R30,LOW(0)
0002a7 93e0 0586 	STS  _z,R30
                 ; 0000 012C putchar(90);
0002a9 940e 14aa 	CALL SUBOPT_0xD
                 ; 0000 012D putchar(165);
                 ; 0000 012E putchar(4);
0002ab 940e 14c6 	CALL SUBOPT_0x11
                 ; 0000 012F putchar(131);
                 ; 0000 0130 putchar(0);
                 ; 0000 0131 putchar(48);  //adres zmiennej - 30
0002ad 940e 14be 	CALL SUBOPT_0xF
                 ; 0000 0132 putchar(1);
0002af 940e 14cf 	CALL SUBOPT_0x12
                 ; 0000 0133 getchar();
                 ; 0000 0134 getchar();
                 ; 0000 0135 getchar();
                 ; 0000 0136 getchar();
                 ; 0000 0137 getchar();
                 ; 0000 0138 getchar();
                 ; 0000 0139 getchar();
                 ; 0000 013A getchar();
                 ; 0000 013B z = getchar();
0002b1 93e0 0586 	STS  _z,R30
                 ; 0000 013C //itoa(z,dupa1);
                 ; 0000 013D //lcd_puts(dupa1);
                 ; 0000 013E 
                 ; 0000 013F return z;
0002b3 e0f0      	LDI  R31,0
0002b4 9508      	RET
                 ; 0000 0140 }
                 ;
                 ;
                 ;void ustaw_na_nie_anulacje_zlecenia()
                 ; 0000 0144 {
                 _ustaw_na_nie_anulacje_zlecenia:
                 ; 0000 0145 putchar(90);  //5A
0002b5 940e 14aa 	CALL SUBOPT_0xD
                 ; 0000 0146 putchar(165); //A5
                 ; 0000 0147 putchar(5);//05
0002b7 940e 14b2 	CALL SUBOPT_0xE
                 ; 0000 0148 putchar(130);  //82    //zmienie na anulowanie zlecenia
                 ; 0000 0149 putchar(0);    //00
                 ; 0000 014A putchar(96);   //60
0002b9 940e 14e5 	CALL SUBOPT_0x13
                 ; 0000 014B putchar(0);    //00
0002bb 940e 14c2 	CALL SUBOPT_0x10
                 ; 0000 014C putchar(1);   //1
0002bd e0e1      	LDI  R30,LOW(1)
0002be c2ce      	RJMP _0x20A0004
                 ; 0000 014D }
                 ;
                 ;void kontrola_lampki_brak_pretow()
                 ; 0000 0150 {
                 _kontrola_lampki_brak_pretow:
                 ; 0000 0151 if(PINA.6 == 0)
0002bf 99ce      	SBIC 0x19,6
0002c0 c002      	RJMP _0x29
                 ; 0000 0152     PORTD.7 = 0;
0002c1 9897      	CBI  0x12,7
                 ; 0000 0153 else
0002c2 c001      	RJMP _0x2C
                 _0x29:
                 ; 0000 0154     PORTD.7 = 1;
0002c3 9a97      	SBI  0x12,7
                 ; 0000 0155 }
                 _0x2C:
0002c4 9508      	RET
                 ;
                 ;int wyczysc_grzebienie()
                 ; 0000 0158 {
                 ; 0000 0159 int wynik;
                 ; 0000 015A wynik = 0;
                 ;	wynik -> R16,R17
                 ; 0000 015B 
                 ; 0000 015C switch(proces[1])
                 ; 0000 015D     {
                 ; 0000 015E     case 0:
                 ; 0000 015F         sek1_7s = 0;
                 ; 0000 0160         sek1 = 0;
                 ; 0000 0161         proces[1] = 1;
                 ; 0000 0162     break;
                 ; 0000 0163 
                 ; 0000 0164     case 1:
                 ; 0000 0165             if(sek1 > 100)
                 ; 0000 0166                 {
                 ; 0000 0167                 if(PINA.4 == 0)
                 ; 0000 0168                     {
                 ; 0000 0169                     PORTB.7 = 0;  //zakoncz dociskanie preta
                 ; 0000 016A                     PORTD.0 = 1; //rozpcznij przeniesienie pret do nakladania kleju
                 ; 0000 016B                     }
                 ; 0000 016C                 else
                 ; 0000 016D                     {
                 ; 0000 016E                     PORTD.0 = 1; //czujnik juz nie swieci, czyli jade dalej
                 ; 0000 016F                     sek1 = 0;
                 ; 0000 0170                     proces[1] = 2;
                 ; 0000 0171                     }
                 ; 0000 0172                 }
                 ; 0000 0173     break;
                 ; 0000 0174     case 2:
                 ; 0000 0175             if(PINA.4 == 0)  //dojechalem znowu do czujnika
                 ; 0000 0176                 {
                 ; 0000 0177                 PORTD.0 = 0; //wylacz silnik
                 ; 0000 0178                 proces[1] = 3;
                 ; 0000 0179                 }
                 ; 0000 017A     break;
                 ; 0000 017B 
                 ; 0000 017C     case 3:
                 ; 0000 017D                 sek1 = 0;
                 ; 0000 017E                 proces[1] = 0;
                 ; 0000 017F                 wynik = 1;
                 ; 0000 0180     break;
                 ; 0000 0181     }
                 ; 0000 0182 
                 ; 0000 0183 return wynik;
                 ; 0000 0184 }
                 ;
                 ;void wydaj_dzwiek()
                 ; 0000 0187 {
                 _wydaj_dzwiek:
                 ; 0000 0188 licz++;
0002c5 e8ad      	LDI  R26,LOW(_licz)
0002c6 e0b5      	LDI  R27,HIGH(_licz)
0002c7 940e 1470 	CALL SUBOPT_0x4
                 ; 0000 0189 if(licz >= 100);
                 ; 0000 018A     {
                 ; 0000 018B     licz = 0;
0002c9 940e 14e9 	CALL SUBOPT_0x14
                 ; 0000 018C     putchar(90);  //5A
0002cb 940e 14aa 	CALL SUBOPT_0xD
                 ; 0000 018D     putchar(165); //A5
                 ; 0000 018E     putchar(3);//03
0002cd 940e 14ef 	CALL SUBOPT_0x15
                 ; 0000 018F     putchar(128);  //80    //dzwiek
                 ; 0000 0190     putchar(2);    //02
                 ; 0000 0191     putchar(16);   //10
0002cf c2bd      	RJMP _0x20A0004
                 ; 0000 0192     }
                 ; 0000 0193 }
                 ;
                 ;
                 ;
                 ;
                 ;void komunikat_1_na_panel()
                 ; 0000 0199 {
                 _komunikat_1_na_panel:
                 ; 0000 019A putchar(90);
0002d0 940e 14aa 	CALL SUBOPT_0xD
                 ; 0000 019B putchar(165);
                 ; 0000 019C putchar(35);       //ilosc liter 43 + 3
0002d2 940e 14fd 	CALL SUBOPT_0x16
                 ; 0000 019D putchar(130);  //82
                 ; 0000 019E putchar(0);    //0
                 ; 0000 019F putchar(144);  //adres 90 - 144
0002d4 940e 1506 	CALL SUBOPT_0x17
                 ; 0000 01A0 printf("                                        ");
0002d6 940e 150a 	CALL SUBOPT_0x18
                 ; 0000 01A1 
                 ; 0000 01A2 putchar(90);
                 ; 0000 01A3 putchar(165);
                 ; 0000 01A4 putchar(23);       //ilosc liter 20 + 3
0002d8 e1e7      	LDI  R30,LOW(23)
0002d9 940e 1513 	CALL SUBOPT_0x19
                 ; 0000 01A5 putchar(130);  //82
                 ; 0000 01A6 putchar(0);    //0
                 ; 0000 01A7 putchar(144);  //adres 90 - 144
0002db 940e 1506 	CALL SUBOPT_0x17
                 ; 0000 01A8 printf("Inicjalizuje maszyne");
                +
0002dd ece7     +LDI R30 , LOW ( 2 * _0x0 + ( 41 ) )
0002de e0f0     +LDI R31 , HIGH ( 2 * _0x0 + ( 41 ) )
                 	__POINTW1FN _0x0,41
0002df c092      	RJMP _0x20A0005
                 ; 0000 01A9 }
                 ;
                 ;void komunikat_2_na_panel()
                 ; 0000 01AC {
                 ; 0000 01AD putchar(90);
                 ; 0000 01AE putchar(165);
                 ; 0000 01AF putchar(23);       //ilosc liter 20 + 3
                 ; 0000 01B0 putchar(130);  //82
                 ; 0000 01B1 putchar(0);    //0
                 ; 0000 01B2 putchar(144);  //adres 90 - 144
                 ; 0000 01B3 printf("Wyczyszczono maszyne");
                 ; 0000 01B4 }
                 ;
                 ;void komunikat_3_na_panel()
                 ; 0000 01B7 {
                 _komunikat_3_na_panel:
                 ; 0000 01B8 putchar(90);
0002e0 940e 14aa 	CALL SUBOPT_0xD
                 ; 0000 01B9 putchar(165);
                 ; 0000 01BA putchar(27);       //ilosc liter 20 + 3
0002e2 e1eb      	LDI  R30,LOW(27)
0002e3 940e 1513 	CALL SUBOPT_0x19
                 ; 0000 01BB putchar(130);  //82
                 ; 0000 01BC putchar(0);    //0
                 ; 0000 01BD putchar(144);  //adres 90 - 144
0002e5 940e 1506 	CALL SUBOPT_0x17
                 ; 0000 01BE printf("Maszyna zainicjalizowana");
                +
0002e7 efe1     +LDI R30 , LOW ( 2 * _0x0 + ( 83 ) )
0002e8 e0f0     +LDI R31 , HIGH ( 2 * _0x0 + ( 83 ) )
                 	__POINTW1FN _0x0,83
0002e9 c088      	RJMP _0x20A0005
                 ; 0000 01BF }
                 ;
                 ;void komunikat_4_na_panel()
                 ; 0000 01C2 {
                 _komunikat_4_na_panel:
                 ; 0000 01C3 putchar(90);
0002ea 940e 14aa 	CALL SUBOPT_0xD
                 ; 0000 01C4 putchar(165);
                 ; 0000 01C5 putchar(28);       //ilosc liter 25 + 3
0002ec e1ec      	LDI  R30,LOW(28)
0002ed 940e 1513 	CALL SUBOPT_0x19
                 ; 0000 01C6 putchar(130);  //82
                 ; 0000 01C7 putchar(0);    //0
                 ; 0000 01C8 putchar(144);  //adres 90 - 144
0002ef 940e 1506 	CALL SUBOPT_0x17
                 ; 0000 01C9 printf("Czekam na pret gwintowany");
                +
0002f1 e0ea     +LDI R30 , LOW ( 2 * _0x0 + ( 108 ) )
0002f2 e0f1     +LDI R31 , HIGH ( 2 * _0x0 + ( 108 ) )
                 	__POINTW1FN _0x0,108
0002f3 c07e      	RJMP _0x20A0005
                 ; 0000 01CA }
                 ;
                 ;void komunikat_5_na_panel()
                 ; 0000 01CD {
                 _komunikat_5_na_panel:
                 ; 0000 01CE putchar(90);
0002f4 940e 14aa 	CALL SUBOPT_0xD
                 ; 0000 01CF putchar(165);
                 ; 0000 01D0 putchar(35);       //ilosc liter 43 + 3
0002f6 940e 14fd 	CALL SUBOPT_0x16
                 ; 0000 01D1 putchar(130);  //82
                 ; 0000 01D2 putchar(0);    //0
                 ; 0000 01D3 putchar(144);  //adres 90 - 144
0002f8 940e 1506 	CALL SUBOPT_0x17
                 ; 0000 01D4 printf("                                        ");
0002fa 940e 150a 	CALL SUBOPT_0x18
                 ; 0000 01D5 
                 ; 0000 01D6 putchar(90);
                 ; 0000 01D7 putchar(165);
                 ; 0000 01D8 putchar(8);       //ilosc liter 5 + 3
0002fc e0e8      	LDI  R30,LOW(8)
0002fd 940e 1513 	CALL SUBOPT_0x19
                 ; 0000 01D9 putchar(130);  //82
                 ; 0000 01DA putchar(0);    //0
                 ; 0000 01DB putchar(144);  //adres 90 - 144
0002ff 940e 1506 	CALL SUBOPT_0x17
                 ; 0000 01DC printf("Praca");
                +
000301 e2e4     +LDI R30 , LOW ( 2 * _0x0 + ( 134 ) )
000302 e0f1     +LDI R31 , HIGH ( 2 * _0x0 + ( 134 ) )
                 	__POINTW1FN _0x0,134
000303 c06e      	RJMP _0x20A0005
                 ; 0000 01DD }
                 ;
                 ;void komunikat_6_na_panel()
                 ; 0000 01E0 {
                 _komunikat_6_na_panel:
                 ; 0000 01E1 putchar(90);
000304 940e 14aa 	CALL SUBOPT_0xD
                 ; 0000 01E2 putchar(165);
                 ; 0000 01E3 putchar(27);       //ilosc liter 24 + 3
000306 e1eb      	LDI  R30,LOW(27)
000307 940e 1513 	CALL SUBOPT_0x19
                 ; 0000 01E4 putchar(130);  //82
                 ; 0000 01E5 putchar(0);    //0
                 ; 0000 01E6 putchar(144);  //adres 90 - 144
000309 940e 1506 	CALL SUBOPT_0x17
                 ; 0000 01E7 printf("                        ");
                +
00030b eaee     +LDI R30 , LOW ( 2 * _0x0 + ( 16 ) )
00030c e0f0     +LDI R31 , HIGH ( 2 * _0x0 + ( 16 ) )
                 	__POINTW1FN _0x0,16
00030d 940e 151b 	CALL SUBOPT_0x1A
                 ; 0000 01E8 
                 ; 0000 01E9 putchar(90);
00030f 940e 14aa 	CALL SUBOPT_0xD
                 ; 0000 01EA putchar(165);
                 ; 0000 01EB putchar(38);       //ilosc liter 35 + 3
000311 e2e6      	LDI  R30,LOW(38)
000312 940e 1513 	CALL SUBOPT_0x19
                 ; 0000 01EC putchar(130);  //82
                 ; 0000 01ED putchar(0);    //0
                 ; 0000 01EE putchar(144);  //adres 90 - 144
000314 940e 1506 	CALL SUBOPT_0x17
                 ; 0000 01EF printf("Zakrecilem wszystkie zadane puchary");
                +
000316 e2ea     +LDI R30 , LOW ( 2 * _0x0 + ( 140 ) )
000317 e0f1     +LDI R31 , HIGH ( 2 * _0x0 + ( 140 ) )
                 	__POINTW1FN _0x0,140
000318 c059      	RJMP _0x20A0005
                 ; 0000 01F0 }
                 ;
                 ;void komunikat_7_na_panel()
                 ; 0000 01F3 {
                 _komunikat_7_na_panel:
                 ; 0000 01F4 putchar(90);
000319 940e 14aa 	CALL SUBOPT_0xD
                 ; 0000 01F5 putchar(165);
                 ; 0000 01F6 putchar(34);       //ilosc liter 31 + 3
00031b e2e2      	LDI  R30,LOW(34)
00031c 940e 1513 	CALL SUBOPT_0x19
                 ; 0000 01F7 putchar(130);  //82
                 ; 0000 01F8 putchar(0);    //0
                 ; 0000 01F9 putchar(144);  //adres 90 - 144
00031e 940e 1506 	CALL SUBOPT_0x17
                 ; 0000 01FA printf("Brak wymaganego cisnienia 6 bar");
                +
000320 e4ee     +LDI R30 , LOW ( 2 * _0x0 + ( 176 ) )
000321 e0f1     +LDI R31 , HIGH ( 2 * _0x0 + ( 176 ) )
                 	__POINTW1FN _0x0,176
000322 c04f      	RJMP _0x20A0005
                 ; 0000 01FB }
                 ;
                 ;void komunikat_8_na_panel(int i)
                 ; 0000 01FE {
                 ; 0000 01FF if(i == 0)
                 ;	i -> Y+0
                 ; 0000 0200     {
                 ; 0000 0201     putchar(90);
                 ; 0000 0202     putchar(165);
                 ; 0000 0203     putchar(35);       //ilosc liter 32 + 3
                 ; 0000 0204     putchar(130);  //82
                 ; 0000 0205     putchar(0);    //0
                 ; 0000 0206     putchar(144);  //adres 70 - 112
                 ; 0000 0207     printf("Dozownik kleju pretow nie gotowy");
                 ; 0000 0208     }
                 ; 0000 0209 if(i == 1)
                 ; 0000 020A     {
                 ; 0000 020B     putchar(90);
                 ; 0000 020C     putchar(165);
                 ; 0000 020D     putchar(37);       //ilosc liter 34 + 3
                 ; 0000 020E     putchar(130);  //82
                 ; 0000 020F     putchar(0);    //0
                 ; 0000 0210     putchar(144);  //adres 90 - 144
                 ; 0000 0211     printf("Dozownik kleju nakretek nie gotowy");
                 ; 0000 0212     }
                 ; 0000 0213 }
                 ;
                 ;void komunikat_9_na_panel()
                 ; 0000 0216 {
                 _komunikat_9_na_panel:
                 ; 0000 0217 putchar(90);
000323 940e 14aa 	CALL SUBOPT_0xD
                 ; 0000 0218 putchar(165);
                 ; 0000 0219 putchar(37);       //ilosc liter 34 + 3
000325 e2e5      	LDI  R30,LOW(37)
000326 940e 1513 	CALL SUBOPT_0x19
                 ; 0000 021A putchar(130);  //82
                 ; 0000 021B putchar(0);    //0
                 ; 0000 021C putchar(144);  //adres 90 - 144
000328 940e 1506 	CALL SUBOPT_0x17
                 ; 0000 021D printf("Wylacz maszyne i poczekaj 1 minute");
                +
00032a ebe2     +LDI R30 , LOW ( 2 * _0x0 + ( 276 ) )
00032b e0f1     +LDI R31 , HIGH ( 2 * _0x0 + ( 276 ) )
                 	__POINTW1FN _0x0,276
00032c c045      	RJMP _0x20A0005
                 ; 0000 021E }
                 ;
                 ;void komunikat_10_na_panel()
                 ; 0000 0221 {
                 _komunikat_10_na_panel:
                 ; 0000 0222 putchar(90);
00032d 940e 14aa 	CALL SUBOPT_0xD
                 ; 0000 0223 putchar(165);
                 ; 0000 0224 putchar(28);       //ilosc liter 25 + 3
00032f e1ec      	LDI  R30,LOW(28)
000330 940e 1513 	CALL SUBOPT_0x19
                 ; 0000 0225 putchar(130);  //82
                 ; 0000 0226 putchar(0);    //0
                 ; 0000 0227 putchar(144);  //adres 90 - 144
000332 940e 1506 	CALL SUBOPT_0x17
                 ; 0000 0228 printf("Odslon i zresetuj kurtyne");
                +
000334 ede5     +LDI R30 , LOW ( 2 * _0x0 + ( 311 ) )
000335 e0f1     +LDI R31 , HIGH ( 2 * _0x0 + ( 311 ) )
                 	__POINTW1FN _0x0,311
000336 c03b      	RJMP _0x20A0005
                 ; 0000 0229 }
                 ;
                 ;void komunikat_11_na_panel()
                 ; 0000 022C {
                 _komunikat_11_na_panel:
                 ; 0000 022D putchar(90);
000337 940e 14aa 	CALL SUBOPT_0xD
                 ; 0000 022E putchar(165);
                 ; 0000 022F putchar(31);       //ilosc liter 28 + 3
000339 e1ef      	LDI  R30,LOW(31)
00033a 940e 1513 	CALL SUBOPT_0x19
                 ; 0000 0230 putchar(130);  //82
                 ; 0000 0231 putchar(0);    //0
                 ; 0000 0232 putchar(144);  //adres 90 - 144
00033c 940e 1506 	CALL SUBOPT_0x17
                 ; 0000 0233 printf("Monter 3 nie nacisnal pedala");
                +
00033e eeef     +LDI R30 , LOW ( 2 * _0x0 + ( 337 ) )
00033f e0f1     +LDI R31 , HIGH ( 2 * _0x0 + ( 337 ) )
                 	__POINTW1FN _0x0,337
000340 c031      	RJMP _0x20A0005
                 ; 0000 0234 }
                 ;
                 ;void komunikat_12_na_panel()
                 ; 0000 0237 {
                 _komunikat_12_na_panel:
                 ; 0000 0238 putchar(90);
000341 940e 14aa 	CALL SUBOPT_0xD
                 ; 0000 0239 putchar(165);
                 ; 0000 023A putchar(26);       //ilosc liter 23 + 3
000343 e1ea      	LDI  R30,LOW(26)
000344 940e 1513 	CALL SUBOPT_0x19
                 ; 0000 023B putchar(130);  //82
                 ; 0000 023C putchar(0);    //0
                 ; 0000 023D putchar(144);  //adres 90 - 144
000346 940e 1506 	CALL SUBOPT_0x17
                 ; 0000 023E printf("Czekam na ruch lancucha");
                +
000348 e0ec     +LDI R30 , LOW ( 2 * _0x0 + ( 366 ) )
000349 e0f2     +LDI R31 , HIGH ( 2 * _0x0 + ( 366 ) )
                 	__POINTW1FN _0x0,366
00034a c027      	RJMP _0x20A0005
                 ; 0000 023F }
                 ;
                 ;void komunikat_14_na_panel()
                 ; 0000 0242 {
                 _komunikat_14_na_panel:
                 ; 0000 0243 putchar(90);
00034b 940e 14aa 	CALL SUBOPT_0xD
                 ; 0000 0244 putchar(165);
                 ; 0000 0245 putchar(43);       //ilosc liter 40 + 3
00034d e2eb      	LDI  R30,LOW(43)
00034e 940e 1513 	CALL SUBOPT_0x19
                 ; 0000 0246 putchar(130);  //82
                 ; 0000 0247 putchar(0);    //0
                 ; 0000 0248 putchar(144);  //adres 90 - 144
000350 940e 1506 	CALL SUBOPT_0x17
                 ; 0000 0249 printf("Popraw pret z grzybkiem i nacisnij guzik");
                +
000352 e2e4     +LDI R30 , LOW ( 2 * _0x0 + ( 390 ) )
000353 e0f2     +LDI R31 , HIGH ( 2 * _0x0 + ( 390 ) )
                 	__POINTW1FN _0x0,390
000354 c01d      	RJMP _0x20A0005
                 ; 0000 024A }
                 ;
                 ;void komunikat_13_na_panel()
                 ; 0000 024D {
                 _komunikat_13_na_panel:
                 ; 0000 024E putchar(90);
000355 940e 14aa 	CALL SUBOPT_0xD
                 ; 0000 024F putchar(165);
                 ; 0000 0250 putchar(39);       //ilosc liter 36 + 3
000357 e2e7      	LDI  R30,LOW(39)
000358 940e 1513 	CALL SUBOPT_0x19
                 ; 0000 0251 putchar(130);  //82
                 ; 0000 0252 putchar(0);    //0
                 ; 0000 0253 putchar(144);  //adres 90 - 144
00035a 940e 1506 	CALL SUBOPT_0x17
                 ; 0000 0254 printf("Usun pret ze szczek i nacisnij guzik");
                +
00035c e4ed     +LDI R30 , LOW ( 2 * _0x0 + ( 431 ) )
00035d e0f2     +LDI R31 , HIGH ( 2 * _0x0 + ( 431 ) )
                 	__POINTW1FN _0x0,431
00035e c013      	RJMP _0x20A0005
                 ; 0000 0255 }
                 ;
                 ;void komunikat_15_na_panel()
                 ; 0000 0258 {
                 _komunikat_15_na_panel:
                 ; 0000 0259 putchar(90);
00035f 940e 14aa 	CALL SUBOPT_0xD
                 ; 0000 025A putchar(165);
                 ; 0000 025B putchar(52);       //ilosc liter 42 + 3  //49+3
000361 e3e4      	LDI  R30,LOW(52)
000362 940e 1513 	CALL SUBOPT_0x19
                 ; 0000 025C putchar(130);  //82
                 ; 0000 025D putchar(0);    //0
                 ; 0000 025E putchar(144);  //adres 90 - 144
000364 940e 1506 	CALL SUBOPT_0x17
                 ; 0000 025F printf("Wymien lub nakrec/dokrec grzybek i nacisnij guzik");
                +
000366 e7e2     +LDI R30 , LOW ( 2 * _0x0 + ( 468 ) )
000367 e0f2     +LDI R31 , HIGH ( 2 * _0x0 + ( 468 ) )
                 	__POINTW1FN _0x0,468
000368 c009      	RJMP _0x20A0005
                 ; 0000 0260 }
                 ;
                 ;void komunikat_16_na_panel()
                 ; 0000 0263 {
                 ; 0000 0264 putchar(90);
                 ; 0000 0265 putchar(165);
                 ; 0000 0266 putchar(42);       //ilosc liter 39 + 3
                 ; 0000 0267 putchar(130);  //82
                 ; 0000 0268 putchar(0);    //0
                 ; 0000 0269 putchar(144);  //adres 90 - 144
                 ; 0000 026A printf("Monter 3 - zdemontuj puchar i potwierdz");
                 ; 0000 026B }
                 ;
                 ;void komunikat_17_na_panel()
                 ; 0000 026E {
                 ; 0000 026F putchar(90);
                 ; 0000 0270 putchar(165);
                 ; 0000 0271 putchar(44);       //ilosc liter 41 + 3
                 ; 0000 0272 putchar(130);  //82
                 ; 0000 0273 putchar(0);    //0
                 ; 0000 0274 putchar(144);  //adres 90 - 144
                 ; 0000 0275 printf("Monter 3 - wyzwol recznie czujnik puchara");  //41
                 ; 0000 0276 }
                 ;
                 ;
                 ;void komunikat_18_na_panel()
                 ; 0000 027A {
                 ; 0000 027B putchar(90);
                 ; 0000 027C putchar(165);
                 ; 0000 027D putchar(41);       //ilosc liter 38 + 3
                 ; 0000 027E putchar(130);  //82
                 ; 0000 027F putchar(0);    //0
                 ; 0000 0280 putchar(144);  //adres 90 - 144
                 ; 0000 0281 printf("SLAVE nie potwierdzil podania nakretki");  //41
                 ; 0000 0282 }
                 ;
                 ;void komunikat_19_na_panel()
                 ; 0000 0285 {
                 ; 0000 0286 putchar(90);
                 ; 0000 0287 putchar(165);
                 ; 0000 0288 putchar(46);       //ilosc liter 43 + 3
                 ; 0000 0289 putchar(130);  //82
                 ; 0000 028A putchar(0);    //0
                 ; 0000 028B putchar(144);  //adres 90 - 144
                 ; 0000 028C printf("SLAVE nie potwierdzil zezwolenia na szczeki");  //43
                 ; 0000 028D }
                 ;
                 ;void komunikat_czysc_na_panel()
                 ; 0000 0290 {
                 _komunikat_czysc_na_panel:
                 ; 0000 0291 putchar(90);
000369 940e 14aa 	CALL SUBOPT_0xD
                 ; 0000 0292 putchar(165);
                 ; 0000 0293 putchar(53); //38      //ilosc liter 50 + 3 //TU ZMIENIAM NORMALNIE SIE DODAJE??
00036b e3e5      	LDI  R30,LOW(53)
00036c 940e 1513 	CALL SUBOPT_0x19
                 ; 0000 0294 putchar(130);  //82
                 ; 0000 0295 putchar(0);    //0
                 ; 0000 0296 putchar(144);  //adres 70 - 112
00036e 940e 1506 	CALL SUBOPT_0x17
                 ; 0000 0297 printf("                                                  ");
                +
000370 e4e9     +LDI R30 , LOW ( 2 * _0x0 + ( 683 ) )
000371 e0f3     +LDI R31 , HIGH ( 2 * _0x0 + ( 683 ) )
                 	__POINTW1FN _0x0,683
                 _0x20A0005:
000372 93fa      	ST   -Y,R31
000373 93ea      	ST   -Y,R30
000374 e080      	LDI  R24,0
000375 940e 1419 	CALL _printf
000377 9622      	ADIW R28,2
                 ; 0000 0298 }
000378 9508      	RET
                 ;
                 ;void przeslij_parametry_do_slave(char pomocnicza,char numer)
                 ; 0000 029B {
                 ; 0000 029C 
                 ; 0000 029D int spr;
                 ; 0000 029E 
                 ; 0000 029F PORTE.7 = 1;//do komunikacji ¿adanie
                 ;	pomocnicza -> Y+3
                 ;	numer -> Y+2
                 ;	spr -> R16,R17
                 ; 0000 02A0 putchar1(numer);
                 ; 0000 02A1 putchar1(pomocnicza);
                 ; 0000 02A2 spr = getchar1();
                 ; 0000 02A3 if(spr == 3)
                 ; 0000 02A4     PORTE.7 = 0;//do komunikacji koniec ¿adania
                 ; 0000 02A5 else
                 ; 0000 02A6     {
                 ; 0000 02A7     if(numer == 3)
                 ; 0000 02A8         komunikat_18_na_panel();  //nie potwierdzil podania nakretki
                 ; 0000 02A9     if(numer == 5)
                 ; 0000 02AA         komunikat_19_na_panel();  //nie potwierdzil zezwolenia na szczeki
                 ; 0000 02AB     PORTE.7 = 0;//do komunikacji koniec ¿adania
                 ; 0000 02AC     }
                 ; 0000 02AD }
                 ;
                 ;
                 ;void odpytaj_parametry_z_panelu(int k)
                 ; 0000 02B1 {
                 _odpytaj_parametry_z_panelu:
                 ; 0000 02B2 char pomocnicza;
                 ; 0000 02B3 int hh;
                 ; 0000 02B4 int oleole;
                 ; 0000 02B5 oleole = 0;
000379 940e 1aee 	CALL __SAVELOCR6
                 ;	k -> Y+6
                 ;	pomocnicza -> R17
                 ;	hh -> R18,R19
                 ;	oleole -> R20,R21
                +
00037b e040     +LDI R20 , LOW ( 0 )
00037c e050     +LDI R21 , HIGH ( 0 )
                 	__GETWRN 20,21,0
                 ; 0000 02B6 z = 0;
00037d e0e0      	LDI  R30,LOW(0)
00037e 93e0 0586 	STS  _z,R30
                 ; 0000 02B7 pomocnicza = 0;
000380 e010      	LDI  R17,LOW(0)
                 ; 0000 02B8 
                 ; 0000 02B9 if(k == 1)
000381 81ae      	LDD  R26,Y+6
000382 81bf      	LDD  R27,Y+6+1
000383 9711      	SBIW R26,1
000384 f011      	BREQ PC+3
000385 940c 03c6 	JMP _0x4F
                 ; 0000 02BA {
                 ; 0000 02BB putchar(90);
000387 940e 14aa 	CALL SUBOPT_0xD
                 ; 0000 02BC putchar(165);
                 ; 0000 02BD putchar(4);
000389 940e 14c6 	CALL SUBOPT_0x11
                 ; 0000 02BE putchar(131);
                 ; 0000 02BF putchar(0);
                 ; 0000 02C0 putchar(64);  //adres zmiennej - 40
00038b 940e 1522 	CALL SUBOPT_0x1B
                 ; 0000 02C1 putchar(1);   //dlugosc preta gwintowanego
                 ; 0000 02C2 getchar();
                 ; 0000 02C3 getchar();
                 ; 0000 02C4 getchar();
                 ; 0000 02C5 getchar();
                 ; 0000 02C6 getchar();
                 ; 0000 02C7 getchar();
                 ; 0000 02C8 getchar();
                 ; 0000 02C9 getchar();
                 ; 0000 02CA dlugosc_preta_gwintowanego = getchar();
00038d e0f0      	LDI  R31,0
00038e 940e 1527 	CALL SUBOPT_0x1C
                 ; 0000 02CB if(dlugosc_preta_gwintowanego == 60)
000390 940e 152c 	CALL SUBOPT_0x1D
000392 97dc      	SBIW R26,60
000393 f421      	BRNE _0x50
                 ; 0000 02CC     dlugosc_preta_gwintowanego = 61;
000394 e3ed      	LDI  R30,LOW(61)
000395 e0f0      	LDI  R31,HIGH(61)
000396 940e 1527 	CALL SUBOPT_0x1C
                 ; 0000 02CD 
                 ; 0000 02CE putchar(90);
                 _0x50:
000398 940e 14aa 	CALL SUBOPT_0xD
                 ; 0000 02CF putchar(165);
                 ; 0000 02D0 putchar(4);
00039a 940e 1531 	CALL SUBOPT_0x1E
                 ; 0000 02D1 putchar(131);
                 ; 0000 02D2 putchar(16);
                 ; 0000 02D3 putchar(16);  //adres zmiennej - 1010
00039c 940e 153d 	CALL SUBOPT_0x1F
                 ; 0000 02D4 putchar(1);   //czy metalowe grzybki
00039e 940e 14cf 	CALL SUBOPT_0x12
                 ; 0000 02D5 getchar();
                 ; 0000 02D6 getchar();
                 ; 0000 02D7 getchar();
                 ; 0000 02D8 getchar();
                 ; 0000 02D9 getchar();
                 ; 0000 02DA getchar();
                 ; 0000 02DB getchar();
                 ; 0000 02DC getchar();
                 ; 0000 02DD hh = getchar();
0003a0 940e 1541 	CALL SUBOPT_0x20
                 ; 0000 02DE if(hh == 0)
0003a2 f439      	BRNE _0x51
                 ; 0000 02DF     metalowe_grzybki = 1;
0003a3 e0e1      	LDI  R30,LOW(1)
0003a4 e0f0      	LDI  R31,HIGH(1)
0003a5 93e0 0595 	STS  _metalowe_grzybki,R30
0003a7 93f0 0596 	STS  _metalowe_grzybki+1,R31
                 ; 0000 02E0 else
0003a9 c005      	RJMP _0x52
                 _0x51:
                 ; 0000 02E1     metalowe_grzybki = 0;
0003aa e0e0      	LDI  R30,LOW(0)
0003ab 93e0 0595 	STS  _metalowe_grzybki,R30
0003ad 93e0 0596 	STS  _metalowe_grzybki+1,R30
                 ; 0000 02E2 
                 ; 0000 02E3 putchar(90);
                 _0x52:
0003af 940e 14aa 	CALL SUBOPT_0xD
                 ; 0000 02E4 putchar(165);
                 ; 0000 02E5 putchar(4);
0003b1 940e 1531 	CALL SUBOPT_0x1E
                 ; 0000 02E6 putchar(131);
                 ; 0000 02E7 putchar(16);
                 ; 0000 02E8 putchar(32);  //adres zmiennej - 1020
0003b3 940e 1546 	CALL SUBOPT_0x21
                 ; 0000 02E9 putchar(1);   //czy oproznic podajnik grzybkow
0003b5 940e 14cf 	CALL SUBOPT_0x12
                 ; 0000 02EA getchar();
                 ; 0000 02EB getchar();
                 ; 0000 02EC getchar();
                 ; 0000 02ED getchar();
                 ; 0000 02EE getchar();
                 ; 0000 02EF getchar();
                 ; 0000 02F0 getchar();
                 ; 0000 02F1 getchar();
                 ; 0000 02F2 hh = getchar();
0003b7 940e 1541 	CALL SUBOPT_0x20
                 ; 0000 02F3 if(hh == 0)
0003b9 f439      	BRNE _0x53
                 ; 0000 02F4     oproznij_podajnik = 1;
0003ba e0e1      	LDI  R30,LOW(1)
0003bb e0f0      	LDI  R31,HIGH(1)
0003bc 93e0 0593 	STS  _oproznij_podajnik,R30
0003be 93f0 0594 	STS  _oproznij_podajnik+1,R31
                 ; 0000 02F5 else
0003c0 c005      	RJMP _0x54
                 _0x53:
                 ; 0000 02F6     oproznij_podajnik = 0;
0003c1 e0e0      	LDI  R30,LOW(0)
0003c2 93e0 0593 	STS  _oproznij_podajnik,R30
0003c4 93e0 0594 	STS  _oproznij_podajnik+1,R30
                 ; 0000 02F7 }
                 _0x54:
                 ; 0000 02F8 
                 ; 0000 02F9 putchar(90);
                 _0x4F:
0003c6 940e 14aa 	CALL SUBOPT_0xD
                 ; 0000 02FA putchar(165);
                 ; 0000 02FB putchar(4);
0003c8 940e 14c6 	CALL SUBOPT_0x11
                 ; 0000 02FC putchar(131);
                 ; 0000 02FD putchar(0);
                 ; 0000 02FE putchar(80);  //adres zmiennej - 50
0003ca 940e 154a 	CALL SUBOPT_0x22
                 ; 0000 02FF putchar(1);   //czas po jakim wylaczony silnik
                 ; 0000 0300 getchar();
                 ; 0000 0301 getchar();
                 ; 0000 0302 getchar();
                 ; 0000 0303 getchar();
                 ; 0000 0304 getchar();
                 ; 0000 0305 getchar();
                 ; 0000 0306 getchar();
                 ; 0000 0307 getchar();
                 ; 0000 0308 czas_silnika_dokrecajacego_grzybki = getchar();
0003cc e0f0      	LDI  R31,0
0003cd 93e0 052e 	STS  _czas_silnika_dokrecajacego_grzybki,R30
0003cf 93f0 052f 	STS  _czas_silnika_dokrecajacego_grzybki+1,R31
                 ; 0000 0309 
                 ; 0000 030A if(k == 1 | (k == 0 & il_pretow_gwintowanych > 4))
0003d1 940e 154f 	CALL SUBOPT_0x23
0003d3 2e1e      	MOV  R1,R30
0003d4 81ae      	LDD  R26,Y+6
0003d5 81bf      	LDD  R27,Y+6+1
0003d6 940e 1556 	CALL SUBOPT_0x24
0003d8 940e 155c 	CALL SUBOPT_0x25
0003da e0e4      	LDI  R30,LOW(4)
0003db e0f0      	LDI  R31,HIGH(4)
0003dc 940e 1a3f 	CALL __GTW12
0003de 21e0      	AND  R30,R0
0003df 29e1      	OR   R30,R1
0003e0 f169      	BREQ _0x55
                 ; 0000 030B {
                 ; 0000 030C putchar(90);
0003e1 940e 14aa 	CALL SUBOPT_0xD
                 ; 0000 030D putchar(165);
                 ; 0000 030E putchar(4);
0003e3 940e 14c6 	CALL SUBOPT_0x11
                 ; 0000 030F putchar(131);
                 ; 0000 0310 putchar(0);
                 ; 0000 0311 putchar(96);  //adres zmiennej - 60
0003e5 940e 14e5 	CALL SUBOPT_0x13
                 ; 0000 0312 putchar(1);     //odczyt czy anulowac zlecenie
0003e7 940e 14cf 	CALL SUBOPT_0x12
                 ; 0000 0313 getchar();
                 ; 0000 0314 getchar();
                 ; 0000 0315 getchar();
                 ; 0000 0316 getchar();
                 ; 0000 0317 getchar();
                 ; 0000 0318 getchar();
                 ; 0000 0319 getchar();
                 ; 0000 031A getchar();
                 ; 0000 031B hh = getchar();
0003e9 940e 1541 	CALL SUBOPT_0x20
                 ; 0000 031C 
                 ; 0000 031D if(hh == 0)
0003eb f439      	BRNE _0x56
                 ; 0000 031E     anuluj_biezace_zlecenie = 1;
0003ec e0e1      	LDI  R30,LOW(1)
0003ed e0f0      	LDI  R31,HIGH(1)
0003ee 93e0 05b9 	STS  _anuluj_biezace_zlecenie,R30
0003f0 93f0 05ba 	STS  _anuluj_biezace_zlecenie+1,R31
                 ; 0000 031F else
0003f2 c005      	RJMP _0x57
                 _0x56:
                 ; 0000 0320     anuluj_biezace_zlecenie = 0;
0003f3 e0e0      	LDI  R30,LOW(0)
0003f4 93e0 05b9 	STS  _anuluj_biezace_zlecenie,R30
0003f6 93e0 05ba 	STS  _anuluj_biezace_zlecenie+1,R30
                 ; 0000 0321 
                 ; 0000 0322 
                 ; 0000 0323 
                 ; 0000 0324 //czas_monterow = (long int)pomocnicza * stala_czasowa;
                 ; 0000 0325 czas_monterow = 7 * stala_czasowa;
                 _0x57:
0003f8 91e0 056a 	LDS  R30,_stala_czasowa
0003fa 91f0 056b 	LDS  R31,_stala_czasowa+1
0003fc 9160 056c 	LDS  R22,_stala_czasowa+2
0003fe 9170 056d 	LDS  R23,_stala_czasowa+3
                +
000400 e0a7     +LDI R26 , LOW ( 0x7 )
000401 e0b0     +LDI R27 , HIGH ( 0x7 )
000402 e080     +LDI R24 , BYTE3 ( 0x7 )
000403 e090     +LDI R25 , BYTE4 ( 0x7 )
                 	__GETD2N 0x7
000404 940e 1a82 	CALL __MULD12
000406 93e0 0556 	STS  _czas_monterow,R30
000408 93f0 0557 	STS  _czas_monterow+1,R31
00040a 9360 0558 	STS  _czas_monterow+2,R22
00040c 9370 0559 	STS  _czas_monterow+3,R23
                 ; 0000 0326 }
                 ; 0000 0327 
                 ; 0000 0328 if(pierwszy_raz == 0)
                 _0x55:
00040e 91e0 059b 	LDS  R30,_pierwszy_raz
000410 91f0 059c 	LDS  R31,_pierwszy_raz+1
000412 9730      	SBIW R30,0
000413 f471      	BRNE _0x58
                 ; 0000 0329     {
                 ; 0000 032A     //przeslij_parametry_do_slave(pomocnicza, 2);
                 ; 0000 032B     pierwszy_raz = 1;
000414 e0e1      	LDI  R30,LOW(1)
000415 e0f0      	LDI  R31,HIGH(1)
000416 93e0 059b 	STS  _pierwszy_raz,R30
000418 93f0 059c 	STS  _pierwszy_raz+1,R31
                 ; 0000 032C     czas_monterow_stala = czas_monterow;
00041a 91e0 0556 	LDS  R30,_czas_monterow
00041c 91f0 0557 	LDS  R31,_czas_monterow+1
00041e 93e0 059d 	STS  _czas_monterow_stala,R30
000420 93f0 059e 	STS  _czas_monterow_stala+1,R31
                 ; 0000 032D     }
                 ; 0000 032E 
                 ; 0000 032F if(czas_monterow_stala != czas_monterow)
                 _0x58:
000422 940e 1561 	CALL SUBOPT_0x26
000424 91a0 059d 	LDS  R26,_czas_monterow_stala
000426 91b0 059e 	LDS  R27,_czas_monterow_stala+1
000428 940e 1a1d 	CALL __CWD2
00042a 940e 1ae9 	CALL __CPD12
00042c f029      	BREQ _0x59
                 ; 0000 0330    pierwszy_raz = 0;
00042d e0e0      	LDI  R30,LOW(0)
00042e 93e0 059b 	STS  _pierwszy_raz,R30
000430 93e0 059c 	STS  _pierwszy_raz+1,R30
                 ; 0000 0331 
                 ; 0000 0332 if(start == 0 & k == 1)
                 _0x59:
000432 01d6      	MOVW R26,R12
000433 940e 1556 	CALL SUBOPT_0x24
000435 940e 154f 	CALL SUBOPT_0x23
000437 21e0      	AND  R30,R0
000438 f151      	BREQ _0x5A
                 ; 0000 0333     {
                 ; 0000 0334     putchar(90);
000439 940e 14aa 	CALL SUBOPT_0xD
                 ; 0000 0335     putchar(165);
                 ; 0000 0336     putchar(4);
00043b 940e 14c6 	CALL SUBOPT_0x11
                 ; 0000 0337     putchar(131);
                 ; 0000 0338     putchar(0);
                 ; 0000 0339     putchar(112);  //adres zmiennej - 70
00043d 940e 156a 	CALL SUBOPT_0x27
                 ; 0000 033A     putchar(1);     //odczyt ilosci pucharow do zmontowania
00043f 940e 156e 	CALL SUBOPT_0x28
                 ; 0000 033B     getchar();
000441 940e 1572 	CALL SUBOPT_0x29
                 ; 0000 033C     getchar();
                 ; 0000 033D     getchar();
                 ; 0000 033E     getchar();
000443 940e 1572 	CALL SUBOPT_0x29
                 ; 0000 033F     getchar();
                 ; 0000 0340     getchar();
                 ; 0000 0341     getchar();
000445 940e 12d1 	CALL _getchar
                 ; 0000 0342     oleole = getchar();
000447 940e 12d1 	CALL _getchar
000449 2f4e      	MOV  R20,R30
00044a 2755      	CLR  R21
                 ; 0000 0343     il_pretow_gwintowanych = getchar();
00044b 940e 12d1 	CALL _getchar
00044d e0f0      	LDI  R31,0
00044e 940e 1578 	CALL SUBOPT_0x2A
                 ; 0000 0344 
                 ; 0000 0345     if(oleole > 0)
000450 2400      	CLR  R0
000451 1604      	CP   R0,R20
000452 0605      	CPC  R0,R21
000453 f46c      	BRGE _0x5B
                 ; 0000 0346         il_pretow_gwintowanych = oleole * 255 + il_pretow_gwintowanych + oleole;
000454 01fa      	MOVW R30,R20
000455 efaf      	LDI  R26,LOW(255)
000456 e0b0      	LDI  R27,HIGH(255)
000457 940e 1a7d 	CALL __MULW12
000459 940e 155c 	CALL SUBOPT_0x25
00045b 0fea      	ADD  R30,R26
00045c 1ffb      	ADC  R31,R27
00045d 0fe4      	ADD  R30,R20
00045e 1ff5      	ADC  R31,R21
00045f 940e 1578 	CALL SUBOPT_0x2A
                 ; 0000 0347 
                 ; 0000 0348 
                 ; 0000 0349 
                 ; 0000 034A     il_pretow_gwintowanych_stala = il_pretow_gwintowanych;
                 _0x5B:
000461 940e 157d 	CALL SUBOPT_0x2B
                 ; 0000 034B     }
                 ; 0000 034C 
                 ; 0000 034D 
                 ; 0000 034E if(k == 1)
                 _0x5A:
000463 81ae      	LDD  R26,Y+6
000464 81bf      	LDD  R27,Y+6+1
000465 9711      	SBIW R26,1
000466 f4b9      	BRNE _0x5C
                 ; 0000 034F {
                 ; 0000 0350 putchar(90);
000467 940e 14aa 	CALL SUBOPT_0xD
                 ; 0000 0351 putchar(165);
                 ; 0000 0352 putchar(4);
000469 940e 1586 	CALL SUBOPT_0x2C
                 ; 0000 0353 putchar(131);
                 ; 0000 0354 putchar(32);
                 ; 0000 0355 putchar(48);  //adres zmiennej - 2030
00046b 940e 14be 	CALL SUBOPT_0xF
                 ; 0000 0356 putchar(1);
00046d 940e 14cf 	CALL SUBOPT_0x12
                 ; 0000 0357 getchar();
                 ; 0000 0358 getchar();
                 ; 0000 0359 getchar();
                 ; 0000 035A getchar();
                 ; 0000 035B getchar();
                 ; 0000 035C getchar();
                 ; 0000 035D getchar();
                 ; 0000 035E getchar();
                 ; 0000 035F hh = getchar();
00046f 940e 1541 	CALL SUBOPT_0x20
                 ; 0000 0360 if(hh == 0)
000471 f439      	BRNE _0x5D
                 ; 0000 0361     tryb_male_puchary = 1;
000472 e0e1      	LDI  R30,LOW(1)
000473 e0f0      	LDI  R31,HIGH(1)
000474 93e0 05cd 	STS  _tryb_male_puchary,R30
000476 93f0 05ce 	STS  _tryb_male_puchary+1,R31
                 ; 0000 0362 else
000478 c005      	RJMP _0x5E
                 _0x5D:
                 ; 0000 0363    tryb_male_puchary = 0;
000479 e0e0      	LDI  R30,LOW(0)
00047a 93e0 05cd 	STS  _tryb_male_puchary,R30
00047c 93e0 05ce 	STS  _tryb_male_puchary+1,R30
                 ; 0000 0364 }
                 _0x5E:
                 ; 0000 0365 
                 ; 0000 0366 
                 ; 0000 0367 putchar(90);
                 _0x5C:
00047e 940e 14aa 	CALL SUBOPT_0xD
                 ; 0000 0368 putchar(165);
                 ; 0000 0369 putchar(4);
000480 940e 1586 	CALL SUBOPT_0x2C
                 ; 0000 036A putchar(131);
                 ; 0000 036B putchar(32);
                 ; 0000 036C putchar(64);  //adres zmiennej - 2040
000482 940e 1522 	CALL SUBOPT_0x1B
                 ; 0000 036D putchar(1);
                 ; 0000 036E getchar();
                 ; 0000 036F getchar();
                 ; 0000 0370 getchar();
                 ; 0000 0371 getchar();
                 ; 0000 0372 getchar();
                 ; 0000 0373 getchar();
                 ; 0000 0374 getchar();
                 ; 0000 0375 getchar();
                 ; 0000 0376 predkosc_wiezyczek_male_puchary = getchar();
000484 e0f0      	LDI  R31,0
000485 93e0 05cf 	STS  _predkosc_wiezyczek_male_puchary,R30
000487 93f0 05d0 	STS  _predkosc_wiezyczek_male_puchary+1,R31
                 ; 0000 0377 
                 ; 0000 0378 
                 ; 0000 0379 
                 ; 0000 037A putchar(90);
000489 940e 14aa 	CALL SUBOPT_0xD
                 ; 0000 037B putchar(165);
                 ; 0000 037C putchar(4);
00048b 940e 1586 	CALL SUBOPT_0x2C
                 ; 0000 037D putchar(131);
                 ; 0000 037E putchar(32);
                 ; 0000 037F putchar(80);  //adres zmiennej - 2050
00048d 940e 154a 	CALL SUBOPT_0x22
                 ; 0000 0380 putchar(1);
                 ; 0000 0381 getchar();
                 ; 0000 0382 getchar();
                 ; 0000 0383 getchar();
                 ; 0000 0384 getchar();
                 ; 0000 0385 getchar();
                 ; 0000 0386 getchar();
                 ; 0000 0387 getchar();
                 ; 0000 0388 getchar();
                 ; 0000 0389 wielkosc_kamienia = getchar();
00048f e0f0      	LDI  R31,0
000490 93e0 05d3 	STS  _wielkosc_kamienia,R30
000492 93f0 05d4 	STS  _wielkosc_kamienia+1,R31
                 ; 0000 038A 
                 ; 0000 038B 
                 ; 0000 038C if(tryb_male_puchary == 0)
000494 91e0 05cd 	LDS  R30,_tryb_male_puchary
000496 91f0 05ce 	LDS  R31,_tryb_male_puchary+1
000498 9730      	SBIW R30,0
000499 f419      	BRNE _0x5F
                 ; 0000 038D      wynik_wyboru_male_puchary = 3;
00049a e0e3      	LDI  R30,LOW(3)
00049b e0f0      	LDI  R31,HIGH(3)
00049c c08e      	RJMP _0x2BB
                 ; 0000 038E else
                 _0x5F:
                 ; 0000 038F     {
                 ; 0000 0390     if(predkosc_wiezyczek_male_puchary == 1 & wielkosc_kamienia == 50)
00049d 940e 158f 	CALL SUBOPT_0x2D
00049f e3e2      	LDI  R30,LOW(50)
0004a0 e0f0      	LDI  R31,HIGH(50)
0004a1 940e 1a27 	CALL __EQW12
0004a3 21e0      	AND  R30,R0
0004a4 f021      	BREQ _0x61
                 ; 0000 0391        wynik_wyboru_male_puchary = 17;
0004a5 e1e1      	LDI  R30,LOW(17)
0004a6 e0f0      	LDI  R31,HIGH(17)
0004a7 940e 159d 	CALL SUBOPT_0x2E
                 ; 0000 0392     if(predkosc_wiezyczek_male_puchary == 1 & wielkosc_kamienia == 55)
                 _0x61:
0004a9 940e 158f 	CALL SUBOPT_0x2D
0004ab e3e7      	LDI  R30,LOW(55)
0004ac e0f0      	LDI  R31,HIGH(55)
0004ad 940e 1a27 	CALL __EQW12
0004af 21e0      	AND  R30,R0
0004b0 f021      	BREQ _0x62
                 ; 0000 0393        wynik_wyboru_male_puchary = 18;
0004b1 e1e2      	LDI  R30,LOW(18)
0004b2 e0f0      	LDI  R31,HIGH(18)
0004b3 940e 159d 	CALL SUBOPT_0x2E
                 ; 0000 0394     if(predkosc_wiezyczek_male_puchary == 1 & wielkosc_kamienia == 60)
                 _0x62:
0004b5 940e 158f 	CALL SUBOPT_0x2D
0004b7 e3ec      	LDI  R30,LOW(60)
0004b8 e0f0      	LDI  R31,HIGH(60)
0004b9 940e 1a27 	CALL __EQW12
0004bb 21e0      	AND  R30,R0
0004bc f021      	BREQ _0x63
                 ; 0000 0395        wynik_wyboru_male_puchary = 19;
0004bd e1e3      	LDI  R30,LOW(19)
0004be e0f0      	LDI  R31,HIGH(19)
0004bf 940e 159d 	CALL SUBOPT_0x2E
                 ; 0000 0396     if(predkosc_wiezyczek_male_puchary == 1 & wielkosc_kamienia == 65)
                 _0x63:
0004c1 940e 158f 	CALL SUBOPT_0x2D
0004c3 e4e1      	LDI  R30,LOW(65)
0004c4 e0f0      	LDI  R31,HIGH(65)
0004c5 940e 1a27 	CALL __EQW12
0004c7 21e0      	AND  R30,R0
0004c8 f021      	BREQ _0x64
                 ; 0000 0397        wynik_wyboru_male_puchary = 20;
0004c9 e1e4      	LDI  R30,LOW(20)
0004ca e0f0      	LDI  R31,HIGH(20)
0004cb 940e 159d 	CALL SUBOPT_0x2E
                 ; 0000 0398     if(predkosc_wiezyczek_male_puchary == 1 & wielkosc_kamienia == 70)
                 _0x64:
0004cd 940e 158f 	CALL SUBOPT_0x2D
0004cf e4e6      	LDI  R30,LOW(70)
0004d0 e0f0      	LDI  R31,HIGH(70)
0004d1 940e 1a27 	CALL __EQW12
0004d3 21e0      	AND  R30,R0
0004d4 f021      	BREQ _0x65
                 ; 0000 0399        wynik_wyboru_male_puchary = 21;
0004d5 e1e5      	LDI  R30,LOW(21)
0004d6 e0f0      	LDI  R31,HIGH(21)
0004d7 940e 159d 	CALL SUBOPT_0x2E
                 ; 0000 039A     if(predkosc_wiezyczek_male_puchary == 1 & wielkosc_kamienia == 75)
                 _0x65:
0004d9 940e 158f 	CALL SUBOPT_0x2D
0004db e4eb      	LDI  R30,LOW(75)
0004dc e0f0      	LDI  R31,HIGH(75)
0004dd 940e 1a27 	CALL __EQW12
0004df 21e0      	AND  R30,R0
0004e0 f021      	BREQ _0x66
                 ; 0000 039B        wynik_wyboru_male_puchary = 22;
0004e1 e1e6      	LDI  R30,LOW(22)
0004e2 e0f0      	LDI  R31,HIGH(22)
0004e3 940e 159d 	CALL SUBOPT_0x2E
                 ; 0000 039C 
                 ; 0000 039D 
                 ; 0000 039E     if(predkosc_wiezyczek_male_puchary == 2 & wielkosc_kamienia == 50)
                 _0x66:
0004e5 940e 15a2 	CALL SUBOPT_0x2F
0004e7 e3e2      	LDI  R30,LOW(50)
0004e8 e0f0      	LDI  R31,HIGH(50)
0004e9 940e 1a27 	CALL __EQW12
0004eb 21e0      	AND  R30,R0
0004ec f021      	BREQ _0x67
                 ; 0000 039F           wynik_wyboru_male_puchary = 11;
0004ed e0eb      	LDI  R30,LOW(11)
0004ee e0f0      	LDI  R31,HIGH(11)
0004ef 940e 159d 	CALL SUBOPT_0x2E
                 ; 0000 03A0     if(predkosc_wiezyczek_male_puchary == 2 & wielkosc_kamienia == 55)
                 _0x67:
0004f1 940e 15a2 	CALL SUBOPT_0x2F
0004f3 e3e7      	LDI  R30,LOW(55)
0004f4 e0f0      	LDI  R31,HIGH(55)
0004f5 940e 1a27 	CALL __EQW12
0004f7 21e0      	AND  R30,R0
0004f8 f021      	BREQ _0x68
                 ; 0000 03A1           wynik_wyboru_male_puchary = 12;
0004f9 e0ec      	LDI  R30,LOW(12)
0004fa e0f0      	LDI  R31,HIGH(12)
0004fb 940e 159d 	CALL SUBOPT_0x2E
                 ; 0000 03A2     if(predkosc_wiezyczek_male_puchary == 2 & wielkosc_kamienia == 60)
                 _0x68:
0004fd 940e 15a2 	CALL SUBOPT_0x2F
0004ff e3ec      	LDI  R30,LOW(60)
000500 e0f0      	LDI  R31,HIGH(60)
000501 940e 1a27 	CALL __EQW12
000503 21e0      	AND  R30,R0
000504 f021      	BREQ _0x69
                 ; 0000 03A3           wynik_wyboru_male_puchary = 13;
000505 e0ed      	LDI  R30,LOW(13)
000506 e0f0      	LDI  R31,HIGH(13)
000507 940e 159d 	CALL SUBOPT_0x2E
                 ; 0000 03A4     if(predkosc_wiezyczek_male_puchary == 2 & wielkosc_kamienia == 65)
                 _0x69:
000509 940e 15a2 	CALL SUBOPT_0x2F
00050b e4e1      	LDI  R30,LOW(65)
00050c e0f0      	LDI  R31,HIGH(65)
00050d 940e 1a27 	CALL __EQW12
00050f 21e0      	AND  R30,R0
000510 f021      	BREQ _0x6A
                 ; 0000 03A5           wynik_wyboru_male_puchary = 14;
000511 e0ee      	LDI  R30,LOW(14)
000512 e0f0      	LDI  R31,HIGH(14)
000513 940e 159d 	CALL SUBOPT_0x2E
                 ; 0000 03A6     if(predkosc_wiezyczek_male_puchary == 2 & wielkosc_kamienia == 70)
                 _0x6A:
000515 940e 15a2 	CALL SUBOPT_0x2F
000517 e4e6      	LDI  R30,LOW(70)
000518 e0f0      	LDI  R31,HIGH(70)
000519 940e 1a27 	CALL __EQW12
00051b 21e0      	AND  R30,R0
00051c f021      	BREQ _0x6B
                 ; 0000 03A7           wynik_wyboru_male_puchary = 15;
00051d e0ef      	LDI  R30,LOW(15)
00051e e0f0      	LDI  R31,HIGH(15)
00051f 940e 159d 	CALL SUBOPT_0x2E
                 ; 0000 03A8     if(predkosc_wiezyczek_male_puchary == 2 & wielkosc_kamienia == 75)
                 _0x6B:
000521 940e 15a2 	CALL SUBOPT_0x2F
000523 e4eb      	LDI  R30,LOW(75)
000524 e0f0      	LDI  R31,HIGH(75)
000525 940e 1a27 	CALL __EQW12
000527 21e0      	AND  R30,R0
000528 f031      	BREQ _0x6C
                 ; 0000 03A9           wynik_wyboru_male_puchary = 16;
000529 e1e0      	LDI  R30,LOW(16)
00052a e0f0      	LDI  R31,HIGH(16)
                 _0x2BB:
00052b 93e0 05d1 	STS  _wynik_wyboru_male_puchary,R30
00052d 93f0 05d2 	STS  _wynik_wyboru_male_puchary+1,R31
                 ; 0000 03AA 
                 ; 0000 03AB     }
                 _0x6C:
                 ; 0000 03AC 
                 ; 0000 03AD 
                 ; 0000 03AE 
                 ; 0000 03AF }
00052f 940e 1af5 	CALL __LOADLOCR6
000531 c0aa      	RJMP _0x20A0003
                 ;
                 ;void wartosci_wstepne_panelu()
                 ; 0000 03B2 {
                 _wartosci_wstepne_panelu:
                 ; 0000 03B3 putchar(90);  //5A
000532 940e 14aa 	CALL SUBOPT_0xD
                 ; 0000 03B4 putchar(165); //A5
                 ; 0000 03B5 putchar(5);//05
000534 940e 14b2 	CALL SUBOPT_0xE
                 ; 0000 03B6 putchar(130);  //82    //dlugosc preta gwintowanego
                 ; 0000 03B7 putchar(0);    //00
                 ; 0000 03B8 putchar(64);   //40
000536 940e 15b0 	CALL SUBOPT_0x30
                 ; 0000 03B9 putchar(0);    //00
                 ; 0000 03BA putchar(dlugosc_preta_gwintowanego);   //80
000538 91e0 0534 	LDS  R30,_dlugosc_preta_gwintowanego
00053a 940e 15b5 	CALL SUBOPT_0x31
                 ; 0000 03BB 
                 ; 0000 03BC putchar(90);  //5A
                 ; 0000 03BD putchar(165); //A5
                 ; 0000 03BE putchar(5);//05
00053c 940e 14b2 	CALL SUBOPT_0xE
                 ; 0000 03BF putchar(130);  //82    //czas po jakim wylaczamy silnik
                 ; 0000 03C0 putchar(0);    //00
                 ; 0000 03C1 putchar(80);   //50
00053e 940e 15b9 	CALL SUBOPT_0x32
                 ; 0000 03C2 putchar(0);    //00
                 ; 0000 03C3 putchar(czas_silnika_dokrecajacego_grzybki);
000540 91e0 052e 	LDS  R30,_czas_silnika_dokrecajacego_grzybki
000542 940e 15b5 	CALL SUBOPT_0x31
                 ; 0000 03C4 
                 ; 0000 03C5 putchar(90);  //5A
                 ; 0000 03C6 putchar(165); //A5
                 ; 0000 03C7 putchar(5);//05
000544 940e 14b2 	CALL SUBOPT_0xE
                 ; 0000 03C8 putchar(130);  //82    //zmienie na anulowanie zlecenia
                 ; 0000 03C9 putchar(0);    //00
                 ; 0000 03CA putchar(96);   //60
000546 940e 14e5 	CALL SUBOPT_0x13
                 ; 0000 03CB putchar(0);    //00
000548 940e 14c2 	CALL SUBOPT_0x10
                 ; 0000 03CC putchar(1);   //1
00054a 940e 156e 	CALL SUBOPT_0x28
                 ; 0000 03CD 
                 ; 0000 03CE putchar(90);  //5A
00054c 940e 14aa 	CALL SUBOPT_0xD
                 ; 0000 03CF putchar(165); //A5
                 ; 0000 03D0 putchar(5);//05
00054e 940e 14b2 	CALL SUBOPT_0xE
                 ; 0000 03D1 putchar(130);  //82    //ilosc pucharow do zmontowania
                 ; 0000 03D2 putchar(0);    //00
                 ; 0000 03D3 putchar(112);   //70
000550 940e 156a 	CALL SUBOPT_0x27
                 ; 0000 03D4 putchar(0);    //00
000552 940e 14c2 	CALL SUBOPT_0x10
                 ; 0000 03D5 putchar(5);   //5
000554 e0e5      	LDI  R30,LOW(5)
000555 940e 15b5 	CALL SUBOPT_0x31
                 ; 0000 03D6 
                 ; 0000 03D7 putchar(90);  //5A
                 ; 0000 03D8 putchar(165); //A5
                 ; 0000 03D9 putchar(5);//05                              0-tak
000557 940e 15be 	CALL SUBOPT_0x33
                 ; 0000 03DA putchar(130);  //82    /Czy grzybki metalowe 1-nie
                 ; 0000 03DB putchar(16);    //10
                 ; 0000 03DC putchar(16);   //10
000559 940e 153d 	CALL SUBOPT_0x1F
                 ; 0000 03DD putchar(0);    //00
00055b 940e 14c2 	CALL SUBOPT_0x10
                 ; 0000 03DE putchar(1);   //1
00055d 940e 156e 	CALL SUBOPT_0x28
                 ; 0000 03DF 
                 ; 0000 03E0 putchar(90);  //5A
00055f 940e 14aa 	CALL SUBOPT_0xD
                 ; 0000 03E1 putchar(165); //A5
                 ; 0000 03E2 putchar(5);//05                              0-tak
000561 940e 15be 	CALL SUBOPT_0x33
                 ; 0000 03E3 putchar(130);  //82    /Czy oproznic podajnik grzybkow 1-nie
                 ; 0000 03E4 putchar(16);    //10
                 ; 0000 03E5 putchar(32);   //80
000563 940e 1546 	CALL SUBOPT_0x21
                 ; 0000 03E6 putchar(0);    //00
000565 940e 14c2 	CALL SUBOPT_0x10
                 ; 0000 03E7 putchar(1);   //1
000567 940e 156e 	CALL SUBOPT_0x28
                 ; 0000 03E8 
                 ; 0000 03E9 putchar(90);  //5A
000569 940e 14aa 	CALL SUBOPT_0xD
                 ; 0000 03EA putchar(165); //A5
                 ; 0000 03EB putchar(5);//05                              0-tak
00056b 940e 15be 	CALL SUBOPT_0x33
                 ; 0000 03EC putchar(130);  //82    /Czy tryb kontynuacji 1-nie
                 ; 0000 03ED putchar(16);    //10
                 ; 0000 03EE putchar(128);   //80
00056d e8e0      	LDI  R30,LOW(128)
00056e 93ea      	ST   -Y,R30
00056f 940e 12d5 	CALL _putchar
                 ; 0000 03EF putchar(0);    //00
000571 940e 14c2 	CALL SUBOPT_0x10
                 ; 0000 03F0 putchar(1);   //1
000573 940e 156e 	CALL SUBOPT_0x28
                 ; 0000 03F1 
                 ; 0000 03F2 //tu obrabiam tryb male puchary pod adresem 2030
                 ; 0000 03F3 
                 ; 0000 03F4 putchar(90);
000575 940e 14aa 	CALL SUBOPT_0xD
                 ; 0000 03F5 putchar(165);
                 ; 0000 03F6 putchar(5);
000577 940e 15c7 	CALL SUBOPT_0x34
                 ; 0000 03F7 putchar(130);  //82
                 ; 0000 03F8 putchar(32);    //20
                 ; 0000 03F9 putchar(48);  //adres 30
000579 940e 14be 	CALL SUBOPT_0xF
                 ; 0000 03FA putchar(0);    //00
00057b 940e 14c2 	CALL SUBOPT_0x10
                 ; 0000 03FB putchar(1);   //1          Czy tryb male puchary 1-nie 0-tak
00057d 940e 156e 	CALL SUBOPT_0x28
                 ; 0000 03FC 
                 ; 0000 03FD 
                 ; 0000 03FE //tu obrabiam predkosc wiezyczek male puchary
                 ; 0000 03FF 
                 ; 0000 0400 putchar(90);
00057f 940e 14aa 	CALL SUBOPT_0xD
                 ; 0000 0401 putchar(165);
                 ; 0000 0402 putchar(5);
000581 940e 15c7 	CALL SUBOPT_0x34
                 ; 0000 0403 putchar(130);  //82
                 ; 0000 0404 putchar(32);    //20
                 ; 0000 0405 putchar(64);  //adres 40
000583 940e 15b0 	CALL SUBOPT_0x30
                 ; 0000 0406 putchar(0);    //00
                 ; 0000 0407 putchar(2);   //1          predkosc wiezyczek male puchary 2-maks 1-min
000585 e0e2      	LDI  R30,LOW(2)
000586 940e 15b5 	CALL SUBOPT_0x31
                 ; 0000 0408 
                 ; 0000 0409 //tu obrabiam wielkosc kamienia male puchary
                 ; 0000 040A 
                 ; 0000 040B putchar(90);
                 ; 0000 040C putchar(165);
                 ; 0000 040D putchar(5);
000588 940e 15c7 	CALL SUBOPT_0x34
                 ; 0000 040E putchar(130);  //82
                 ; 0000 040F putchar(32);    //20
                 ; 0000 0410 putchar(80);  //adres 50
00058a 940e 15b9 	CALL SUBOPT_0x32
                 ; 0000 0411 putchar(0);    //00
                 ; 0000 0412 putchar(50);   //   //50 55 60 65 70 75
00058c e3e2      	LDI  R30,LOW(50)
                 _0x20A0004:
00058d 93ea      	ST   -Y,R30
00058e 940e 12d5 	CALL _putchar
                 ; 0000 0413 
                 ; 0000 0414 
                 ; 0000 0415 
                 ; 0000 0416 }
000590 9508      	RET
                 ;
                 ;
                 ;void wyswietl_ilosc_zmontowanych_pucharow(int i,int j)
                 ; 0000 041A {
                 _wyswietl_ilosc_zmontowanych_pucharow:
                 ; 0000 041B int gg,hh;
                 ; 0000 041C 
                 ; 0000 041D if(i>255)
000591 940e 1af0 	CALL __SAVELOCR4
                 ;	i -> Y+6
                 ;	j -> Y+4
                 ;	gg -> R16,R17
                 ;	hh -> R18,R19
000593 940e 15d0 	CALL SUBOPT_0x35
000595 f05c      	BRLT _0x6D
                 ; 0000 041E     {
                 ; 0000 041F     gg = i/255;
000596 940e 15d6 	CALL SUBOPT_0x36
000598 940e 1a9a 	CALL __DIVW21
00059a 018f      	MOVW R16,R30
                 ; 0000 0420     hh = i%255;
00059b 940e 15d6 	CALL SUBOPT_0x36
00059d 940e 1a9f 	CALL __MODW21
00059f 019f      	MOVW R18,R30
                 ; 0000 0421     }
                 ; 0000 0422 else
0005a0 c002      	RJMP _0x6E
                 _0x6D:
                 ; 0000 0423     {
                 ; 0000 0424     gg = 0;
0005a1 940e 15db 	CALL SUBOPT_0x37
                 ; 0000 0425     hh = 0;
                 ; 0000 0426     }
                 _0x6E:
                 ; 0000 0427 
                 ; 0000 0428 putchar(90);  //5A
0005a3 940e 14aa 	CALL SUBOPT_0xD
                 ; 0000 0429 putchar(165); //A5
                 ; 0000 042A putchar(5);//05
0005a5 940e 14b2 	CALL SUBOPT_0xE
                 ; 0000 042B putchar(130);  //82
                 ; 0000 042C putchar(0);    //00
                 ; 0000 042D putchar(128);   //80
0005a7 e8e0      	LDI  R30,LOW(128)
0005a8 940e 15e0 	CALL SUBOPT_0x38
                 ; 0000 042E putchar(gg);    //00
                 ; 0000 042F if(i>255)
0005aa 940e 15d0 	CALL SUBOPT_0x35
0005ac f01c      	BRLT _0x6F
                 ; 0000 0430     putchar(gg*255+hh);   //7
0005ad 940e 15e6 	CALL SUBOPT_0x39
0005af c006      	RJMP _0x2BC
                 ; 0000 0431 else
                 _0x6F:
                 ; 0000 0432     if(i>=0)
0005b0 81af      	LDD  R26,Y+7
0005b1 23aa      	TST  R26
0005b2 f012      	BRMI _0x71
                 ; 0000 0433         putchar(i);
0005b3 81ee      	LDD  R30,Y+6
0005b4 c001      	RJMP _0x2BC
                 ; 0000 0434     else
                 _0x71:
                 ; 0000 0435         putchar(0);
0005b5 e0e0      	LDI  R30,LOW(0)
                 _0x2BC:
0005b6 93ea      	ST   -Y,R30
0005b7 940e 12d5 	CALL _putchar
                 ; 0000 0436 
                 ; 0000 0437 
                 ; 0000 0438 if(j>255)
0005b9 940e 15eb 	CALL SUBOPT_0x3A
0005bb f05c      	BRLT _0x73
                 ; 0000 0439     {
                 ; 0000 043A     gg = j/255;
0005bc 940e 15f1 	CALL SUBOPT_0x3B
0005be 940e 1a9a 	CALL __DIVW21
0005c0 018f      	MOVW R16,R30
                 ; 0000 043B     hh = j%255;
0005c1 940e 15f1 	CALL SUBOPT_0x3B
0005c3 940e 1a9f 	CALL __MODW21
0005c5 019f      	MOVW R18,R30
                 ; 0000 043C     }
                 ; 0000 043D else
0005c6 c002      	RJMP _0x74
                 _0x73:
                 ; 0000 043E     {
                 ; 0000 043F     gg = 0;
0005c7 940e 15db 	CALL SUBOPT_0x37
                 ; 0000 0440     hh = 0;
                 ; 0000 0441     }
                 _0x74:
                 ; 0000 0442 
                 ; 0000 0443 putchar(90);  //5A
0005c9 940e 14aa 	CALL SUBOPT_0xD
                 ; 0000 0444 putchar(165); //A5
                 ; 0000 0445 putchar(5);//05
0005cb 940e 15be 	CALL SUBOPT_0x33
                 ; 0000 0446 putchar(130);  //82
                 ; 0000 0447 putchar(16);    //10
                 ; 0000 0448 putchar(64);   //40
0005cd e4e0      	LDI  R30,LOW(64)
0005ce 940e 15e0 	CALL SUBOPT_0x38
                 ; 0000 0449 putchar(gg);    //00
                 ; 0000 044A if(j>255)
0005d0 940e 15eb 	CALL SUBOPT_0x3A
0005d2 f01c      	BRLT _0x75
                 ; 0000 044B     putchar(gg*255+hh);
0005d3 940e 15e6 	CALL SUBOPT_0x39
0005d5 c001      	RJMP _0x2BD
                 ; 0000 044C else
                 _0x75:
                 ; 0000 044D     putchar(j);   //7  //j na razie bo mam problem z 255
0005d6 81ec      	LDD  R30,Y+4
                 _0x2BD:
0005d7 93ea      	ST   -Y,R30
0005d8 940e 12d5 	CALL _putchar
                 ; 0000 044E }
0005da 940e 1af7 	CALL __LOADLOCR4
                 _0x20A0003:
0005dc 9628      	ADIW R28,8
0005dd 9508      	RET
                 ;
                 ;void wyswietl_czas_procesu()
                 ; 0000 0451 {
                 _wyswietl_czas_procesu:
                 ; 0000 0452 putchar(90);
0005de 940e 14aa 	CALL SUBOPT_0xD
                 ; 0000 0453 putchar(165);
                 ; 0000 0454 putchar(11);       //ilosc liter 8+3
0005e0 940e 15f6 	CALL SUBOPT_0x3C
                 ; 0000 0455 putchar(130);  //82
                 ; 0000 0456 putchar(32);    //20
                 ; 0000 0457 putchar(16);  //adres 10
0005e2 940e 153d 	CALL SUBOPT_0x1F
                 ; 0000 0458 
                 ; 0000 0459 if(sek_clock < 10)
0005e4 940e 1476 	CALL SUBOPT_0x5
0005e6 971a      	SBIW R26,10
0005e7 f41c      	BRGE _0x77
                 ; 0000 045A     printf("0%d",sek_clock);
                +
0005e8 e7ec     +LDI R30 , LOW ( 2 * _0x0 + ( 734 ) )
0005e9 e0f3     +LDI R31 , HIGH ( 2 * _0x0 + ( 734 ) )
                 	__POINTW1FN _0x0,734
0005ea c002      	RJMP _0x2BE
                 ; 0000 045B else
                 _0x77:
                 ; 0000 045C     printf("%d",sek_clock);
                +
0005eb e7ed     +LDI R30 , LOW ( 2 * _0x0 + ( 735 ) )
0005ec e0f3     +LDI R31 , HIGH ( 2 * _0x0 + ( 735 ) )
                 	__POINTW1FN _0x0,735
                 _0x2BE:
0005ed 93fa      	ST   -Y,R31
0005ee 93ea      	ST   -Y,R30
0005ef 940e 15ff 	CALL SUBOPT_0x3D
                 ; 0000 045D printf(":");
0005f1 940e 160c 	CALL SUBOPT_0x3E
                 ; 0000 045E 
                 ; 0000 045F if(min_clock < 10)
0005f3 940e 147b 	CALL SUBOPT_0x6
0005f5 971a      	SBIW R26,10
0005f6 f41c      	BRGE _0x79
                 ; 0000 0460     printf("0%d",min_clock);
                +
0005f7 e7ec     +LDI R30 , LOW ( 2 * _0x0 + ( 734 ) )
0005f8 e0f3     +LDI R31 , HIGH ( 2 * _0x0 + ( 734 ) )
                 	__POINTW1FN _0x0,734
0005f9 c002      	RJMP _0x2BF
                 ; 0000 0461 else
                 _0x79:
                 ; 0000 0462     printf("%d",min_clock);
                +
0005fa e7ed     +LDI R30 , LOW ( 2 * _0x0 + ( 735 ) )
0005fb e0f3     +LDI R31 , HIGH ( 2 * _0x0 + ( 735 ) )
                 	__POINTW1FN _0x0,735
                 _0x2BF:
0005fc 93fa      	ST   -Y,R31
0005fd 93ea      	ST   -Y,R30
0005fe 940e 160f 	CALL SUBOPT_0x3F
                 ; 0000 0463 printf(":");
000600 940e 160c 	CALL SUBOPT_0x3E
                 ; 0000 0464 
                 ; 0000 0465 if(godz_clock < 10)
000602 91a0 05c5 	LDS  R26,_godz_clock
000604 91b0 05c6 	LDS  R27,_godz_clock+1
000606 971a      	SBIW R26,10
000607 f41c      	BRGE _0x7B
                 ; 0000 0466     printf("0%d",godz_clock);
                +
000608 e7ec     +LDI R30 , LOW ( 2 * _0x0 + ( 734 ) )
000609 e0f3     +LDI R31 , HIGH ( 2 * _0x0 + ( 734 ) )
                 	__POINTW1FN _0x0,734
00060a c002      	RJMP _0x2C0
                 ; 0000 0467 else
                 _0x7B:
                 ; 0000 0468     printf("%d",godz_clock);
                +
00060b e7ed     +LDI R30 , LOW ( 2 * _0x0 + ( 735 ) )
00060c e0f3     +LDI R31 , HIGH ( 2 * _0x0 + ( 735 ) )
                 	__POINTW1FN _0x0,735
                 _0x2C0:
00060d 93fa      	ST   -Y,R31
00060e 93ea      	ST   -Y,R30
00060f 940e 161c 	CALL SUBOPT_0x40
                 ; 0000 0469 }
000611 9508      	RET
                 ;
                 ;
                 ;void wyswietl_czas_przezbrojenia()
                 ; 0000 046D {
                 _wyswietl_czas_przezbrojenia:
                 ; 0000 046E putchar(90);
000612 940e 14aa 	CALL SUBOPT_0xD
                 ; 0000 046F putchar(165);
                 ; 0000 0470 putchar(11);       //ilosc liter 8+3
000614 940e 15f6 	CALL SUBOPT_0x3C
                 ; 0000 0471 putchar(130);  //82
                 ; 0000 0472 putchar(32);    //20
                 ; 0000 0473 putchar(00);  //adres 10
000616 940e 14c2 	CALL SUBOPT_0x10
                 ; 0000 0474 
                 ; 0000 0475 if(sek_clock < 10)
000618 940e 1476 	CALL SUBOPT_0x5
00061a 971a      	SBIW R26,10
00061b f41c      	BRGE _0x7D
                 ; 0000 0476     printf("0%d",sek_clock);
                +
00061c e7ec     +LDI R30 , LOW ( 2 * _0x0 + ( 734 ) )
00061d e0f3     +LDI R31 , HIGH ( 2 * _0x0 + ( 734 ) )
                 	__POINTW1FN _0x0,734
00061e c002      	RJMP _0x2C1
                 ; 0000 0477 else
                 _0x7D:
                 ; 0000 0478     printf("%d",sek_clock);
                +
00061f e7ed     +LDI R30 , LOW ( 2 * _0x0 + ( 735 ) )
000620 e0f3     +LDI R31 , HIGH ( 2 * _0x0 + ( 735 ) )
                 	__POINTW1FN _0x0,735
                 _0x2C1:
000621 93fa      	ST   -Y,R31
000622 93ea      	ST   -Y,R30
000623 940e 15ff 	CALL SUBOPT_0x3D
                 ; 0000 0479 printf(":");
000625 940e 160c 	CALL SUBOPT_0x3E
                 ; 0000 047A 
                 ; 0000 047B if(min_clock < 10)
000627 940e 147b 	CALL SUBOPT_0x6
000629 971a      	SBIW R26,10
00062a f41c      	BRGE _0x7F
                 ; 0000 047C     printf("0%d",min_clock);
                +
00062b e7ec     +LDI R30 , LOW ( 2 * _0x0 + ( 734 ) )
00062c e0f3     +LDI R31 , HIGH ( 2 * _0x0 + ( 734 ) )
                 	__POINTW1FN _0x0,734
00062d c002      	RJMP _0x2C2
                 ; 0000 047D else
                 _0x7F:
                 ; 0000 047E     printf("%d",min_clock);
                +
00062e e7ed     +LDI R30 , LOW ( 2 * _0x0 + ( 735 ) )
00062f e0f3     +LDI R31 , HIGH ( 2 * _0x0 + ( 735 ) )
                 	__POINTW1FN _0x0,735
                 _0x2C2:
000630 93fa      	ST   -Y,R31
000631 93ea      	ST   -Y,R30
000632 940e 160f 	CALL SUBOPT_0x3F
                 ; 0000 047F printf(":");
000634 940e 160c 	CALL SUBOPT_0x3E
                 ; 0000 0480 
                 ; 0000 0481 if(godz_clock < 10)
000636 91a0 05c5 	LDS  R26,_godz_clock
000638 91b0 05c6 	LDS  R27,_godz_clock+1
00063a 971a      	SBIW R26,10
00063b f41c      	BRGE _0x81
                 ; 0000 0482     printf("0%d",godz_clock);
                +
00063c e7ec     +LDI R30 , LOW ( 2 * _0x0 + ( 734 ) )
00063d e0f3     +LDI R31 , HIGH ( 2 * _0x0 + ( 734 ) )
                 	__POINTW1FN _0x0,734
00063e c002      	RJMP _0x2C3
                 ; 0000 0483 else
                 _0x81:
                 ; 0000 0484     printf("%d",godz_clock);
                +
00063f e7ed     +LDI R30 , LOW ( 2 * _0x0 + ( 735 ) )
000640 e0f3     +LDI R31 , HIGH ( 2 * _0x0 + ( 735 ) )
                 	__POINTW1FN _0x0,735
                 _0x2C3:
000641 93fa      	ST   -Y,R31
000642 93ea      	ST   -Y,R30
000643 940e 161c 	CALL SUBOPT_0x40
                 ; 0000 0485 
                 ; 0000 0486 }
000645 9508      	RET
                 ;
                 ;void wyswietl_czas_laczny_przezbrajan()
                 ; 0000 0489 {
                 _wyswietl_czas_laczny_przezbrajan:
                 ; 0000 048A putchar(90);
000646 940e 14aa 	CALL SUBOPT_0xD
                 ; 0000 048B putchar(165);
                 ; 0000 048C putchar(11);       //ilosc liter 8+3
000648 e0eb      	LDI  R30,LOW(11)
000649 93ea      	ST   -Y,R30
00064a 940e 12d5 	CALL _putchar
                 ; 0000 048D putchar(130);  //82
00064c e8e2      	LDI  R30,LOW(130)
00064d 93ea      	ST   -Y,R30
00064e 940e 12d5 	CALL _putchar
                 ; 0000 048E putchar(16);    //10
000650 940e 153d 	CALL SUBOPT_0x1F
                 ; 0000 048F putchar(144);  //adres 90
000652 940e 1506 	CALL SUBOPT_0x17
                 ; 0000 0490 
                 ; 0000 0491 przez_sek_clock = przez_sek_clock + sek_clock;
000654 91e0 05c1 	LDS  R30,_sek_clock
000656 91f0 05c2 	LDS  R31,_sek_clock+1
000658 940e 1629 	CALL SUBOPT_0x41
00065a 0fea      	ADD  R30,R26
00065b 1ffb      	ADC  R31,R27
00065c 93e0 05c7 	STS  _przez_sek_clock,R30
00065e 93f0 05c8 	STS  _przez_sek_clock+1,R31
                 ; 0000 0492 if(przez_sek_clock > 60)
000660 940e 1629 	CALL SUBOPT_0x41
000662 97dd      	SBIW R26,61
000663 f06c      	BRLT _0x83
                 ; 0000 0493     {
                 ; 0000 0494     przez_sek_clock = przez_sek_clock - 60;
000664 91e0 05c7 	LDS  R30,_przez_sek_clock
000666 91f0 05c8 	LDS  R31,_przez_sek_clock+1
000668 97fc      	SBIW R30,60
000669 93e0 05c7 	STS  _przez_sek_clock,R30
00066b 93f0 05c8 	STS  _przez_sek_clock+1,R31
                 ; 0000 0495     przez_min_clock++;
00066d eca9      	LDI  R26,LOW(_przez_min_clock)
00066e e0b5      	LDI  R27,HIGH(_przez_min_clock)
00066f 940e 1470 	CALL SUBOPT_0x4
                 ; 0000 0496     }
                 ; 0000 0497 
                 ; 0000 0498 przez_min_clock = przez_min_clock + min_clock;
                 _0x83:
000671 91e0 05c3 	LDS  R30,_min_clock
000673 91f0 05c4 	LDS  R31,_min_clock+1
000675 940e 162e 	CALL SUBOPT_0x42
000677 0fea      	ADD  R30,R26
000678 1ffb      	ADC  R31,R27
000679 93e0 05c9 	STS  _przez_min_clock,R30
00067b 93f0 05ca 	STS  _przez_min_clock+1,R31
                 ; 0000 0499 if(przez_min_clock > 60)
00067d 940e 162e 	CALL SUBOPT_0x42
00067f 97dd      	SBIW R26,61
000680 f06c      	BRLT _0x84
                 ; 0000 049A     {
                 ; 0000 049B     przez_min_clock = przez_min_clock - 60;
000681 91e0 05c9 	LDS  R30,_przez_min_clock
000683 91f0 05ca 	LDS  R31,_przez_min_clock+1
000685 97fc      	SBIW R30,60
000686 93e0 05c9 	STS  _przez_min_clock,R30
000688 93f0 05ca 	STS  _przez_min_clock+1,R31
                 ; 0000 049C     przez_godz_clock++;
00068a ecab      	LDI  R26,LOW(_przez_godz_clock)
00068b e0b5      	LDI  R27,HIGH(_przez_godz_clock)
00068c 940e 1470 	CALL SUBOPT_0x4
                 ; 0000 049D     }
                 ; 0000 049E 
                 ; 0000 049F przez_godz_clock = przez_godz_clock + godz_clock;
                 _0x84:
00068e 91e0 05c5 	LDS  R30,_godz_clock
000690 91f0 05c6 	LDS  R31,_godz_clock+1
000692 940e 1633 	CALL SUBOPT_0x43
000694 0fea      	ADD  R30,R26
000695 1ffb      	ADC  R31,R27
000696 93e0 05cb 	STS  _przez_godz_clock,R30
000698 93f0 05cc 	STS  _przez_godz_clock+1,R31
                 ; 0000 04A0 if(przez_godz_clock > 60)
00069a 940e 1633 	CALL SUBOPT_0x43
00069c 97dd      	SBIW R26,61
00069d f074      	BRLT _0x85
                 ; 0000 04A1     {
                 ; 0000 04A2     przez_godz_clock = przez_godz_clock - 60;
00069e 91e0 05cb 	LDS  R30,_przez_godz_clock
0006a0 91f0 05cc 	LDS  R31,_przez_godz_clock+1
0006a2 97fc      	SBIW R30,60
0006a3 93e0 05cb 	STS  _przez_godz_clock,R30
0006a5 93f0 05cc 	STS  _przez_godz_clock+1,R31
                 ; 0000 04A3     przez_godz_clock = 0;
0006a7 e0e0      	LDI  R30,LOW(0)
0006a8 93e0 05cb 	STS  _przez_godz_clock,R30
0006aa 93e0 05cc 	STS  _przez_godz_clock+1,R30
                 ; 0000 04A4     }
                 ; 0000 04A5 
                 ; 0000 04A6 
                 ; 0000 04A7 
                 ; 0000 04A8 if(przez_sek_clock < 10)
                 _0x85:
0006ac 940e 1629 	CALL SUBOPT_0x41
0006ae 971a      	SBIW R26,10
0006af f41c      	BRGE _0x86
                 ; 0000 04A9     printf("0%d",przez_sek_clock);
                +
0006b0 e7ec     +LDI R30 , LOW ( 2 * _0x0 + ( 734 ) )
0006b1 e0f3     +LDI R31 , HIGH ( 2 * _0x0 + ( 734 ) )
                 	__POINTW1FN _0x0,734
0006b2 c002      	RJMP _0x2C4
                 ; 0000 04AA else
                 _0x86:
                 ; 0000 04AB     printf("%d",przez_sek_clock);
                +
0006b3 e7ed     +LDI R30 , LOW ( 2 * _0x0 + ( 735 ) )
0006b4 e0f3     +LDI R31 , HIGH ( 2 * _0x0 + ( 735 ) )
                 	__POINTW1FN _0x0,735
                 _0x2C4:
0006b5 93fa      	ST   -Y,R31
0006b6 93ea      	ST   -Y,R30
0006b7 91e0 05c7 	LDS  R30,_przez_sek_clock
0006b9 91f0 05c8 	LDS  R31,_przez_sek_clock+1
0006bb 940e 1638 	CALL SUBOPT_0x44
                 ; 0000 04AC printf(":");
0006bd 940e 160c 	CALL SUBOPT_0x3E
                 ; 0000 04AD 
                 ; 0000 04AE if(przez_min_clock < 10)
0006bf 940e 162e 	CALL SUBOPT_0x42
0006c1 971a      	SBIW R26,10
0006c2 f41c      	BRGE _0x88
                 ; 0000 04AF     printf("0%d",przez_min_clock);
                +
0006c3 e7ec     +LDI R30 , LOW ( 2 * _0x0 + ( 734 ) )
0006c4 e0f3     +LDI R31 , HIGH ( 2 * _0x0 + ( 734 ) )
                 	__POINTW1FN _0x0,734
0006c5 c002      	RJMP _0x2C5
                 ; 0000 04B0 else
                 _0x88:
                 ; 0000 04B1     printf("%d",przez_min_clock);
                +
0006c6 e7ed     +LDI R30 , LOW ( 2 * _0x0 + ( 735 ) )
0006c7 e0f3     +LDI R31 , HIGH ( 2 * _0x0 + ( 735 ) )
                 	__POINTW1FN _0x0,735
                 _0x2C5:
0006c8 93fa      	ST   -Y,R31
0006c9 93ea      	ST   -Y,R30
0006ca 91e0 05c9 	LDS  R30,_przez_min_clock
0006cc 91f0 05ca 	LDS  R31,_przez_min_clock+1
0006ce 940e 1638 	CALL SUBOPT_0x44
                 ; 0000 04B2 printf(":");
0006d0 940e 160c 	CALL SUBOPT_0x3E
                 ; 0000 04B3 
                 ; 0000 04B4 if(przez_godz_clock < 10)
0006d2 940e 1633 	CALL SUBOPT_0x43
0006d4 971a      	SBIW R26,10
0006d5 f41c      	BRGE _0x8A
                 ; 0000 04B5     printf("0%d",przez_godz_clock);
                +
0006d6 e7ec     +LDI R30 , LOW ( 2 * _0x0 + ( 734 ) )
0006d7 e0f3     +LDI R31 , HIGH ( 2 * _0x0 + ( 734 ) )
                 	__POINTW1FN _0x0,734
0006d8 c002      	RJMP _0x2C6
                 ; 0000 04B6 else
                 _0x8A:
                 ; 0000 04B7     printf("%d",przez_godz_clock);
                +
0006d9 e7ed     +LDI R30 , LOW ( 2 * _0x0 + ( 735 ) )
0006da e0f3     +LDI R31 , HIGH ( 2 * _0x0 + ( 735 ) )
                 	__POINTW1FN _0x0,735
                 _0x2C6:
0006db 93fa      	ST   -Y,R31
0006dc 93ea      	ST   -Y,R30
0006dd 91e0 05cb 	LDS  R30,_przez_godz_clock
0006df 91f0 05cc 	LDS  R31,_przez_godz_clock+1
0006e1 940e 1638 	CALL SUBOPT_0x44
                 ; 0000 04B8 }
0006e3 9508      	RET
                 ;
                 ;void wyswietl_parametry(int i,int j,int k,int l, int m, int n)
                 ; 0000 04BB {
                 _wyswietl_parametry:
                 ; 0000 04BC int gg,hh;
                 ; 0000 04BD 
                 ; 0000 04BE putchar(90);  //5A
0006e4 940e 1af0 	CALL __SAVELOCR4
                 ;	i -> Y+14
                 ;	j -> Y+12
                 ;	k -> Y+10
                 ;	l -> Y+8
                 ;	m -> Y+6
                 ;	n -> Y+4
                 ;	gg -> R16,R17
                 ;	hh -> R18,R19
0006e6 940e 14aa 	CALL SUBOPT_0xD
                 ; 0000 04BF putchar(165); //A5
                 ; 0000 04C0 putchar(5);//05
0006e8 940e 14b2 	CALL SUBOPT_0xE
                 ; 0000 04C1 putchar(130);  //82
                 ; 0000 04C2 putchar(0);    //00
                 ; 0000 04C3 putchar(16);   //10
0006ea 940e 153d 	CALL SUBOPT_0x1F
                 ; 0000 04C4 putchar(0);    //00
0006ec 940e 14c2 	CALL SUBOPT_0x10
                 ; 0000 04C5 //if(i>=0)
                 ; 0000 04C6     putchar(i);   //
0006ee 85ee      	LDD  R30,Y+14
0006ef 940e 15b5 	CALL SUBOPT_0x31
                 ; 0000 04C7 //else
                 ; 0000 04C8 //    putchar(i);
                 ; 0000 04C9 
                 ; 0000 04CA putchar(90);  //5A
                 ; 0000 04CB putchar(165); //A5
                 ; 0000 04CC putchar(5);//05
0006f1 940e 14b2 	CALL SUBOPT_0xE
                 ; 0000 04CD putchar(130);  //82
                 ; 0000 04CE putchar(0);    //00
                 ; 0000 04CF putchar(32);   //20
0006f3 940e 1546 	CALL SUBOPT_0x21
                 ; 0000 04D0 putchar(0);    //00
0006f5 940e 14c2 	CALL SUBOPT_0x10
                 ; 0000 04D1 //if(j>=0)
                 ; 0000 04D2     putchar(j);   //
0006f7 85ec      	LDD  R30,Y+12
0006f8 940e 15b5 	CALL SUBOPT_0x31
                 ; 0000 04D3 //else
                 ; 0000 04D4 //    putchar(0);
                 ; 0000 04D5 
                 ; 0000 04D6 putchar(90);  //5A
                 ; 0000 04D7 putchar(165); //A5
                 ; 0000 04D8 putchar(5);//05
0006fa 940e 15be 	CALL SUBOPT_0x33
                 ; 0000 04D9 putchar(130);  //82
                 ; 0000 04DA putchar(16);    //10
                 ; 0000 04DB putchar(48);   //30
0006fc 940e 14be 	CALL SUBOPT_0xF
                 ; 0000 04DC putchar(0);    //00
0006fe 940e 14c2 	CALL SUBOPT_0x10
                 ; 0000 04DD putchar(k);   //7
000700 85ea      	LDD  R30,Y+10
000701 940e 15b5 	CALL SUBOPT_0x31
                 ; 0000 04DE 
                 ; 0000 04DF putchar(90);  //5A
                 ; 0000 04E0 putchar(165); //A5
                 ; 0000 04E1 putchar(5);//05
000703 940e 15be 	CALL SUBOPT_0x33
                 ; 0000 04E2 putchar(130);  //82
                 ; 0000 04E3 putchar(16);    //10   //ilosc niewlozonych pretow z grzybkami do wiezy, czyli raczej krzywa wieza
                 ; 0000 04E4 putchar(80);   //50
000705 940e 15b9 	CALL SUBOPT_0x32
                 ; 0000 04E5 putchar(0);    //00
                 ; 0000 04E6 putchar(l);   //7
000707 85e8      	LDD  R30,Y+8
000708 93ea      	ST   -Y,R30
000709 940e 12d5 	CALL _putchar
                 ; 0000 04E7 
                 ; 0000 04E8 
                 ; 0000 04E9 
                 ; 0000 04EA if(m>255)
00070b 940e 15d0 	CALL SUBOPT_0x35
00070d f05c      	BRLT _0x8C
                 ; 0000 04EB     {
                 ; 0000 04EC     gg = m/255;
00070e 940e 15d6 	CALL SUBOPT_0x36
000710 940e 1a9a 	CALL __DIVW21
000712 018f      	MOVW R16,R30
                 ; 0000 04ED     hh = m%255;
000713 940e 15d6 	CALL SUBOPT_0x36
000715 940e 1a9f 	CALL __MODW21
000717 019f      	MOVW R18,R30
                 ; 0000 04EE     }
                 ; 0000 04EF else
000718 c002      	RJMP _0x8D
                 _0x8C:
                 ; 0000 04F0     {
                 ; 0000 04F1     gg = 0;
000719 940e 15db 	CALL SUBOPT_0x37
                 ; 0000 04F2     hh = 0;
                 ; 0000 04F3     }
                 _0x8D:
                 ; 0000 04F4 
                 ; 0000 04F5 
                 ; 0000 04F6 putchar(90);  //5A
00071b 940e 14aa 	CALL SUBOPT_0xD
                 ; 0000 04F7 putchar(165); //A5
                 ; 0000 04F8 putchar(5);//05
00071d 940e 15be 	CALL SUBOPT_0x33
                 ; 0000 04F9 putchar(130);  //82
                 ; 0000 04FA putchar(16);    //10   //liczba spozniem monter 1 i 2
                 ; 0000 04FB putchar(96);   //60
00071f 940e 14e5 	CALL SUBOPT_0x13
                 ; 0000 04FC putchar(gg);    //00
000721 930a      	ST   -Y,R16
000722 940e 12d5 	CALL _putchar
                 ; 0000 04FD if(m>255)
000724 940e 15d0 	CALL SUBOPT_0x35
000726 f01c      	BRLT _0x8E
                 ; 0000 04FE     putchar(gg*255+hh);   //7
000727 940e 15e6 	CALL SUBOPT_0x39
000729 c006      	RJMP _0x2C7
                 ; 0000 04FF else
                 _0x8E:
                 ; 0000 0500     if(m>=0)
00072a 81af      	LDD  R26,Y+7
00072b 23aa      	TST  R26
00072c f012      	BRMI _0x90
                 ; 0000 0501         putchar(m);
00072d 81ee      	LDD  R30,Y+6
00072e c001      	RJMP _0x2C7
                 ; 0000 0502     else
                 _0x90:
                 ; 0000 0503         putchar(0);
00072f e0e0      	LDI  R30,LOW(0)
                 _0x2C7:
000730 93ea      	ST   -Y,R30
000731 940e 12d5 	CALL _putchar
                 ; 0000 0504 
                 ; 0000 0505 
                 ; 0000 0506 if(n>255)
000733 940e 15eb 	CALL SUBOPT_0x3A
000735 f05c      	BRLT _0x92
                 ; 0000 0507     {
                 ; 0000 0508     gg = n/255;
000736 940e 15f1 	CALL SUBOPT_0x3B
000738 940e 1a9a 	CALL __DIVW21
00073a 018f      	MOVW R16,R30
                 ; 0000 0509     hh = n%255;
00073b 940e 15f1 	CALL SUBOPT_0x3B
00073d 940e 1a9f 	CALL __MODW21
00073f 019f      	MOVW R18,R30
                 ; 0000 050A     }
                 ; 0000 050B else
000740 c002      	RJMP _0x93
                 _0x92:
                 ; 0000 050C     {
                 ; 0000 050D     gg = 0;
000741 940e 15db 	CALL SUBOPT_0x37
                 ; 0000 050E     hh = 0;
                 ; 0000 050F     }
                 _0x93:
                 ; 0000 0510 
                 ; 0000 0511 putchar(90);  //5A
000743 940e 14aa 	CALL SUBOPT_0xD
                 ; 0000 0512 putchar(165); //A5
                 ; 0000 0513 putchar(5);//05
000745 940e 15be 	CALL SUBOPT_0x33
                 ; 0000 0514 putchar(130);  //82
                 ; 0000 0515 putchar(16);    //10   //liczba spoznien monter 3
                 ; 0000 0516 putchar(112);   //70
000747 940e 156a 	CALL SUBOPT_0x27
                 ; 0000 0517 putchar(gg);    //00
000749 930a      	ST   -Y,R16
00074a 940e 12d5 	CALL _putchar
                 ; 0000 0518 
                 ; 0000 0519 if(n>255)
00074c 940e 15eb 	CALL SUBOPT_0x3A
00074e f01c      	BRLT _0x94
                 ; 0000 051A     putchar(gg*255+hh);   //7
00074f 940e 15e6 	CALL SUBOPT_0x39
000751 c006      	RJMP _0x2C8
                 ; 0000 051B else
                 _0x94:
                 ; 0000 051C     if(n>=0)
000752 81ad      	LDD  R26,Y+5
000753 23aa      	TST  R26
000754 f012      	BRMI _0x96
                 ; 0000 051D         putchar(n);
000755 81ec      	LDD  R30,Y+4
000756 c001      	RJMP _0x2C8
                 ; 0000 051E     else
                 _0x96:
                 ; 0000 051F         putchar(0);
000757 e0e0      	LDI  R30,LOW(0)
                 _0x2C8:
000758 93ea      	ST   -Y,R30
000759 940e 12d5 	CALL _putchar
                 ; 0000 0520 
                 ; 0000 0521 }
00075b 940e 1af7 	CALL __LOADLOCR4
00075d c239      	RJMP _0x20A0002
                 ;
                 ;
                 ;
                 ;void obsluga_startowa_dozownika_kleju()
                 ; 0000 0526 {
                 _obsluga_startowa_dozownika_kleju:
                 ; 0000 0527 PORTD.5 = 1;  //zasilanie 220V na dozownik kleju
00075e 9a95      	SBI  0x12,5
                 ; 0000 0528 //PORTC.0 = 1;  //cisnienie na dozownik kleju
                 ; 0000 0529 
                 ; 0000 052A /*
                 ; 0000 052B while(PINA.6 == 1)
                 ; 0000 052C   {
                 ; 0000 052D   komunikat_8_na_panel(0); //dozownik kleju nie gotowy
                 ; 0000 052E   delay_ms(1000);
                 ; 0000 052F   }
                 ; 0000 0530 */
                 ; 0000 0531 }
00075f 9508      	RET
                 ;
                 ;void obsluga_startowa_dozownika_kleju_slave()
                 ; 0000 0534 {
                 ; 0000 0535 int spr;
                 ; 0000 0536 spr = 0;
                 ;	spr -> R16,R17
                 ; 0000 0537 
                 ; 0000 0538 PORTE.7 = 1;
                 ; 0000 0539 delay_ms(100);
                 ; 0000 053A spr = getchar1();
                 ; 0000 053B if(spr == 0)   //jak na poczatku podal 0 to jeszcze raz getchar
                 ; 0000 053C     {
                 ; 0000 053D     komunikat_8_na_panel(1);
                 ; 0000 053E     getchar1();  //tu utyka i czeka az ok z dozownikiem            //wtedy ten getchar puszcza
                 ; 0000 053F     }
                 ; 0000 0540 PORTE.7 = 0;  //koniec komunikacji
                 ; 0000 0541 
                 ; 0000 0542 }
                 ;
                 ;int pusc_pierwszego_preta()
                 ; 0000 0545 {
                 ; 0000 0546 int wynik;
                 ; 0000 0547 wynik = 0;
                 ;	wynik -> R16,R17
                 ; 0000 0548 
                 ; 0000 0549 //PORTC.5   si³ownik 3 kolejkuj¹cy na rynnie
                 ; 0000 054A //PORTC.6   si³ownik 2 kolejkuj¹cy na rynnie  //na pewno podupcona kolejnoæ
                 ; 0000 054B //PORTC.7   si³ownik 1 kolejkuj¹cy na rynnie
                 ; 0000 054C 
                 ; 0000 054D switch(proces[0])
                 ; 0000 054E     {
                 ; 0000 054F     case 0:
                 ; 0000 0550         proces[0] = 1;
                 ; 0000 0551     break;
                 ; 0000 0552 
                 ; 0000 0553     case 1:
                 ; 0000 0554 
                 ; 0000 0555         sek0_7s = 0;
                 ; 0000 0556         sek0 = 0;
                 ; 0000 0557         proces[0] = 4;
                 ; 0000 0558 
                 ; 0000 0559     break;
                 ; 0000 055A 
                 ; 0000 055B     case 4:
                 ; 0000 055C             if(sek0 > 100)
                 ; 0000 055D                 {
                 ; 0000 055E                 PORTB.4 = 1; //silownik pozycjonujacy na zjezdzalni wzdloz
                 ; 0000 055F                 sek0 = 0;
                 ; 0000 0560                 proces[0] = 5;
                 ; 0000 0561                 }
                 ; 0000 0562     break;
                 ; 0000 0563 
                 ; 0000 0564     case 5:
                 ; 0000 0565             if(sek0 > 100)
                 ; 0000 0566                 {
                 ; 0000 0567                 PORTB.4 = 0; //silownik pozycjonujacy na zjezdzalni wzdloz
                 ; 0000 0568                 sek0 = 0;
                 ; 0000 0569                 proces[0] = 6;
                 ; 0000 056A                 }
                 ; 0000 056B 
                 ; 0000 056C     break;
                 ; 0000 056D 
                 ; 0000 056E 
                 ; 0000 056F     case 6:
                 ; 0000 0570             if(sek0 > 100)
                 ; 0000 0571                 {
                 ; 0000 0572                 PORTC.5 = 1; //silownik 3 w gore
                 ; 0000 0573                 sek0 = 0;
                 ; 0000 0574                 proces[0] = 7;
                 ; 0000 0575                 }
                 ; 0000 0576     break;
                 ; 0000 0577 
                 ; 0000 0578     case 7:
                 ; 0000 0579             if(sek0 > 100)
                 ; 0000 057A                 {
                 ; 0000 057B                 PORTC.5 = 0; //silownik 3 w dol
                 ; 0000 057C                 sek0 = 0;
                 ; 0000 057D                 proces[0] = 8;
                 ; 0000 057E                 }
                 ; 0000 057F     break;
                 ; 0000 0580 
                 ; 0000 0581     case 8:
                 ; 0000 0582             if(sek0 > 100)
                 ; 0000 0583                proces[0] = 9;
                 ; 0000 0584     break;
                 ; 0000 0585 
                 ; 0000 0586     case 9:
                 ; 0000 0587 
                 ; 0000 0588          sek0 = 0;
                 ; 0000 0589          proces[0] = 0;
                 ; 0000 058A          wynik = 1;
                 ; 0000 058B 
                 ; 0000 058C     break;
                 ; 0000 058D     }
                 ; 0000 058E 
                 ; 0000 058F return wynik;
                 ; 0000 0590 }
                 ;
                 ;
                 ;void wyczysc_maszyne_z_pretow_gwintowanych()
                 ; 0000 0594 {
                 ; 0000 0595 int i;
                 ; 0000 0596 i=0;
                 ;	i -> R16,R17
                 ; 0000 0597 
                 ; 0000 0598 
                 ; 0000 0599 while(i == 0)
                 ; 0000 059A     i = wyczysc_grzebienie();  //przenies raz grzebienie
                 ; 0000 059B i = 0;
                 ; 0000 059C while(i == 0)
                 ; 0000 059D     i = pusc_pierwszego_preta();
                 ; 0000 059E i = 0;
                 ; 0000 059F while(i == 0)
                 ; 0000 05A0     i = wyczysc_grzebienie();  //przenies raz grzebienie - po tym jest pod klejem
                 ; 0000 05A1 i = 0;
                 ; 0000 05A2 while(i == 0)
                 ; 0000 05A3     i = wyczysc_grzebienie();  //przenies raz grzebienie - po tym jest pod zakrecaniem
                 ; 0000 05A4 i = 0;
                 ; 0000 05A5 
                 ; 0000 05A6 while(i == 0)
                 ; 0000 05A7     i = wyczysc_grzebienie();  //przenies raz grzebienie - po tym spada
                 ; 0000 05AF komunikat_2_na_panel();
                 ; 0000 05B0 
                 ; 0000 05B1 }
                 ;
                 ;
                 ;int obsluga_startowa_tasmy_lancuchowej()
                 ; 0000 05B5 {
                 _obsluga_startowa_tasmy_lancuchowej:
                 ; 0000 05B6 //int zaloczono_kurtyne;
                 ; 0000 05B7 //zaloczono_kurtyne = 0;
                 ; 0000 05B8 
                 ; 0000 05B9 //PINF.6    czujnik ze jedzie lancuchowy
                 ; 0000 05BA //0 - jedzie
                 ; 0000 05BB //1 - stoi
                 ; 0000 05BC 
                 ; 0000 05BD //PINF.7    sygnal ze kurtyna zadzialala - jak ktos wlozyl lape to bedzie 0
                 ; 0000 05BE             //jak monterzy zresetuja to sama mi sie pojawi 1
                 ; 0000 05BF 
                 ; 0000 05C0 
                 ; 0000 05C1 //uproszczona obsluga
                 ; 0000 05C2 //PORTE.5   sekwencja startowa pivexin
                 ; 0000 05C3 //PORTE.6   manipulator wykonal pivexin
                 ; 0000 05C4 //if(PINF.7 == 1)
                 ; 0000 05C5 //            {
                 ; 0000 05C6 //            zw = 99;
                 ; 0000 05C7 //            wydaj_dzwiek();
                 ; 0000 05C8 
                 ; 0000 05C9 
                 ; 0000 05CA //PORTE.5 = 1;
                 ; 0000 05CB //delay_ms(300);
                 ; 0000 05CC //PORTE.5 = 0;
                 ; 0000 05CD //delay_ms(300);
                 ; 0000 05CE //PORTE.6 = 1;
                 ; 0000 05CF //delay_ms(300);
                 ; 0000 05D0 //PORTE.6 = 0;
                 ; 0000 05D1 
                 ; 0000 05D2 switch(PINF.7)
000760 e0e0      	LDI  R30,0
000761 9907      	SBIC 0x0,7
000762 e0e1      	LDI  R30,1
                 ; 0000 05D3     {
                 ; 0000 05D4 case 0:  //zmieniam 28.06 bylo 0
000763 30e0      	CPI  R30,0
000764 f011      	BREQ PC+3
000765 940c 07be 	JMP _0xC9
                 ; 0000 05D5         switch(sekwencja)
000767 91e0 0599 	LDS  R30,_sekwencja
000769 91f0 059a 	LDS  R31,_sekwencja+1
                 ; 0000 05D6            {
                 ; 0000 05D7            case 0:
00076b 9730      	SBIW R30,0
00076c f449      	BRNE _0xCD
                 ; 0000 05D8                     komunikat_czysc_na_panel();
00076d dbfb      	RCALL _komunikat_czysc_na_panel
                 ; 0000 05D9                     zaloczono_kurtyne = 0;
00076e 940e 1641 	CALL SUBOPT_0x45
                 ; 0000 05DA                     PORTE.5 = 1;
000770 9a1d      	SBI  0x3,5
                 ; 0000 05DB                     delay_ms(400);  //delay_ms(400);
000771 940e 1647 	CALL SUBOPT_0x46
                 ; 0000 05DC                     sekwencja = 1;
000773 940e 164d 	CALL SUBOPT_0x47
                 ; 0000 05DD            break;
000775 c047      	RJMP _0xCC
                 ; 0000 05DE            case 1:
                 _0xCD:
000776 30e1      	CPI  R30,LOW(0x1)
000777 e0a0      	LDI  R26,HIGH(0x1)
000778 07fa      	CPC  R31,R26
000779 f431      	BRNE _0xD0
                 ; 0000 05DF                     PORTE.5 = 0;
00077a 981d      	CBI  0x3,5
                 ; 0000 05E0                     delay_ms(400);
00077b 940e 1647 	CALL SUBOPT_0x46
                 ; 0000 05E1                     sekwencja = 2;
00077d 940e 1654 	CALL SUBOPT_0x48
                 ; 0000 05E2            break;
00077f c03d      	RJMP _0xCC
                 ; 0000 05E3 
                 ; 0000 05E4            case 2:
                 _0xD0:
000780 30e2      	CPI  R30,LOW(0x2)
000781 e0a0      	LDI  R26,HIGH(0x2)
000782 07fa      	CPC  R31,R26
000783 f441      	BRNE _0xD3
                 ; 0000 05E5                     PORTE.6 = 1;
000784 9a1e      	SBI  0x3,6
                 ; 0000 05E6                     if(PINF.6 == 0)  //ze jedzie
000785 9906      	SBIC 0x0,6
000786 c003      	RJMP _0xD6
                 ; 0000 05E7                         {
                 ; 0000 05E8                         komunikat_czysc_na_panel();
000787 940e 165b 	CALL SUBOPT_0x49
                 ; 0000 05E9                         sekwencja = 3;
                 ; 0000 05EA                         PORTE.6 = 0;
                 ; 0000 05EB                         }
                 ; 0000 05EC                     else
000789 c001      	RJMP _0xD9
                 _0xD6:
                 ; 0000 05ED                         {
                 ; 0000 05EE                         komunikat_12_na_panel();
00078a dbb6      	RCALL _komunikat_12_na_panel
                 ; 0000 05EF                         //delay_ms(100);
                 ; 0000 05F0                         }
                 _0xD9:
                 ; 0000 05F1            break;
00078b c031      	RJMP _0xCC
                 ; 0000 05F2 
                 ; 0000 05F3            case 3:
                 _0xD3:
00078c 30e3      	CPI  R30,LOW(0x3)
00078d e0a0      	LDI  R26,HIGH(0x3)
00078e 07fa      	CPC  R31,R26
00078f f4d1      	BRNE _0xDA
                 ; 0000 05F4                     if(PINF.6 == 1)  //ze stoi
000790 9b06      	SBIS 0x0,6
000791 c017      	RJMP _0xDB
                 ; 0000 05F5                     {
                 ; 0000 05F6                     komunikat_czysc_na_panel();
000792 dbd6      	RCALL _komunikat_czysc_na_panel
                 ; 0000 05F7                     if(zajechalem == 2)
000793 91a0 0597 	LDS  R26,_zajechalem
000795 91b0 0598 	LDS  R27,_zajechalem+1
000797 9712      	SBIW R26,2
000798 f421      	BRNE _0xDC
                 ; 0000 05F8                         zajechalem = 3;
000799 e0e3      	LDI  R30,LOW(3)
00079a e0f0      	LDI  R31,HIGH(3)
00079b 940e 1665 	CALL SUBOPT_0x4A
                 ; 0000 05F9                     if(zajechalem == 0)
                 _0xDC:
00079d 91e0 0597 	LDS  R30,_zajechalem
00079f 91f0 0598 	LDS  R31,_zajechalem+1
0007a1 9730      	SBIW R30,0
0007a2 f421      	BRNE _0xDD
                 ; 0000 05FA                         zajechalem = 2;
0007a3 e0e2      	LDI  R30,LOW(2)
0007a4 e0f0      	LDI  R31,HIGH(2)
0007a5 940e 1665 	CALL SUBOPT_0x4A
                 ; 0000 05FB                     sekwencja = 4;
                 _0xDD:
0007a7 940e 166a 	CALL SUBOPT_0x4B
                 ; 0000 05FC                     }
                 ; 0000 05FD            break;
                 _0xDB:
0007a9 c013      	RJMP _0xCC
                 ; 0000 05FE 
                 ; 0000 05FF            case 4:
                 _0xDA:
0007aa 30e4      	CPI  R30,LOW(0x4)
0007ab e0a0      	LDI  R26,HIGH(0x4)
0007ac 07fa      	CPC  R31,R26
0007ad f479      	BRNE _0xCC
                 ; 0000 0600 
                 ; 0000 0601                     if(zajechalem == 2)
0007ae 940e 1671 	CALL SUBOPT_0x4C
0007b0 9712      	SBIW R26,2
0007b1 f429      	BRNE _0xDF
                 ; 0000 0602                         {
                 ; 0000 0603                         delay_ms(400);
0007b2 940e 1647 	CALL SUBOPT_0x46
                 ; 0000 0604                         sekwencja = 2;
0007b4 940e 1654 	CALL SUBOPT_0x48
                 ; 0000 0605                         }
                 ; 0000 0606                     else
0007b6 c006      	RJMP _0xE0
                 _0xDF:
                 ; 0000 0607                         {
                 ; 0000 0608                         zajechalem = 1;
0007b7 e0e1      	LDI  R30,LOW(1)
0007b8 e0f0      	LDI  R31,HIGH(1)
0007b9 940e 1665 	CALL SUBOPT_0x4A
                 ; 0000 0609                         sekwencja = 0;
0007bb 940e 1676 	CALL SUBOPT_0x4D
                 ; 0000 060A                         }
                 _0xE0:
                 ; 0000 060B            break;
                 ; 0000 060C            }
                 _0xCC:
                 ; 0000 060D 
                 ; 0000 060E 
                 ; 0000 060F break;
0007bd c013      	RJMP _0xC8
                 ; 0000 0610 
                 ; 0000 0611 case 1: //zmieniam 28.06 bylo 1
                 _0xC9:
0007be 30e1      	CPI  R30,LOW(0x1)
0007bf f489      	BRNE _0xC8
                 ; 0000 0612         komunikat_10_na_panel();
0007c0 db6c      	RCALL _komunikat_10_na_panel
                 ; 0000 0613         PORTE.5 = 0;
0007c1 981d      	CBI  0x3,5
                 ; 0000 0614         PORTE.6 = 0;
0007c2 981e      	CBI  0x3,6
                 ; 0000 0615         zajechalem = 0;
0007c3 940e 167c 	CALL SUBOPT_0x4E
                 ; 0000 0616         sekwencja = 0;
                 ; 0000 0617         if(zaloczono_kurtyne == 0)
0007c5 91e0 05b7 	LDS  R30,_zaloczono_kurtyne
0007c7 91f0 05b8 	LDS  R31,_zaloczono_kurtyne+1
0007c9 9730      	SBIW R30,0
0007ca f411      	BRNE _0xE6
                 ; 0000 0618             {
                 ; 0000 0619             zaloczono_kurtyne = 1;
0007cb 940e 1682 	CALL SUBOPT_0x4F
                 ; 0000 061A             licznik_wyzwolen_kurtyny++;
                 ; 0000 061B             }
                 ; 0000 061C         wyswietl_parametry(licznik_wylatujacych_grzybkow,licznik_niezakreconych_grzybkow,licznik_wyzwolen_kurtyny,licznik_niewlozonych_pretow_z_grzybkiem,licznik_spoznien_monter_1_2,licznik_spoznien_monter_3_nowy);
                 _0xE6:
0007cd 940e 168b 	CALL SUBOPT_0x50
                 ; 0000 061D         delay_ms(1000);
0007cf 940e 16b1 	CALL SUBOPT_0x51
                 ; 0000 061E break;
                 ; 0000 061F     }
                 _0xC8:
                 ; 0000 0620 
                 ; 0000 0621 return zajechalem;
0007d1 91e0 0597 	LDS  R30,_zajechalem
0007d3 91f0 0598 	LDS  R31,_zajechalem+1
0007d5 9508      	RET
                 ; 0000 0622 }
                 ;
                 ;
                 ;void przenies_pret_gwintowany()
                 ; 0000 0626 {
                 _przenies_pret_gwintowany:
                 ; 0000 0627 int zwrot;
                 ; 0000 0628 int liczenie;
                 ; 0000 0629 int rozpoczalem_ruch_preta;
                 ; 0000 062A int zwloka_czasowa;
                 ; 0000 062B long int time,time1;
                 ; 0000 062C //int zaloczono_kurtyne;
                 ; 0000 062D 
                 ; 0000 062E //zaloczono_kurtyne = 0;
                 ; 0000 062F 
                 ; 0000 0630 liczenie = 0;
0007d6 972a      	SBIW R28,10
0007d7 940e 1aee 	CALL __SAVELOCR6
                 ;	zwrot -> R16,R17
                 ;	liczenie -> R18,R19
                 ;	rozpoczalem_ruch_preta -> R20,R21
                 ;	zwloka_czasowa -> Y+14
                 ;	time -> Y+10
                 ;	time1 -> Y+6
                +
0007d9 e020     +LDI R18 , LOW ( 0 )
0007da e030     +LDI R19 , HIGH ( 0 )
                 	__GETWRN 18,19,0
                 ; 0000 0631 rozpoczalem_ruch_preta = 0;
                +
0007db e040     +LDI R20 , LOW ( 0 )
0007dc e050     +LDI R21 , HIGH ( 0 )
                 	__GETWRN 20,21,0
                 ; 0000 0632 licz = 0;
0007dd 940e 14e9 	CALL SUBOPT_0x14
                 ; 0000 0633 time = 0;
0007df 940e 16b7 	CALL SUBOPT_0x52
                 ; 0000 0634 time1 = 0;
0007e1 940e 16bd 	CALL SUBOPT_0x53
                 ; 0000 0635 zwrot = 1;  //wylaczam to na razie bo testuje czekam na ruch lanucha 27.06
                +
0007e3 e001     +LDI R16 , LOW ( 1 )
0007e4 e010     +LDI R17 , HIGH ( 1 )
                 	__GETWRN 16,17,1
                 ; 0000 0636 //zwrot = 5;   //do testu czekam na ruch lanuchya
                 ; 0000 0637 sekwencja = 0;
0007e5 940e 1676 	CALL SUBOPT_0x4D
                 ; 0000 0638 zwloka_czasowa = 0;
0007e7 e0e0      	LDI  R30,LOW(0)
0007e8 87ee      	STD  Y+14,R30
0007e9 87ef      	STD  Y+14+1,R30
                 ; 0000 0639 
                 ; 0000 063A 
                 ; 0000 063B       //wylaczam to na razie bo testuje czekam na ruch lanucha 27.06
                 ; 0000 063C 
                 ; 0000 063D 
                 ; 0000 063E if(start >=8)
0007ea e0e8      	LDI  R30,LOW(8)
0007eb e0f0      	LDI  R31,HIGH(8)
0007ec 16ce      	CP   R12,R30
0007ed 06df      	CPC  R13,R31
0007ee f01c      	BRLT _0xE7
                 ; 0000 063F     //zw = 99;   //na razie do testow
                 ; 0000 0640     //zw = 1;
                 ; 0000 0641     sekwencja = 0;
0007ef 940e 1676 	CALL SUBOPT_0x4D
                 ; 0000 0642 else
0007f1 c002      	RJMP _0xE8
                 _0xE7:
                 ; 0000 0643     sekwencja = 5;
0007f2 940e 16c3 	CALL SUBOPT_0x54
                 ; 0000 0644     //zw = 0;
                 ; 0000 0645 
                 ; 0000 0646 
                 ; 0000 0647 
                 ; 0000 0648 
                 ; 0000 0649 
                 ; 0000 064A //to ponizej dziala na pewno ale kombinuje z kurtyna 22.03.2017
                 ; 0000 064B 
                 ; 0000 064C //while(zwrot == 1 | zwrot == 2 | zw == 1 | zw == 2 | zw == 3 | zw == 4 | zw == 5 | zw == 99)
                 ; 0000 064D while(zwrot == 1 | zwrot == 2 | zwrot == 3 | zwrot == 4 | sekwencja == 0 | sekwencja == 1 | sekwencja == 2 | sekwencja == 3 | sekwencja == 4)
                 _0xE8:
                 _0xE9:
0007f4 940e 16ca 	CALL SUBOPT_0x55
0007f6 940e 16df 	CALL SUBOPT_0x56
0007f8 940e 16e5 	CALL SUBOPT_0x57
0007fa 940e 16df 	CALL SUBOPT_0x56
0007fc 940e 16ea 	CALL SUBOPT_0x58
0007fe 940e 16df 	CALL SUBOPT_0x56
000800 940e 16ef 	CALL SUBOPT_0x59
000802 940e 16df 	CALL SUBOPT_0x56
000804 e0e3      	LDI  R30,LOW(3)
000805 e0f0      	LDI  R31,HIGH(3)
000806 940e 1a27 	CALL __EQW12
000808 940e 16df 	CALL SUBOPT_0x56
00080a e0e4      	LDI  R30,LOW(4)
00080b e0f0      	LDI  R31,HIGH(4)
00080c 940e 1a27 	CALL __EQW12
00080e 29e0      	OR   R30,R0
00080f f411      	BRNE PC+3
000810 940c 0995 	JMP _0xEB
                 ; 0000 064E     {
                 ; 0000 064F     if(zwrot == 1 | zwrot == 2 | zwrot == 3 | zwrot == 4)
000812 940e 16ca 	CALL SUBOPT_0x55
000814 29e0      	OR   R30,R0
000815 f411      	BRNE PC+3
000816 940c 08da 	JMP _0xEC
                 ; 0000 0650             {
                 ; 0000 0651             switch(zwrot)
000818 01f8      	MOVW R30,R16
                 ; 0000 0652                 {
                 ; 0000 0653                 case 1:                                                       //30000 04.07
000819 30e1      	CPI  R30,LOW(0x1)
00081a e0a0      	LDI  R26,HIGH(0x1)
00081b 07fa      	CPC  R31,R26
00081c f569      	BRNE _0xF0
                 ; 0000 0654                         if((rozpoczalem_ruch_preta == 1 & start >=8 & time1 > 20000) | (start < 8 & time1 > 3000))
00081d 01da      	MOVW R26,R20
00081e 940e 16ea 	CALL SUBOPT_0x58
000820 2e0e      	MOV  R0,R30
000821 940e 16f4 	CALL SUBOPT_0x5A
000823 220e      	AND  R0,R30
000824 940e 16fa 	CALL SUBOPT_0x5B
                +
000826 e2e0     +LDI R30 , LOW ( 0x4E20 )
000827 e4fe     +LDI R31 , HIGH ( 0x4E20 )
000828 e060     +LDI R22 , BYTE3 ( 0x4E20 )
000829 e070     +LDI R23 , BYTE4 ( 0x4E20 )
                 	__GETD1N 0x4E20
00082a 940e 1a4d 	CALL __GTD12
00082c 21e0      	AND  R30,R0
00082d 2e1e      	MOV  R1,R30
00082e 01d6      	MOVW R26,R12
00082f e0e8      	LDI  R30,LOW(8)
000830 e0f0      	LDI  R31,HIGH(8)
000831 940e 1a39 	CALL __LTW12
000833 2e0e      	MOV  R0,R30
000834 940e 16fa 	CALL SUBOPT_0x5B
                +
000836 ebe8     +LDI R30 , LOW ( 0xBB8 )
000837 e0fb     +LDI R31 , HIGH ( 0xBB8 )
000838 e060     +LDI R22 , BYTE3 ( 0xBB8 )
000839 e070     +LDI R23 , BYTE4 ( 0xBB8 )
                 	__GETD1N 0xBB8
00083a 940e 1a4d 	CALL __GTD12
00083c 21e0      	AND  R30,R0
00083d 29e1      	OR   R30,R1
00083e f051      	BREQ _0xF1
                 ; 0000 0655                             {
                 ; 0000 0656                             if(start < 8)
00083f e0e8      	LDI  R30,LOW(8)
000840 e0f0      	LDI  R31,HIGH(8)
000841 16ce      	CP   R12,R30
000842 06df      	CPC  R13,R31
000843 f40c      	BRGE _0xF2
                 ; 0000 0657                                 PORTB.5 = 1;  //si³ownik ma³y chwytania prêcika - chwycenie
000844 9ac5      	SBI  0x18,5
                 ; 0000 0658                             zwrot = 2;
                 _0xF2:
                +
000845 e002     +LDI R16 , LOW ( 2 )
000846 e010     +LDI R17 , HIGH ( 2 )
                 	__GETWRN 16,17,2
                 ; 0000 0659                             time1 = 0;
000847 940e 16bd 	CALL SUBOPT_0x53
                 ; 0000 065A                             }
                 ; 0000 065B                 break;
                 _0xF1:
000849 c090      	RJMP _0xEF
                 ; 0000 065C                 case 2:
                 _0xF0:
00084a 30e2      	CPI  R30,LOW(0x2)
00084b e0a0      	LDI  R26,HIGH(0x2)
00084c 07fa      	CPC  R31,R26
00084d f5d9      	BRNE _0xF5
                 ; 0000 065D                         if((PINA.5 == 0 & start < 8) | (PINA.5 == 1 & start >= 8)) //kontrola ok - wywalam kontrolwe 14.09 bo koliduje jak sie zapetli nakretka
00084e 940e 16ff 	CALL SUBOPT_0x5C
000850 2e0e      	MOV  R0,R30
000851 01d6      	MOVW R26,R12
000852 e0e8      	LDI  R30,LOW(8)
000853 e0f0      	LDI  R31,HIGH(8)
000854 940e 1a39 	CALL __LTW12
000856 21e0      	AND  R30,R0
000857 2e1e      	MOV  R1,R30
000858 e0a0      	LDI  R26,0
000859 99cd      	SBIC 0x19,5
00085a e0a1      	LDI  R26,1
00085b 940e 1480 	CALL SUBOPT_0x7
00085d 940e 16f4 	CALL SUBOPT_0x5A
00085f 21e0      	AND  R30,R0
000860 29e1      	OR   R30,R1
000861 f011      	BREQ _0xF6
                 ; 0000 065E                             {
                 ; 0000 065F                             PORTB.5 = 0; //si³ownik ma³y chwytania prêcika - puszczenie
000862 98c5      	CBI  0x18,5
                 ; 0000 0660                             PORTB.2 = 0; //wkladanie do lancy precika z grzybkiem - powrot silownikiem
000863 c020      	RJMP _0x2C9
                 ; 0000 0661                             PORTB.6 = 0; //silownik obrotowy na ktorym jest maly chwytajacy precik - powrot
                 ; 0000 0662                             zwrot = 3;
                 ; 0000 0663                             }
                 ; 0000 0664                         else
                 _0xF6:
                 ; 0000 0665                             {
                 ; 0000 0666                             if(time1 > 100000 & PINA.7 == 1)
000864 940e 16fa 	CALL SUBOPT_0x5B
000866 940e 148c 	CALL SUBOPT_0x9
000868 940e 1706 	CALL SUBOPT_0x5D
00086a 940e 170b 	CALL SUBOPT_0x5E
00086c f059      	BREQ _0xFE
                 ; 0000 0667                                 {
                 ; 0000 0668                                 wydaj_dzwiek();
00086d da57      	RCALL _wydaj_dzwiek
                 ; 0000 0669                                 komunikat_13_na_panel();
00086e dae6      	RCALL _komunikat_13_na_panel
                 ; 0000 066A                                 PORTB.5 = 0;
00086f 98c5      	CBI  0x18,5
                 ; 0000 066B                                 time1 = 100001;
                +
000870 eae1     +LDI R30 , LOW ( 0x186A1 )
000871 e8f6     +LDI R31 , HIGH ( 0x186A1 )
000872 e061     +LDI R22 , BYTE3 ( 0x186A1 )
000873 e070     +LDI R23 , BYTE4 ( 0x186A1 )
                 	__GETD1N 0x186A1
                +
000874 83ee     +STD Y + 6 , R30
000875 83ff     +STD Y + 6 + 1 , R31
000876 8768     +STD Y + 6 + 2 , R22
000877 8779     +STD Y + 6 + 3 , R23
                 	__PUTD1S 6
                 ; 0000 066C                                 }
                 ; 0000 066D                             if(time1 > 100000 & PINA.7 == 0)
                 _0xFE:
000878 940e 16fa 	CALL SUBOPT_0x5B
00087a 940e 148c 	CALL SUBOPT_0x9
00087c 940e 1706 	CALL SUBOPT_0x5D
00087e 940e 1710 	CALL SUBOPT_0x5F
000880 f039      	BREQ _0x101
                 ; 0000 066E                                 {
                 ; 0000 066F                                 komunikat_czysc_na_panel();
000881 dae7      	RCALL _komunikat_czysc_na_panel
                 ; 0000 0670                                 time1 = 0;
000882 940e 16bd 	CALL SUBOPT_0x53
                 ; 0000 0671                                 PORTB.2 = 0; //wkladanie do lancy precika z grzybkiem - powrot silownikiem
                 _0x2C9:
000884 98c2      	CBI  0x18,2
                 ; 0000 0672                                 PORTB.6 = 0; //silownik obrotowy na ktorym jest maly chwytajacy precik - powrot
000885 98c6      	CBI  0x18,6
                 ; 0000 0673                                 zwrot = 3;
                +
000886 e003     +LDI R16 , LOW ( 3 )
000887 e010     +LDI R17 , HIGH ( 3 )
                 	__GETWRN 16,17,3
                 ; 0000 0674                                 }
                 ; 0000 0675 
                 ; 0000 0676                             }
                 _0x101:
                 ; 0000 0677 
                 ; 0000 0678                 break;
000888 c051      	RJMP _0xEF
                 ; 0000 0679 
                 ; 0000 067A                 case 3:
                 _0xF5:
000889 30e3      	CPI  R30,LOW(0x3)
00088a e0a0      	LDI  R26,HIGH(0x3)
00088b 07fa      	CPC  R31,R26
00088c f521      	BRNE _0x106
                 ; 0000 067B 
                 ; 0000 067C 
                 ; 0000 067D                         if(przejechalem_czujnik_lub_jestem_na_nim == 1)
00088d 91a0 05a7 	LDS  R26,_przejechalem_czujnik_lub_jestem_na_nim
00088f 91b0 05a8 	LDS  R27,_przejechalem_czujnik_lub_jestem_na_nim+1
000891 9711      	SBIW R26,1
000892 f439      	BRNE _0x107
                 ; 0000 067E                             {
                 ; 0000 067F                             //if(dlugosc_preta_gwintowanego < 70 & il_pretow_gwintowanych > 1 & start >= 6 & metalowe_grzybki == 0)
                 ; 0000 0680                             //  PORTE.3 = 1;
                 ; 0000 0681                             PORTB.7 = 0;  //zakoncz dociskanie preta
000893 98c7      	CBI  0x18,7
                 ; 0000 0682                             PORTD.0 = 1; //rozpcznij przeniesienie pret do nakladania kleju
000894 9a90      	SBI  0x12,0
                 ; 0000 0683                             przejechalem_czujnik_lub_jestem_na_nim = 0;
000895 e0e0      	LDI  R30,LOW(0)
000896 93e0 05a7 	STS  _przejechalem_czujnik_lub_jestem_na_nim,R30
000898 93e0 05a8 	STS  _przejechalem_czujnik_lub_jestem_na_nim+1,R30
                 ; 0000 0684                             }
                 ; 0000 0685                         if(PINA.4 == 1 & przejechalem_czujnik_lub_jestem_na_nim == 0)
                 _0x107:
00089a e0a0      	LDI  R26,0
00089b 99cc      	SBIC 0x19,4
00089c e0a1      	LDI  R26,1
00089d 940e 1480 	CALL SUBOPT_0x7
00089f 91a0 05a7 	LDS  R26,_przejechalem_czujnik_lub_jestem_na_nim
0008a1 91b0 05a8 	LDS  R27,_przejechalem_czujnik_lub_jestem_na_nim+1
0008a3 940e 16e5 	CALL SUBOPT_0x57
0008a5 21e0      	AND  R30,R0
0008a6 f049      	BREQ _0x10C
                 ; 0000 0686                             {
                 ; 0000 0687                             PORTD.0 = 1; //czujnik juz nie swieci, czyli jade dalej
0008a7 9a90      	SBI  0x12,0
                 ; 0000 0688                             przejechalem_czujnik_lub_jestem_na_nim = 1;
0008a8 940e 1715 	CALL SUBOPT_0x60
                 ; 0000 0689                             grzybek_jest_nakrecony_na_precie = 0;
0008aa 940e 171c 	CALL SUBOPT_0x61
                 ; 0000 068A                             sek1 = 0;
0008ac 940e 1722 	CALL SUBOPT_0x62
                 ; 0000 068B                             zwrot = 4;
                +
0008ae e004     +LDI R16 , LOW ( 4 )
0008af e010     +LDI R17 , HIGH ( 4 )
                 	__GETWRN 16,17,4
                 ; 0000 068C                             }
                 ; 0000 068D 
                 ; 0000 068E                 break;
                 _0x10C:
0008b0 c029      	RJMP _0xEF
                 ; 0000 068F 
                 ; 0000 0690                 case 4:
                 _0x106:
0008b1 30e4      	CPI  R30,LOW(0x4)
0008b2 e0a0      	LDI  R26,HIGH(0x4)
0008b3 07fa      	CPC  R31,R26
0008b4 f529      	BRNE _0xEF
                 ; 0000 0691 
                 ; 0000 0692                     if(PINF.2 == 0)
0008b5 9902      	SBIC 0x0,2
0008b6 c006      	RJMP _0x110
                 ; 0000 0693                         grzybek_jest_nakrecony_na_precie = 1;
0008b7 e0e1      	LDI  R30,LOW(1)
0008b8 e0f0      	LDI  R31,HIGH(1)
0008b9 93e0 05ab 	STS  _grzybek_jest_nakrecony_na_precie,R30
0008bb 93f0 05ac 	STS  _grzybek_jest_nakrecony_na_precie+1,R31
                 ; 0000 0694 
                 ; 0000 0695 
                 ; 0000 0696                     if(PINA.4 == 0)  //dojechalem znowu do czujnika
                 _0x110:
0008bd 99cc      	SBIC 0x19,4
0008be c007      	RJMP _0x111
                 ; 0000 0697                         {
                 ; 0000 0698                         //if(grzybek_jest_nakrecony_na_precie == 0)
                 ; 0000 0699                         //    licznik_wylatujacych_grzybkow++;
                 ; 0000 069A                         //PORTD.0 = 0; //wylacz silnik      //zwalniam 20.09.2018
                 ; 0000 069B                         //zwrot = 5;
                 ; 0000 069C                         sek1 = 0;
0008bf e0e0      	LDI  R30,LOW(0)
0008c0 940e 1722 	CALL SUBOPT_0x62
                 ; 0000 069D                         zwloka_czasowa = 1;
0008c2 e0e1      	LDI  R30,LOW(1)
0008c3 e0f0      	LDI  R31,HIGH(1)
0008c4 87ee      	STD  Y+14,R30
0008c5 87ff      	STD  Y+14+1,R31
                 ; 0000 069E                         }
                 ; 0000 069F 
                 ; 0000 06A0                     if(zwloka_czasowa == 1 & sek1 > 5)
                 _0x111:
0008c6 85ae      	LDD  R26,Y+14
0008c7 85bf      	LDD  R27,Y+14+1
0008c8 940e 16ea 	CALL SUBOPT_0x58
0008ca 2e0e      	MOV  R0,R30
0008cb 940e 172b 	CALL SUBOPT_0x63
0008cd 940e 1734 	CALL SUBOPT_0x64
0008cf 21e0      	AND  R30,R0
0008d0 f049      	BREQ _0x112
                 ; 0000 06A1                         {
                 ; 0000 06A2                         PORTD.0 = 0;
0008d1 9890      	CBI  0x12,0
                 ; 0000 06A3                         sek1 = 0;
0008d2 e0e0      	LDI  R30,LOW(0)
0008d3 940e 1722 	CALL SUBOPT_0x62
                 ; 0000 06A4                         zwloka_czasowa = 0;
0008d5 e0e0      	LDI  R30,LOW(0)
0008d6 87ee      	STD  Y+14,R30
0008d7 87ef      	STD  Y+14+1,R30
                 ; 0000 06A5                         zwrot = 5;
                +
0008d8 e005     +LDI R16 , LOW ( 5 )
0008d9 e010     +LDI R17 , HIGH ( 5 )
                 	__GETWRN 16,17,5
                 ; 0000 06A6                         }
                 ; 0000 06A7 
                 ; 0000 06A8 
                 ; 0000 06A9                 break;
                 _0x112:
                 ; 0000 06AA                 }
                 _0xEF:
                 ; 0000 06AB             }
                 ; 0000 06AC 
                 ; 0000 06AD //PINF.7    sygnal ze kurtyna zadzialala - jak ktos wlozyl lape to bedzie 0
                 ; 0000 06AE                         //jak monterzy zresetuja to sama mi sie pojawi 1
                 ; 0000 06AF 
                 ; 0000 06B0     switch(PINF.7)
                 _0xEC:
0008da e0e0      	LDI  R30,0
0008db 9907      	SBIC 0x0,7
0008dc e0e1      	LDI  R30,1
                 ; 0000 06B1     {
                 ; 0000 06B2     case 0:    //zmieniam 28.06 bylo 0
0008dd 30e0      	CPI  R30,0
0008de f011      	BREQ PC+3
0008df 940c 096d 	JMP _0x118
                 ; 0000 06B3         switch(sekwencja)
0008e1 91e0 0599 	LDS  R30,_sekwencja
0008e3 91f0 059a 	LDS  R31,_sekwencja+1
                 ; 0000 06B4            {
                 ; 0000 06B5            case 0:
0008e5 9730      	SBIW R30,0
0008e6 f519      	BRNE _0x11C
                 ; 0000 06B6                     if(PINF.7 == 0 & PINF.3 == 0)
0008e7 940e 173b 	CALL SUBOPT_0x65
0008e9 e0a0      	LDI  R26,0
0008ea 9903      	SBIC 0x0,3
0008eb e0a1      	LDI  R26,1
0008ec 940e 1710 	CALL SUBOPT_0x5F
0008ee f049      	BREQ _0x11D
                 ; 0000 06B7                     {
                 ; 0000 06B8                     zaloczono_kurtyne = 0;
0008ef 940e 1641 	CALL SUBOPT_0x45
                 ; 0000 06B9                     komunikat_czysc_na_panel();
0008f1 da77      	RCALL _komunikat_czysc_na_panel
                 ; 0000 06BA                     PORTE.5 = 1;
0008f2 9a1d      	SBI  0x3,5
                 ; 0000 06BB                     time = 0;
0008f3 940e 16b7 	CALL SUBOPT_0x52
                 ; 0000 06BC                     sekwencja = 1;
0008f5 940e 164d 	CALL SUBOPT_0x47
                 ; 0000 06BD                     }
                 ; 0000 06BE                     else
0008f7 c011      	RJMP _0x120
                 _0x11D:
                 ; 0000 06BF                         {
                 ; 0000 06C0                         if(PINF.3 == 1 & liczenie == 0)
0008f8 e0a0      	LDI  R26,0
0008f9 9903      	SBIC 0x0,3
0008fa e0a1      	LDI  R26,1
0008fb 940e 1480 	CALL SUBOPT_0x7
0008fd 01d9      	MOVW R26,R18
0008fe 940e 16e5 	CALL SUBOPT_0x57
000900 21e0      	AND  R30,R0
000901 f031      	BREQ _0x121
                 ; 0000 06C1                             {
                 ; 0000 06C2                             licznik_spoznien_monter_1_2++;
000902 e7a4      	LDI  R26,LOW(_licznik_spoznien_monter_1_2)
000903 e0b5      	LDI  R27,HIGH(_licznik_spoznien_monter_1_2)
000904 940e 1470 	CALL SUBOPT_0x4
                 ; 0000 06C3                             liczenie = 1;
                +
000906 e021     +LDI R18 , LOW ( 1 )
000907 e030     +LDI R19 , HIGH ( 1 )
                 	__GETWRN 18,19,1
                 ; 0000 06C4                             }
                 ; 0000 06C5                         break;
                 _0x121:
000908 c063      	RJMP _0x11B
                 ; 0000 06C6                         }
                 _0x120:
                 ; 0000 06C7            break;                                 //& PINF.1 == 0
000909 c062      	RJMP _0x11B
                 ; 0000 06C8            case 1:                    //silownik chwytania lancy
                 _0x11C:
00090a 30e1      	CPI  R30,LOW(0x1)
00090b e0a0      	LDI  R26,HIGH(0x1)
00090c 07fa      	CPC  R31,R26
00090d f499      	BRNE _0x122
                 ; 0000 06C9                     if(PINF.7 == 0 & PORTB.1 == 0)
00090e 940e 173b 	CALL SUBOPT_0x65
000910 e0a0      	LDI  R26,0
000911 99c1      	SBIC 0x18,1
000912 e0a1      	LDI  R26,1
000913 940e 1710 	CALL SUBOPT_0x5F
000915 f049      	BREQ _0x123
                 ; 0000 06CA                     {
                 ; 0000 06CB                     if(time > 1000)  //7500 04.07.2017 dziala bez zarzutu, to byla wina chyba przekaznikow i opoznien na nich, zmieniam tak jak bylo
000916 940e 1743 	CALL SUBOPT_0x66
000918 f02c      	BRLT _0x124
                 ; 0000 06CC                         {
                 ; 0000 06CD                         PORTE.5 = 0;
000919 981d      	CBI  0x3,5
                 ; 0000 06CE                         sekwencja = 2;
00091a 940e 1654 	CALL SUBOPT_0x48
                 ; 0000 06CF                         time = 0;
00091c 940e 16b7 	CALL SUBOPT_0x52
                 ; 0000 06D0                         }
                 ; 0000 06D1 
                 ; 0000 06D2                     }
                 _0x124:
                 ; 0000 06D3                     else
00091e c001      	RJMP _0x127
                 _0x123:
                 ; 0000 06D4                         break;
00091f c04c      	RJMP _0x11B
                 ; 0000 06D5            break;
                 _0x127:
000920 c04b      	RJMP _0x11B
                 ; 0000 06D6 
                 ; 0000 06D7            case 2:                 //& PINF.1 == 0
                 _0x122:
000921 30e2      	CPI  R30,LOW(0x2)
000922 e0a0      	LDI  R26,HIGH(0x2)
000923 07fa      	CPC  R31,R26
000924 f4b1      	BRNE _0x128
                 ; 0000 06D8                     if(PINF.7 == 0)
000925 9907      	SBIC 0x0,7
000926 c011      	RJMP _0x129
                 ; 0000 06D9                     {
                 ; 0000 06DA                     if(time > 1000)   ////7500  04.07.2017
000927 940e 1743 	CALL SUBOPT_0x66
000929 f06c      	BRLT _0x12A
                 ; 0000 06DB                     {
                 ; 0000 06DC                     PORTE.6 = 1;
00092a 9a1e      	SBI  0x3,6
                 ; 0000 06DD                     if(PINF.6 == 0)  //ze jedzie
00092b 9906      	SBIC 0x0,6
00092c c009      	RJMP _0x12D
                 ; 0000 06DE                         {
                 ; 0000 06DF                         rozpoczalem_ruch_preta = 1;
                +
00092d e041     +LDI R20 , LOW ( 1 )
00092e e050     +LDI R21 , HIGH ( 1 )
                 	__GETWRN 20,21,1
                 ; 0000 06E0                         time1 = 0;   //zeby sekunde odczekac z chwyceniem
00092f 940e 16bd 	CALL SUBOPT_0x53
                 ; 0000 06E1                         komunikat_czysc_na_panel();
000931 940e 165b 	CALL SUBOPT_0x49
                 ; 0000 06E2                         sekwencja = 3;
                 ; 0000 06E3                         PORTE.6 = 0;
                 ; 0000 06E4                         time = 0;
000933 940e 16b7 	CALL SUBOPT_0x52
                 ; 0000 06E5                         }
                 ; 0000 06E6                     else
000935 c001      	RJMP _0x130
                 _0x12D:
                 ; 0000 06E7                         {
                 ; 0000 06E8                         komunikat_12_na_panel();
000936 da0a      	RCALL _komunikat_12_na_panel
                 ; 0000 06E9                         }
                 _0x130:
                 ; 0000 06EA                     }
                 ; 0000 06EB                     }
                 _0x12A:
                 ; 0000 06EC                     else
000937 c002      	RJMP _0x131
                 _0x129:
                 ; 0000 06ED                         {
                 ; 0000 06EE                         PORTB.1 = 0;
000938 98c1      	CBI  0x18,1
                 ; 0000 06EF                         break;
000939 c032      	RJMP _0x11B
                 ; 0000 06F0                         }
                 _0x131:
                 ; 0000 06F1 
                 ; 0000 06F2            break;
00093a c031      	RJMP _0x11B
                 ; 0000 06F3 
                 ; 0000 06F4            case 3:
                 _0x128:
00093b 30e3      	CPI  R30,LOW(0x3)
00093c e0a0      	LDI  R26,HIGH(0x3)
00093d 07fa      	CPC  R31,R26
00093e f4b1      	BRNE _0x134
                 ; 0000 06F5                     if(PINF.6 == 1)  //ze stoi
00093f 9b06      	SBIS 0x0,6
000940 c013      	RJMP _0x135
                 ; 0000 06F6                     {
                 ; 0000 06F7                     komunikat_czysc_na_panel();
000941 da27      	RCALL _komunikat_czysc_na_panel
                 ; 0000 06F8                     PORTE.6 = 0;
000942 981e      	CBI  0x3,6
                 ; 0000 06F9                     if(time > 6000)      //to bêdzie chyba to......to powoduje jechanie dwa razy...zmieniam to na 6000..bylo 60000  12.20.2017
                +
000943 85aa     +LDD R26 , Y + 10
000944 85bb     +LDD R27 , Y + 10 + 1
000945 858c     +LDD R24 , Y + 10 + 2
000946 859d     +LDD R25 , Y + 10 + 3
                 	__GETD2S 10
                +
000947 37a1     +CPI R26 , LOW ( 0x1771 )
000948 e1e7     +LDI R30 , HIGH ( 0x1771 )
000949 07be     +CPC R27 , R30
00094a e0e0     +LDI R30 , BYTE3 ( 0x1771 )
00094b 078e     +CPC R24 , R30
00094c e0e0     +LDI R30 , BYTE4 ( 0x1771 )
00094d 079e     +CPC R25 , R30
                 	__CPD2N 0x1771
00094e f01c      	BRLT _0x138
                 ; 0000 06FA                         sekwencja = 4;
00094f 940e 166a 	CALL SUBOPT_0x4B
                 ; 0000 06FB                     else
000951 c002      	RJMP _0x139
                 _0x138:
                 ; 0000 06FC                         sekwencja = 0;
000952 940e 1676 	CALL SUBOPT_0x4D
                 ; 0000 06FD                     }
                 _0x139:
                 ; 0000 06FE            break;
                 _0x135:
000954 c017      	RJMP _0x11B
                 ; 0000 06FF            case 4:
                 _0x134:
000955 30e4      	CPI  R30,LOW(0x4)
000956 e0a0      	LDI  R26,HIGH(0x4)
000957 07fa      	CPC  R31,R26
000958 f499      	BRNE _0x11B
                 ; 0000 0700                     sekwencja = 5;
000959 940e 16c3 	CALL SUBOPT_0x54
                 ; 0000 0701                     if(start >= 10 & tryb_male_puchary == 0)
00095b 940e 174f 	CALL SUBOPT_0x67
00095d 2e0e      	MOV  R0,R30
00095e 940e 1755 	CALL SUBOPT_0x68
000960 940e 16e5 	CALL SUBOPT_0x57
000962 21e0      	AND  R30,R0
000963 f009      	BREQ _0x13B
                 ; 0000 0702                         PORTD.2 = 1;  //komunikacja bez rs232 zgodna na zacisniecie szczek
000964 9a92      	SBI  0x12,2
                 ; 0000 0703                     if(start >= 9 & tryb_male_puchary == 1)
                 _0x13B:
000965 940e 175a 	CALL SUBOPT_0x69
000967 940e 1761 	CALL SUBOPT_0x6A
000969 21e0      	AND  R30,R0
00096a f009      	BREQ _0x13E
                 ; 0000 0704                         PORTD.2 = 1;  //komunikacja bez rs232 zgodna na wysuniecie silownika otwierajacego wieze
00096b 9a92      	SBI  0x12,2
                 ; 0000 0705            break;
                 _0x13E:
                 ; 0000 0706 
                 ; 0000 0707            }
                 _0x11B:
                 ; 0000 0708 
                 ; 0000 0709 
                 ; 0000 070A     break;
00096c c013      	RJMP _0x117
                 ; 0000 070B 
                 ; 0000 070C     case 1: //zmieniam 28.06 bylo 1
                 _0x118:
00096d 30e1      	CPI  R30,LOW(0x1)
00096e f489      	BRNE _0x117
                 ; 0000 070D         komunikat_czysc_na_panel();
00096f d9f9      	RCALL _komunikat_czysc_na_panel
                 ; 0000 070E         komunikat_10_na_panel();
000970 d9bc      	RCALL _komunikat_10_na_panel
                 ; 0000 070F 
                 ; 0000 0710         PORTE.5 = 0;
000971 981d      	CBI  0x3,5
                 ; 0000 0711         PORTE.6 = 0;
000972 981e      	CBI  0x3,6
                 ; 0000 0712         PORTD.2 = 0;   //koniec zezwolenia na zacisniecie szczek
000973 9892      	CBI  0x12,2
                 ; 0000 0713         sekwencja = 0;
000974 940e 1676 	CALL SUBOPT_0x4D
                 ; 0000 0714         time = 0;
000976 940e 16b7 	CALL SUBOPT_0x52
                 ; 0000 0715         if(zaloczono_kurtyne == 0)
000978 91e0 05b7 	LDS  R30,_zaloczono_kurtyne
00097a 91f0 05b8 	LDS  R31,_zaloczono_kurtyne+1
00097c 9730      	SBIW R30,0
00097d f411      	BRNE _0x148
                 ; 0000 0716             {
                 ; 0000 0717             zaloczono_kurtyne = 1;
00097e 940e 1682 	CALL SUBOPT_0x4F
                 ; 0000 0718             licznik_wyzwolen_kurtyny++;
                 ; 0000 0719             }
                 ; 0000 071A     break;
                 _0x148:
                 ; 0000 071B     }
                 _0x117:
                 ; 0000 071C 
                 ; 0000 071D 
                 ; 0000 071E 
                 ; 0000 071F 
                 ; 0000 0720 
                 ; 0000 0721     time++;
                +
000980 85ea     +LDD R30 , Y + 10
000981 85fb     +LDD R31 , Y + 10 + 1
000982 856c     +LDD R22 , Y + 10 + 2
000983 857d     +LDD R23 , Y + 10 + 3
                 	__GETD1S 10
000984 940e 1763 	CALL SUBOPT_0x6B
                +
000986 87ea     +STD Y + 10 , R30
000987 87fb     +STD Y + 10 + 1 , R31
000988 876c     +STD Y + 10 + 2 , R22
000989 877d     +STD Y + 10 + 3 , R23
                 	__PUTD1S 10
                 ; 0000 0722     time1++;
                +
00098a 81ee     +LDD R30 , Y + 6
00098b 81ff     +LDD R31 , Y + 6 + 1
00098c 8568     +LDD R22 , Y + 6 + 2
00098d 8579     +LDD R23 , Y + 6 + 3
                 	__GETD1S 6
00098e 940e 1763 	CALL SUBOPT_0x6B
                +
000990 83ee     +STD Y + 6 , R30
000991 83ff     +STD Y + 6 + 1 , R31
000992 8768     +STD Y + 6 + 2 , R22
000993 8779     +STD Y + 6 + 3 , R23
                 	__PUTD1S 6
                 ; 0000 0723     }
000994 ce5f      	RJMP _0xE9
                 _0xEB:
                 ; 0000 0724 
                 ; 0000 0725 
                 ; 0000 0726 
                 ; 0000 0727 }
000995 940e 1af5 	CALL __LOADLOCR6
                 _0x20A0002:
000997 9660      	ADIW R28,16
000998 9508      	RET
                 ;
                 ;
                 ;void komunikacja_startowa_male_puchary(int wynik_wyboru_male_puchary)
                 ; 0000 072B {
                 _komunikacja_startowa_male_puchary:
                 ; 0000 072C int licznik_impulsow_male_puchary;
                 ; 0000 072D int znacznik;
                 ; 0000 072E 
                 ; 0000 072F licznik_impulsow_male_puchary = 0;
000999 940e 1af0 	CALL __SAVELOCR4
                 ;	wynik_wyboru_male_puchary -> Y+4
                 ;	licznik_impulsow_male_puchary -> R16,R17
                 ;	znacznik -> R18,R19
00099b 940e 15db 	CALL SUBOPT_0x37
                 ; 0000 0730 znacznik = 0;
                 ; 0000 0731 
                 ; 0000 0732 PORTD.6 = 1;
00099d 9a96      	SBI  0x12,6
                 ; 0000 0733 delay_ms(500);
00099e 940e 1768 	CALL SUBOPT_0x6C
                 ; 0000 0734 while(licznik_impulsow_male_puchary < wynik_wyboru_male_puchary)    //3 oznacza brak malych pucharow
                 _0x14B:
0009a0 81ec      	LDD  R30,Y+4
0009a1 81fd      	LDD  R31,Y+4+1
0009a2 170e      	CP   R16,R30
0009a3 071f      	CPC  R17,R31
0009a4 f4e4      	BRGE _0x14D
                 ; 0000 0735 {
                 ; 0000 0736 if(PINF.1 == 1)
0009a5 9b01      	SBIS 0x0,1
0009a6 c003      	RJMP _0x14E
                 ; 0000 0737     {
                 ; 0000 0738     PORTD.3 = 1;
0009a7 9a93      	SBI  0x12,3
                 ; 0000 0739     znacznik = 1;
                +
0009a8 e021     +LDI R18 , LOW ( 1 )
0009a9 e030     +LDI R19 , HIGH ( 1 )
                 	__GETWRN 18,19,1
                 ; 0000 073A     }
                 ; 0000 073B 
                 ; 0000 073C if(PINF.1 == 0 & znacznik == 1)
                 _0x14E:
0009aa e0a0      	LDI  R26,0
0009ab 9901      	SBIC 0x0,1
0009ac e0a1      	LDI  R26,1
0009ad 940e 176e 	CALL SUBOPT_0x6D
0009af 01d9      	MOVW R26,R18
0009b0 940e 16ea 	CALL SUBOPT_0x58
0009b2 21e0      	AND  R30,R0
0009b3 f019      	BREQ _0x151
                 ; 0000 073D     {            //czekaj
                 ; 0000 073E     PORTD.3 = 0;
0009b4 9893      	CBI  0x12,3
                 ; 0000 073F     znacznik = 2;
                +
0009b5 e022     +LDI R18 , LOW ( 2 )
0009b6 e030     +LDI R19 , HIGH ( 2 )
                 	__GETWRN 18,19,2
                 ; 0000 0740     }
                 ; 0000 0741 
                 ; 0000 0742 if(znacznik == 2)
                 _0x151:
0009b7 e0e2      	LDI  R30,LOW(2)
0009b8 e0f0      	LDI  R31,HIGH(2)
0009b9 17e2      	CP   R30,R18
0009ba 07f3      	CPC  R31,R19
0009bb f421      	BRNE _0x154
                 ; 0000 0743     {
                 ; 0000 0744     licznik_impulsow_male_puchary++;
                +
0009bc 5f0f     +SUBI R16 , LOW ( - 1 )
0009bd 4f1f     +SBCI R17 , HIGH ( - 1 )
                 	__ADDWRN 16,17,1
                 ; 0000 0745     znacznik = 3;
                +
0009be e023     +LDI R18 , LOW ( 3 )
0009bf e030     +LDI R19 , HIGH ( 3 )
                 	__GETWRN 18,19,3
                 ; 0000 0746     }
                 ; 0000 0747 
                 ; 0000 0748 }
                 _0x154:
0009c0 cfdf      	RJMP _0x14B
                 _0x14D:
                 ; 0000 0749 delay_ms(500);
0009c1 940e 1768 	CALL SUBOPT_0x6C
                 ; 0000 074A PORTD.6 = 0;
0009c3 9896      	CBI  0x12,6
                 ; 0000 074B 
                 ; 0000 074C }
0009c4 940e 1af7 	CALL __LOADLOCR4
0009c6 9626      	ADIW R28,6
0009c7 9508      	RET
                 ;
                 ;
                 ;
                 ;
                 ;int ustawienia_startowe()
                 ; 0000 0752 {
                 _ustawienia_startowe:
                 ; 0000 0753 
                 ; 0000 0754 wartosci_wstepne_panelu();
0009c8 db69      	RCALL _wartosci_wstepne_panelu
                 ; 0000 0755 
                 ; 0000 0756 while(PINA.0 == 0)//brak cisnienia
                 _0x157:
0009c9 99c8      	SBIC 0x19,0
0009ca c002      	RJMP _0x159
                 ; 0000 0757     komunikat_7_na_panel();
0009cb d94d      	RCALL _komunikat_7_na_panel
0009cc cffc      	RJMP _0x157
                 _0x159:
                 ; 0000 0758 komunikat_czysc_na_panel();
0009cd d99b      	RCALL _komunikat_czysc_na_panel
                 ; 0000 0759 
                 ; 0000 075A obsluga_startowa_dozownika_kleju();
0009ce dd8f      	RCALL _obsluga_startowa_dozownika_kleju
                 ; 0000 075B komunikat_czysc_na_panel();
0009cf d999      	RCALL _komunikat_czysc_na_panel
                 ; 0000 075C komunikat_1_na_panel();
0009d0 d8ff      	RCALL _komunikat_1_na_panel
                 ; 0000 075D //obsluga_startowa_dozownika_kleju_slave();
                 ; 0000 075E komunikat_czysc_na_panel();
0009d1 d997      	RCALL _komunikat_czysc_na_panel
                 ; 0000 075F 
                 ; 0000 0760 while(PINA.4 == 1)  //jak nie widzi czujnika przenosnik pretow czyli nie wiadomo gdzie jestesmy
                 _0x15A:
0009d2 9bcc      	SBIS 0x19,4
0009d3 c002      	RJMP _0x15C
                 ; 0000 0761     PORTD.0 = 1; //silnik przenosnika pretow
0009d4 9a90      	SBI  0x12,0
0009d5 cffc      	RJMP _0x15A
                 _0x15C:
                 ; 0000 0762 przejechalem_czujnik_lub_jestem_na_nim = 1;
0009d6 940e 1715 	CALL SUBOPT_0x60
                 ; 0000 0763 
                 ; 0000 0764 
                 ; 0000 0765 
                 ; 0000 0766 PORTD.0 = 0;
0009d8 9890      	CBI  0x12,0
                 ; 0000 0767 PORTC.3 = 0;  //silownik na ktorym jest silnik dokrecajacy grzybki
0009d9 98ab      	CBI  0x15,3
                 ; 0000 0768 PORTC.1 = 0;  //silownik pobierania grzybow duzy
0009da 98a9      	CBI  0x15,1
                 ; 0000 0769 PORTC.2 = 1;  //silownik pobierania grzybow maly - droga DO grzebienie pod cinieniem
0009db 9aaa      	SBI  0x15,2
                 ; 0000 076A PORTE.2 = 0;  //silownik pobierania grzybow maly - droga OD grzebienie pod cinieniem
0009dc 981a      	CBI  0x3,2
                 ; 0000 076B PORTB.7 = 0;   //silownik dociskajacy pret na grzybkach
0009dd 98c7      	CBI  0x18,7
                 ; 0000 076C 
                 ; 0000 076D inicjalizacja_orientator_grzybkow();
0009de d89d      	RCALL _inicjalizacja_orientator_grzybkow
                 ; 0000 076E komunikat_czysc_na_panel();
0009df d989      	RCALL _komunikat_czysc_na_panel
                 ; 0000 076F komunikat_3_na_panel();
0009e0 d8ff      	RCALL _komunikat_3_na_panel
                 ; 0000 0770 
                 ; 0000 0771 while(z == 0)
                 _0x16B:
0009e1 91e0 0586 	LDS  R30,_z
0009e3 30e0      	CPI  R30,0
0009e4 f4e9      	BRNE _0x16D
                 ; 0000 0772 {
                 ; 0000 0773 //obsluga oproznienia grzybkow
                 ; 0000 0774 odpytaj_parametry_z_panelu(1);
0009e5 940e 1773 	CALL SUBOPT_0x6E
                 ; 0000 0775 if(oproznij_podajnik == 1)
0009e7 91a0 0593 	LDS  R26,_oproznij_podajnik
0009e9 91b0 0594 	LDS  R27,_oproznij_podajnik+1
0009eb 9711      	SBIW R26,1
0009ec f491      	BRNE _0x16E
                 ; 0000 0776     {
                 ; 0000 0777     delay_ms(1000);
0009ed 940e 16b1 	CALL SUBOPT_0x51
                 ; 0000 0778     PORTC.2 = 0;  //silownik pobierania grzybow maly - droga DO grzebienie pod cinieniem
0009ef 940e 1779 	CALL SUBOPT_0x6F
                 ; 0000 0779     PORTE.2 = 1;  //silownik pobierania grzybow maly - droga OD grzebienie pod cinieniem
                 ; 0000 077A     delay_ms(3000);
                 ; 0000 077B     PORTC.1 = 1;  //silownik pobierania grzybow duzy - cofamy sie
0009f1 9aa9      	SBI  0x15,1
                 ; 0000 077C     delay_ms(3000);
0009f2 ebe8      	LDI  R30,LOW(3000)
0009f3 e0fb      	LDI  R31,HIGH(3000)
0009f4 940e 1781 	CALL SUBOPT_0x70
                 ; 0000 077D     PORTC.2 = 1;  //silownik pobierania grzybow maly - droga DO grzebienie pod cinieniem
0009f6 9aaa      	SBI  0x15,2
                 ; 0000 077E     PORTE.2 = 0;  //silownik pobierania grzybow maly - droga OD grzebienie pod cinieniem
0009f7 981a      	CBI  0x3,2
                 ; 0000 077F     delay_ms(2000);
0009f8 940e 1785 	CALL SUBOPT_0x71
                 ; 0000 0780     PORTC.2 = 0;  //silownik pobierania grzybow maly - droga DO grzebienie pod cinieniem
0009fa 940e 1779 	CALL SUBOPT_0x6F
                 ; 0000 0781     PORTE.2 = 1;  //silownik pobierania grzybow maly - droga OD grzebienie pod cinieniem
                 ; 0000 0782     delay_ms(3000);
                 ; 0000 0783     PORTC.1 = 0;  //silownik pobierania grzybow duzy
0009fc 98a9      	CBI  0x15,1
                 ; 0000 0784 
                 ; 0000 0785     komunikat_9_na_panel();
0009fd d925      	RCALL _komunikat_9_na_panel
                 ; 0000 0786 
                 ; 0000 0787     /*
                 ; 0000 0788     while(1)
                 ; 0000 0789         {
                 ; 0000 078A         delay_ms(1000);
                 ; 0000 078B         PORTC.1 = 0;  //silownik pobierania grzybow duzy
                 ; 0000 078C         delay_ms(1000);
                 ; 0000 078D         PORTC.1 = 1;  //silownik pobierania grzybow duzy
                 ; 0000 078E         }
                 ; 0000 078F     */
                 ; 0000 0790 
                 ; 0000 0791     while(1);
                 _0x17F:
0009fe cfff      	RJMP _0x17F
                 ; 0000 0792         {
                 ; 0000 0793         }
                 ; 0000 0794     }
                 ; 0000 0795 
                 ; 0000 0796 //obsluga guzika start
                 ; 0000 0797 z = czekaj_na_guzik_start();
                 _0x16E:
0009ff 940e 1788 	CALL SUBOPT_0x72
                 ; 0000 0798 }
000a01 cfdf      	RJMP _0x16B
                 _0x16D:
                 ; 0000 0799 z = 0;
000a02 e0e0      	LDI  R30,LOW(0)
000a03 93e0 0586 	STS  _z,R30
                 ; 0000 079A 
                 ; 0000 079B 
                 ; 0000 079C przenies_pret_gwintowany(); //teraz mozemy spasc pierwszym pretem ze zjezdzalni
000a05 ddd0      	RCALL _przenies_pret_gwintowany
                 ; 0000 079D PORTC.5 = 1; //silownik ostatni otwarcie
000a06 9aad      	SBI  0x15,5
                 ; 0000 079E delay_ms(1000);
000a07 940e 16b1 	CALL SUBOPT_0x51
                 ; 0000 079F PORTC.5 = 0;
000a09 98ad      	CBI  0x15,5
                 ; 0000 07A0 przenies_pret_gwintowany();
000a0a ddcb      	RCALL _przenies_pret_gwintowany
                 ; 0000 07A1 delay_ms(1000);
000a0b 940e 16b1 	CALL SUBOPT_0x51
                 ; 0000 07A2 przenies_pret_gwintowany();
000a0d ddc8      	RCALL _przenies_pret_gwintowany
                 ; 0000 07A3 delay_ms(1000);
000a0e 940e 16b1 	CALL SUBOPT_0x51
                 ; 0000 07A4 przenies_pret_gwintowany();
000a10 ddc5      	RCALL _przenies_pret_gwintowany
                 ; 0000 07A5 
                 ; 0000 07A6 zajechalem = 0;
000a11 940e 167c 	CALL SUBOPT_0x4E
                 ; 0000 07A7 sekwencja = 0;
                 ; 0000 07A8 
                 ; 0000 07A9 
                 ; 0000 07AA //if(PINF.1 == 1)
                 ; 0000 07AB //    while(1)
                 ; 0000 07AC //        {
                 ; 0000 07AD //        }
                 ; 0000 07AE 
                 ; 0000 07AF while(zajechalem == 0 | zajechalem == 2 | zajechalem == 3)
                 _0x186:
000a13 940e 1671 	CALL SUBOPT_0x4C
000a15 940e 1556 	CALL SUBOPT_0x24
000a17 940e 1671 	CALL SUBOPT_0x4C
000a19 940e 16ef 	CALL SUBOPT_0x59
000a1b 2a0e      	OR   R0,R30
000a1c 940e 1671 	CALL SUBOPT_0x4C
000a1e e0e3      	LDI  R30,LOW(3)
000a1f e0f0      	LDI  R31,HIGH(3)
000a20 940e 1a27 	CALL __EQW12
000a22 29e0      	OR   R30,R0
000a23 f021      	BREQ _0x188
                 ; 0000 07B0     zajechalem = obsluga_startowa_tasmy_lancuchowej();
000a24 dd3b      	RCALL _obsluga_startowa_tasmy_lancuchowej
000a25 940e 1665 	CALL SUBOPT_0x4A
000a27 cfeb      	RJMP _0x186
                 _0x188:
                 ; 0000 07B1 zajechalem = 0;
000a28 e0e0      	LDI  R30,LOW(0)
000a29 93e0 0597 	STS  _zajechalem,R30
000a2b 93e0 0598 	STS  _zajechalem+1,R30
                 ; 0000 07B2 
                 ; 0000 07B3 /*
                 ; 0000 07B4 while(1)
                 ; 0000 07B5 {
                 ; 0000 07B6 delay_ms(1000);
                 ; 0000 07B7 delay_ms(1000);
                 ; 0000 07B8 delay_ms(1000);
                 ; 0000 07B9 delay_ms(1000);
                 ; 0000 07BA delay_ms(1000);
                 ; 0000 07BB delay_ms(1000);
                 ; 0000 07BC //sekwencna testowa
                 ; 0000 07BD przenies_pret_gwintowany();
                 ; 0000 07BE }
                 ; 0000 07BF */
                 ; 0000 07C0 
                 ; 0000 07C1 
                 ; 0000 07C2 /*
                 ; 0000 07C3 while(1)
                 ; 0000 07C4 {
                 ; 0000 07C5 if(PINA.7 == 0)
                 ; 0000 07C6     {
                 ; 0000 07C7     PORTB.5 = 1; //si³ownik ma³y chwytania prêcika - zlap
                 ; 0000 07C8     PORTB.1 = 1; //si³ownik chwytania lancy - zlap
                 ; 0000 07C9     PORTB.0 = 1; //otwarcie szczek w lancy - silownik z boku
                 ; 0000 07CA     delay_ms(1000);
                 ; 0000 07CB     PORTB.6 = 1; //silownik obrotowy na ktorym jest maly chwytajacy precik
                 ; 0000 07CC     delay_ms(1000);
                 ; 0000 07CD     PORTB.2 = 1; //wkladanie do lancy precika z grzybkiem
                 ; 0000 07CE     delay_ms(1000);
                 ; 0000 07CF     PORTB.0 = 0; //zamkniecie szczek w lancy - silownik z boku
                 ; 0000 07D0     delay_ms(500);
                 ; 0000 07D1     while(PINA.7 == 0)
                 ; 0000 07D2         {
                 ; 0000 07D3         }
                 ; 0000 07D4     }
                 ; 0000 07D5 else
                 ; 0000 07D6     {
                 ; 0000 07D7     PORTB.5 = 0; //si³ownik ma³y chwytania prêcika - pusc
                 ; 0000 07D8     delay_ms(2000);
                 ; 0000 07D9     PORTB.1 = 0; //si³ownik chwytania lancy - pusc
                 ; 0000 07DA     //PORTB.2 = 0; //wkladanie do lancy precika z grzybkiem
                 ; 0000 07DB     //PORTB.6 = 0; //silownik obrotowy na ktorym jest maly chwytajacy precik
                 ; 0000 07DC     delay_ms(2000);
                 ; 0000 07DD     }
                 ; 0000 07DE                                              //& PORTB.2 == 0 & PORTB.6 == 0
                 ; 0000 07DF if(PINF.0 == 0 & PORTB.5 == 0 & PORTB.1 == 0 & PORTB.0 == 0)  //pedal
                 ; 0000 07E0     {
                 ; 0000 07E1     PORTE.6 = 1;
                 ; 0000 07E2     delay_ms(500);
                 ; 0000 07E3     PORTE.6 = 0;
                 ; 0000 07E4     delay_ms(500);
                 ; 0000 07E5     PORTB.2 = 0; //wkladanie do lancy precika z grzybkiem
                 ; 0000 07E6     PORTB.6 = 0; //silownik obrotowy na ktorym jest maly chwytajacy precik
                 ; 0000 07E7     delay_ms(100);
                 ; 0000 07E8     }
                 ; 0000 07E9 
                 ; 0000 07EA }
                 ; 0000 07EB */
                 ; 0000 07EC 
                 ; 0000 07ED delay_ms(1000);
000a2d 940e 16b1 	CALL SUBOPT_0x51
                 ; 0000 07EE odpytaj_parametry_z_panelu(1);
000a2f 940e 1773 	CALL SUBOPT_0x6E
                 ; 0000 07EF 
                 ; 0000 07F0 //////////////////////////////////////////////
                 ; 0000 07F1 
                 ; 0000 07F2 
                 ; 0000 07F3 if(tryb_male_puchary == 1)
000a31 940e 1755 	CALL SUBOPT_0x68
000a33 9711      	SBIW R26,1
000a34 f411      	BRNE _0x189
                 ; 0000 07F4     komunikacja_startowa_male_puchary(wynik_wyboru_male_puchary);
000a35 940e 178d 	CALL SUBOPT_0x73
                 ; 0000 07F5 
                 ; 0000 07F6 PORTC.4 = 1;  //bramka grzybkow z precikiem znowu sie blokuje
                 _0x189:
000a37 9aac      	SBI  0x15,4
                 ; 0000 07F7 
                 ; 0000 07F8 return 1;
000a38 e0e1      	LDI  R30,LOW(1)
000a39 e0f0      	LDI  R31,HIGH(1)
000a3a 9508      	RET
                 ; 0000 07F9 }
                 ;
                 ;int czekaj_na_klej()
                 ; 0000 07FC {
                 _czekaj_na_klej:
                 ; 0000 07FD /*
                 ; 0000 07FE if(PINA.6 == 1)
                 ; 0000 07FF   {
                 ; 0000 0800   komunikat_8_na_panel(0); //dozownik kleju nie gotowy
                 ; 0000 0801   delay_ms(1000);
                 ; 0000 0802   klej = 0;
                 ; 0000 0803   d = 1;
                 ; 0000 0804   }
                 ; 0000 0805 */
                 ; 0000 0806 
                 ; 0000 0807 /*
                 ; 0000 0808 
                 ; 0000 0809 if(PINA.6 == 0 | PINA.6 == 1)
                 ; 0000 080A   {
                 ; 0000 080B   if(d == 1)
                 ; 0000 080C      {
                 ; 0000 080D      komunikat_czysc_na_panel();
                 ; 0000 080E      d = 0;
                 ; 0000 080F      }
                 ; 0000 0810 
                 ; 0000 0811   klej = 1;
                 ; 0000 0812   }
                 ; 0000 0813 */
                 ; 0000 0814 
                 ; 0000 0815 klej = 1;
000a3b e0e1      	LDI  R30,LOW(1)
000a3c e0f0      	LDI  R31,HIGH(1)
000a3d 940e 1795 	CALL SUBOPT_0x74
                 ; 0000 0816 return klej;
000a3f 91e0 057e 	LDS  R30,_klej
000a41 91f0 057f 	LDS  R31,_klej+1
000a43 9508      	RET
                 ; 0000 0817 }
                 ;
                 ;
                 ;int czekaj_na_odpuszczenie_szczek()
                 ; 0000 081B {
                 _czekaj_na_odpuszczenie_szczek:
                 ; 0000 081C int spr;
                 ; 0000 081D 
                 ; 0000 081E PORTE.7 = 1;//do komunikacji ¿adanie
000a44 931a      	ST   -Y,R17
000a45 930a      	ST   -Y,R16
                 ;	spr -> R16,R17
000a46 9a1f      	SBI  0x3,7
                 ; 0000 081F 
                 ; 0000 0820 //putchar1(4);  //ze dotyczy szczek
                 ; 0000 0821 //spr = getchar1();
                 ; 0000 0822 //PORTE.7 = 0;//do komunikacji koniec ¿adania
                 ; 0000 0823 
                 ; 0000 0824 if(PINF.1 == 0)
000a47 9901      	SBIC 0x0,1
000a48 c003      	RJMP _0x18E
                 ; 0000 0825     spr = 1;
                +
000a49 e001     +LDI R16 , LOW ( 1 )
000a4a e010     +LDI R17 , HIGH ( 1 )
                 	__GETWRN 16,17,1
                 ; 0000 0826 else
000a4b c002      	RJMP _0x18F
                 _0x18E:
                 ; 0000 0827    spr = 0;
                +
000a4c e000     +LDI R16 , LOW ( 0 )
000a4d e010     +LDI R17 , HIGH ( 0 )
                 	__GETWRN 16,17,0
                 ; 0000 0828 
                 ; 0000 0829 
                 ; 0000 082A if(spr == 0)
                 _0x18F:
000a4e 2e00      	MOV  R0,R16
000a4f 2a01      	OR   R0,R17
000a50 f4a9      	BRNE _0x190
                 ; 0000 082B   {
                 ; 0000 082C   if(czekaj_komunikat == 5)
000a51 91a0 05a5 	LDS  R26,_czekaj_komunikat
000a53 91b0 05a6 	LDS  R27,_czekaj_komunikat+1
000a55 9715      	SBIW R26,5
000a56 f419      	BRNE _0x191
                 ; 0000 082D         {
                 ; 0000 082E         komunikat_11_na_panel(); //monter nie nacisnal pedala
000a57 d8df      	RCALL _komunikat_11_na_panel
                 ; 0000 082F         czekaj_komunikat = 0;
000a58 940e 179a 	CALL SUBOPT_0x75
                 ; 0000 0830         }
                 ; 0000 0831   czekaj_komunikat++;
                 _0x191:
000a5a eaa5      	LDI  R26,LOW(_czekaj_komunikat)
000a5b e0b5      	LDI  R27,HIGH(_czekaj_komunikat)
000a5c 940e 1470 	CALL SUBOPT_0x4
                 ; 0000 0832   monter_slave = 0;
000a5e 940e 17a0 	CALL SUBOPT_0x76
                 ; 0000 0833   gg = 1;
000a60 e0e1      	LDI  R30,LOW(1)
000a61 e0f0      	LDI  R31,HIGH(1)
000a62 93e0 057c 	STS  _gg,R30
000a64 93f0 057d 	STS  _gg+1,R31
                 ; 0000 0834   }
                 ; 0000 0835 
                 ; 0000 0836 if(spr == 1)
                 _0x190:
000a66 e0e1      	LDI  R30,LOW(1)
000a67 e0f0      	LDI  R31,HIGH(1)
000a68 17e0      	CP   R30,R16
000a69 07f1      	CPC  R31,R17
000a6a f4a1      	BRNE _0x192
                 ; 0000 0837   {
                 ; 0000 0838   czekaj_komunikat = 0;
000a6b 940e 179a 	CALL SUBOPT_0x75
                 ; 0000 0839   if(gg == 1)
000a6d 91a0 057c 	LDS  R26,_gg
000a6f 91b0 057d 	LDS  R27,_gg+1
000a71 9711      	SBIW R26,1
000a72 f431      	BRNE _0x193
                 ; 0000 083A      {
                 ; 0000 083B      komunikat_czysc_na_panel();
000a73 d8f5      	RCALL _komunikat_czysc_na_panel
                 ; 0000 083C      gg = 0;
000a74 e0e0      	LDI  R30,LOW(0)
000a75 93e0 057c 	STS  _gg,R30
000a77 93e0 057d 	STS  _gg+1,R30
                 ; 0000 083D      }
                 ; 0000 083E 
                 ; 0000 083F   monter_slave = 1;
                 _0x193:
000a79 e0e1      	LDI  R30,LOW(1)
000a7a e0f0      	LDI  R31,HIGH(1)
000a7b 940e 17a6 	CALL SUBOPT_0x77
                 ; 0000 0840   PORTE.7 = 0;
000a7d 981f      	CBI  0x3,7
                 ; 0000 0841   PORTD.2 = 0;  //komunikacja bez rs232 KONIEC zgody na zacisniecie szczek
000a7e 9892      	CBI  0x12,2
                 ; 0000 0842   }
                 ; 0000 0843 
                 ; 0000 0844 return monter_slave;
                 _0x192:
000a7f 91e0 0582 	LDS  R30,_monter_slave
000a81 91f0 0583 	LDS  R31,_monter_slave+1
000a83 9109      	LD   R16,Y+
000a84 9119      	LD   R17,Y+
000a85 9508      	RET
                 ; 0000 0845 
                 ; 0000 0846 }
                 ;
                 ;
                 ;int czekaj_na_widzenie_puchara_przez_czujnik()
                 ; 0000 084A {
                 ; 0000 084B int spr;
                 ; 0000 084C 
                 ; 0000 084D PORTE.7 = 1;//do komunikacji ¿adanie
                 ;	spr -> R16,R17
                 ; 0000 084E putchar1(6);  //ze dotyczy czujnika widzenia puchara
                 ; 0000 084F spr = getchar1();
                 ; 0000 0850 PORTE.7 = 0;//do komunikacji koniec ¿adania
                 ; 0000 0851 
                 ; 0000 0852 if(spr == 0)
                 ; 0000 0853   {
                 ; 0000 0854   if(czekaj_komunikat == 5)
                 ; 0000 0855         {
                 ; 0000 0856         komunikat_17_na_panel(); //czujnik nie zobaczyl
                 ; 0000 0857         czekaj_komunikat = 0;
                 ; 0000 0858         }
                 ; 0000 0859   czekaj_komunikat++;
                 ; 0000 085A   //delay_ms(1000);
                 ; 0000 085B   monter_slave = 0;
                 ; 0000 085C   gg = 1;
                 ; 0000 085D   }
                 ; 0000 085E 
                 ; 0000 085F if(spr == 1)
                 ; 0000 0860   {
                 ; 0000 0861   czekaj_komunikat = 0;
                 ; 0000 0862   if(gg == 1)
                 ; 0000 0863      {
                 ; 0000 0864      komunikat_czysc_na_panel();
                 ; 0000 0865      gg = 0;
                 ; 0000 0866      }
                 ; 0000 0867 
                 ; 0000 0868   monter_slave = 1;
                 ; 0000 0869   }
                 ; 0000 086A 
                 ; 0000 086B return monter_slave;
                 ; 0000 086C 
                 ; 0000 086D }
                 ;
                 ;
                 ;
                 ;int czekaj_na_klej_slave()
                 ; 0000 0872 {
                 ; 0000 0873 int spr;
                 ; 0000 0874 
                 ; 0000 0875 PORTE.7 = 1;//do komunikacji ¿adanie
                 ;	spr -> R16,R17
                 ; 0000 0876 putchar1(1);  //ze dotyczy kleju
                 ; 0000 0877 spr = getchar1();
                 ; 0000 0878 PORTE.7 = 0;//do komunikacji koniec ¿adania
                 ; 0000 0879 
                 ; 0000 087A if(spr == 0)
                 ; 0000 087B   {
                 ; 0000 087C   komunikat_8_na_panel(1); //dozownik kleju nie gotowy
                 ; 0000 087D   delay_ms(1000);
                 ; 0000 087E   klej_slave = 0;
                 ; 0000 087F   dd = 1;
                 ; 0000 0880   }
                 ; 0000 0881 
                 ; 0000 0882 if(spr == 1)
                 ; 0000 0883   {
                 ; 0000 0884   if(dd == 1)
                 ; 0000 0885      {
                 ; 0000 0886      komunikat_czysc_na_panel();
                 ; 0000 0887      dd = 0;
                 ; 0000 0888      }
                 ; 0000 0889 
                 ; 0000 088A   klej_slave = 1;
                 ; 0000 088B   }
                 ; 0000 088C 
                 ; 0000 088D return klej_slave;
                 ; 0000 088E 
                 ; 0000 088F }
                 ;
                 ;
                 ;
                 ;int proces_0()
                 ; 0000 0894 {
                 _proces_0:
                 ; 0000 0895 int wynik;
                 ; 0000 0896 wynik = 0;
000a86 940e 149d 	CALL SUBOPT_0xB
                 ;	wynik -> R16,R17
                 ; 0000 0897 
                 ; 0000 0898 switch(proces[0])
000a88 91e0 0514 	LDS  R30,_proces
000a8a 91f0 0515 	LDS  R31,_proces+1
                 ; 0000 0899     {
                 ; 0000 089A     case 0:
000a8c 9730      	SBIW R30,0
000a8d f429      	BRNE _0x1AA
                 ; 0000 089B         proces[0] = 1;
000a8e 940e 17ab 	CALL SUBOPT_0x78
                 ; 0000 089C         zerowanie_czasu();
000a90 940e 01fe 	CALL _zerowanie_czasu
                 ; 0000 089D 
                 ; 0000 089E     break;
000a92 c0da      	RJMP _0x1A9
                 ; 0000 089F 
                 ; 0000 08A0     case 1:
                 _0x1AA:
000a93 30e1      	CPI  R30,LOW(0x1)
000a94 e0a0      	LDI  R26,HIGH(0x1)
000a95 07fa      	CPC  R31,R26
000a96 f4d9      	BRNE _0x1AB
                 ; 0000 08A1             PORTC.7 = 1;      //silownik 1 w gore
000a97 9aaf      	SBI  0x15,7
                 ; 0000 08A2             if(PINA.2 == 0 & PINA.3 == 0)  //widzi preta
000a98 940e 17b2 	CALL SUBOPT_0x79
000a9a 940e 17b6 	CALL SUBOPT_0x7A
000a9c f099      	BREQ _0x1AE
                 ; 0000 08A3                 {
                 ; 0000 08A4                 sek0_7s = 0;
000a9d e0e0      	LDI  R30,LOW(0)
000a9e 93e0 0546 	STS  _sek0_7s,R30
000aa0 93e0 0547 	STS  _sek0_7s+1,R30
000aa2 93e0 0548 	STS  _sek0_7s+2,R30
000aa4 93e0 0549 	STS  _sek0_7s+3,R30
                 ; 0000 08A5                 sek0 = 0;
000aa6 940e 17ba 	CALL SUBOPT_0x7B
                 ; 0000 08A6                 proces[0] = 2;
000aa8 e0e2      	LDI  R30,LOW(2)
000aa9 e0f0      	LDI  R31,HIGH(2)
000aaa 940e 17c4 	CALL SUBOPT_0x7C
                 ; 0000 08A7                 jest_pret_pod_czujnikami = 1;
000aac 940e 17c9 	CALL SUBOPT_0x7D
                 ; 0000 08A8                 komunikat_5_na_panel();
000aae d845      	RCALL _komunikat_5_na_panel
                 ; 0000 08A9                 }
                 ; 0000 08AA             else
000aaf c001      	RJMP _0x1AF
                 _0x1AE:
                 ; 0000 08AB                 {
                 ; 0000 08AC                 komunikat_4_na_panel();
000ab0 d839      	RCALL _komunikat_4_na_panel
                 ; 0000 08AD 
                 ; 0000 08AE                 }
                 _0x1AF:
                 ; 0000 08AF     break;
000ab1 c0bb      	RJMP _0x1A9
                 ; 0000 08B0 
                 ; 0000 08B1     case 2:
                 _0x1AB:
000ab2 30e2      	CPI  R30,LOW(0x2)
000ab3 e0a0      	LDI  R26,HIGH(0x2)
000ab4 07fa      	CPC  R31,R26
000ab5 f469      	BRNE _0x1B0
                 ; 0000 08B2             if(sek0 > 40)  //silownik 1 w dol
000ab6 940e 17d0 	CALL SUBOPT_0x7E
000ab8 940e 17d9 	CALL SUBOPT_0x7F
000aba f03c      	BRLT _0x1B1
                 ; 0000 08B3                 {
                 ; 0000 08B4                 PORTC.7 = 0;
000abb 98af      	CBI  0x15,7
                 ; 0000 08B5                 sek0 = 0;
000abc 940e 17ba 	CALL SUBOPT_0x7B
                 ; 0000 08B6                 proces[0] = 3;
000abe e0e3      	LDI  R30,LOW(3)
000abf e0f0      	LDI  R31,HIGH(3)
000ac0 940e 17c4 	CALL SUBOPT_0x7C
                 ; 0000 08B7                 }
                 ; 0000 08B8     break;
                 _0x1B1:
000ac2 c0aa      	RJMP _0x1A9
                 ; 0000 08B9     case 3:
                 _0x1B0:
000ac3 30e3      	CPI  R30,LOW(0x3)
000ac4 e0a0      	LDI  R26,HIGH(0x3)
000ac5 07fa      	CPC  R31,R26
000ac6 f459      	BRNE _0x1B4
                 ; 0000 08BA             if(sek0 > 20)  //20 13.09  //60   //40 11.23
000ac7 940e 17e1 	CALL SUBOPT_0x80
000ac9 f03c      	BRLT _0x1B5
                 ; 0000 08BB                 {
                 ; 0000 08BC                 PORTC.6 = 1; //silownik 2 w gore
000aca 9aae      	SBI  0x15,6
                 ; 0000 08BD                 sek0 = 0;
000acb 940e 17ba 	CALL SUBOPT_0x7B
                 ; 0000 08BE                 proces[0] = 4;
000acd e0e4      	LDI  R30,LOW(4)
000ace e0f0      	LDI  R31,HIGH(4)
000acf 940e 17c4 	CALL SUBOPT_0x7C
                 ; 0000 08BF                 }
                 ; 0000 08C0 
                 ; 0000 08C1     break;
                 _0x1B5:
000ad1 c09b      	RJMP _0x1A9
                 ; 0000 08C2     case 4:
                 _0x1B4:
000ad2 30e4      	CPI  R30,LOW(0x4)
000ad3 e0a0      	LDI  R26,HIGH(0x4)
000ad4 07fa      	CPC  R31,R26
000ad5 f461      	BRNE _0x1B8
                 ; 0000 08C3             if(sek0 > 20) //20 13.09  //60    //40 11.23
000ad6 940e 17e1 	CALL SUBOPT_0x80
000ad8 f044      	BRLT _0x1B9
                 ; 0000 08C4                 {
                 ; 0000 08C5                 PORTC.6 = 0; //silownik 2 w dol
000ad9 98ae      	CBI  0x15,6
                 ; 0000 08C6                 PORTB.4 = 1; //silownik pozycjonujacy na zjezdzalni wzdloz
000ada 9ac4      	SBI  0x18,4
                 ; 0000 08C7                 sek0 = 0;
000adb 940e 17ba 	CALL SUBOPT_0x7B
                 ; 0000 08C8                 proces[0] = 5;
000add e0e5      	LDI  R30,LOW(5)
000ade e0f0      	LDI  R31,HIGH(5)
000adf 940e 17c4 	CALL SUBOPT_0x7C
                 ; 0000 08C9                 }
                 ; 0000 08CA     break;
                 _0x1B9:
000ae1 c08b      	RJMP _0x1A9
                 ; 0000 08CB 
                 ; 0000 08CC     case 5:
                 _0x1B8:
000ae2 30e5      	CPI  R30,LOW(0x5)
000ae3 e0a0      	LDI  R26,HIGH(0x5)
000ae4 07fa      	CPC  R31,R26
000ae5 f469      	BRNE _0x1BE
                 ; 0000 08CD             if(sek0 > 40)       //60
000ae6 940e 17d0 	CALL SUBOPT_0x7E
000ae8 940e 17d9 	CALL SUBOPT_0x7F
000aea f03c      	BRLT _0x1BF
                 ; 0000 08CE                 {
                 ; 0000 08CF                 PORTB.4 = 0; //silownik pozycjonujacy na zjezdzalni wzdloz
000aeb 98c4      	CBI  0x18,4
                 ; 0000 08D0                 sek0 = 0;
000aec 940e 17ba 	CALL SUBOPT_0x7B
                 ; 0000 08D1                 proces[0] = 6;
000aee e0e6      	LDI  R30,LOW(6)
000aef e0f0      	LDI  R31,HIGH(6)
000af0 940e 17c4 	CALL SUBOPT_0x7C
                 ; 0000 08D2                 }
                 ; 0000 08D3 
                 ; 0000 08D4     break;
                 _0x1BF:
000af2 c07a      	RJMP _0x1A9
                 ; 0000 08D5 
                 ; 0000 08D6     case 6:
                 _0x1BE:
000af3 30e6      	CPI  R30,LOW(0x6)
000af4 e0a0      	LDI  R26,HIGH(0x6)
000af5 07fa      	CPC  R31,R26
000af6 f599      	BRNE _0x1C2
                 ; 0000 08D7             if(PINA.2 == 0 & PINA.3 == 1)    //
000af7 940e 17b2 	CALL SUBOPT_0x79
000af9 e0a0      	LDI  R26,0
000afa 99cb      	SBIC 0x19,3
000afb e0a1      	LDI  R26,1
000afc 940e 170b 	CALL SUBOPT_0x5E
000afe f021      	BREQ _0x1C3
                 ; 0000 08D8                 {
                 ; 0000 08D9                 //proces[0] = 3;
                 ; 0000 08DA                 proces[0] = 1;
000aff 940e 17ab 	CALL SUBOPT_0x78
                 ; 0000 08DB                 sek0 = 21;
000b01 940e 17ea 	CALL SUBOPT_0x81
                 ; 0000 08DC                 }
                 ; 0000 08DD 
                 ; 0000 08DE             if(PINA.2 == 1 & PINA.3 == 0)
                 _0x1C3:
000b03 e0a0      	LDI  R26,0
000b04 99ca      	SBIC 0x19,2
000b05 e0a1      	LDI  R26,1
000b06 940e 1480 	CALL SUBOPT_0x7
000b08 940e 17b6 	CALL SUBOPT_0x7A
000b0a f021      	BREQ _0x1C4
                 ; 0000 08DF                 {
                 ; 0000 08E0                 //proces[0] = 3;
                 ; 0000 08E1                 proces[0] = 1;
000b0b 940e 17ab 	CALL SUBOPT_0x78
                 ; 0000 08E2                 sek0 = 21;
000b0d 940e 17ea 	CALL SUBOPT_0x81
                 ; 0000 08E3                 }
                 ; 0000 08E4 
                 ; 0000 08E5             if(PINA.2 == 0 & PINA.3 == 0)
                 _0x1C4:
000b0f 940e 17b2 	CALL SUBOPT_0x79
000b11 940e 17b6 	CALL SUBOPT_0x7A
000b13 f031      	BREQ _0x1C5
                 ; 0000 08E6                 {
                 ; 0000 08E7                 proces[0] = 3;
000b14 e0e3      	LDI  R30,LOW(3)
000b15 e0f0      	LDI  R31,HIGH(3)
000b16 940e 17c4 	CALL SUBOPT_0x7C
                 ; 0000 08E8                 sek0 = 21;
000b18 940e 17ea 	CALL SUBOPT_0x81
                 ; 0000 08E9                 }
                 ; 0000 08EA 
                 ; 0000 08EB             if(PINA.2 == 1 & PINA.3 == 1)   //
                 _0x1C5:
000b1a e0a0      	LDI  R26,0
000b1b 99ca      	SBIC 0x19,2
000b1c e0a1      	LDI  R26,1
000b1d 940e 1480 	CALL SUBOPT_0x7
000b1f e0a0      	LDI  R26,0
000b20 99cb      	SBIC 0x19,3
000b21 e0a1      	LDI  R26,1
000b22 940e 170b 	CALL SUBOPT_0x5E
000b24 f021      	BREQ _0x1C6
                 ; 0000 08EC                 {
                 ; 0000 08ED                 proces[0] = 7;
000b25 e0e7      	LDI  R30,LOW(7)
000b26 e0f0      	LDI  R31,HIGH(7)
000b27 940e 17c4 	CALL SUBOPT_0x7C
                 ; 0000 08EE                 }
                 ; 0000 08EF 
                 ; 0000 08F0 
                 ; 0000 08F1     break;
                 _0x1C6:
000b29 c043      	RJMP _0x1A9
                 ; 0000 08F2 
                 ; 0000 08F3 
                 ; 0000 08F4     case 7:
                 _0x1C2:
000b2a 30e7      	CPI  R30,LOW(0x7)
000b2b e0a0      	LDI  R26,HIGH(0x7)
000b2c 07fa      	CPC  R31,R26
000b2d f459      	BRNE _0x1C7
                 ; 0000 08F5             if(sek0 > 20)    //60  tu byla chyba akcja jak dalem na 20, zwiekszam czas na 40, 20 bylo ok chwilowo daje 30    //30 11.23
000b2e 940e 17e1 	CALL SUBOPT_0x80
000b30 f03c      	BRLT _0x1C8
                 ; 0000 08F6                 {
                 ; 0000 08F7                 PORTC.5 = 1; //silownik 3 w gore
000b31 9aad      	SBI  0x15,5
                 ; 0000 08F8                 sek0 = 0;
000b32 940e 17ba 	CALL SUBOPT_0x7B
                 ; 0000 08F9                 proces[0] = 8;
000b34 e0e8      	LDI  R30,LOW(8)
000b35 e0f0      	LDI  R31,HIGH(8)
000b36 940e 17c4 	CALL SUBOPT_0x7C
                 ; 0000 08FA                 }
                 ; 0000 08FB     break;
                 _0x1C8:
000b38 c034      	RJMP _0x1A9
                 ; 0000 08FC 
                 ; 0000 08FD     case 8:
                 _0x1C7:
000b39 30e8      	CPI  R30,LOW(0x8)
000b3a e0a0      	LDI  R26,HIGH(0x8)
000b3b 07fa      	CPC  R31,R26
000b3c f461      	BRNE _0x1CB
                 ; 0000 08FE             if(sek0 > 20)      //60
000b3d 940e 17e1 	CALL SUBOPT_0x80
000b3f f044      	BRLT _0x1CC
                 ; 0000 08FF                 {
                 ; 0000 0900                 PORTC.5 = 0; //silownik 3 w dol
000b40 98ad      	CBI  0x15,5
                 ; 0000 0901                 PORTB.4 = 1; //silownik pozycjonujacy na zjezdzalni wzdloz
000b41 9ac4      	SBI  0x18,4
                 ; 0000 0902                 sek0 = 0;
000b42 940e 17ba 	CALL SUBOPT_0x7B
                 ; 0000 0903                 proces[0] = 9;
000b44 e0e9      	LDI  R30,LOW(9)
000b45 e0f0      	LDI  R31,HIGH(9)
000b46 940e 17c4 	CALL SUBOPT_0x7C
                 ; 0000 0904                 }
                 ; 0000 0905     break;
                 _0x1CC:
000b48 c024      	RJMP _0x1A9
                 ; 0000 0906 
                 ; 0000 0907     case 9:
                 _0x1CB:
000b49 30e9      	CPI  R30,LOW(0x9)
000b4a e0a0      	LDI  R26,HIGH(0x9)
000b4b 07fa      	CPC  R31,R26
000b4c f459      	BRNE _0x1D1
                 ; 0000 0908             if(sek0 > 50)  //10
000b4d 940e 17d0 	CALL SUBOPT_0x7E
000b4f 940e 17f7 	CALL SUBOPT_0x82
000b51 f02c      	BRLT _0x1D2
                 ; 0000 0909                {
                 ; 0000 090A                PORTB.4 = 0; //silownik pozycjonujacy na zjezdzalni wzdloz
000b52 98c4      	CBI  0x18,4
                 ; 0000 090B                proces[0] = 10;
000b53 e0ea      	LDI  R30,LOW(10)
000b54 e0f0      	LDI  R31,HIGH(10)
000b55 940e 17c4 	CALL SUBOPT_0x7C
                 ; 0000 090C                //proces[0] = 1;
                 ; 0000 090D                }
                 ; 0000 090E     break;
                 _0x1D2:
000b57 c015      	RJMP _0x1A9
                 ; 0000 090F 
                 ; 0000 0910     case 10:
                 _0x1D1:
000b58 30ea      	CPI  R30,LOW(0xA)
000b59 e0a0      	LDI  R26,HIGH(0xA)
000b5a 07fa      	CPC  R31,R26
000b5b f489      	BRNE _0x1A9
                 ; 0000 0911             //if(sek0_7s > czas_monterow)
                 ; 0000 0912             //    {
                 ; 0000 0913                 sek0 = 0;
000b5c 940e 17ba 	CALL SUBOPT_0x7B
                 ; 0000 0914                 proces[0] = 0;
000b5e e0e0      	LDI  R30,LOW(0)
000b5f 93e0 0514 	STS  _proces,R30
000b61 93e0 0515 	STS  _proces+1,R30
                 ; 0000 0915                 wynik = 1;
                +
000b63 e001     +LDI R16 , LOW ( 1 )
000b64 e010     +LDI R17 , HIGH ( 1 )
                 	__GETWRN 16,17,1
                 ; 0000 0916                 if(start == 1)  //do sytuacji startowej
000b65 e0e1      	LDI  R30,LOW(1)
000b66 e0f0      	LDI  R31,HIGH(1)
000b67 15ec      	CP   R30,R12
000b68 05fd      	CPC  R31,R13
000b69 f419      	BRNE _0x1D6
                 ; 0000 0917                     start = 2;
000b6a e0e2      	LDI  R30,LOW(2)
000b6b e0f0      	LDI  R31,HIGH(2)
000b6c 016f      	MOVW R12,R30
                 ; 0000 0918             //    }
                 ; 0000 0919 
                 ; 0000 091A     break;
                 _0x1D6:
                 ; 0000 091B     }
                 _0x1A9:
                 ; 0000 091C 
                 ; 0000 091D 
                 ; 0000 091E return wynik;
000b6d c353      	RJMP _0x20A0001
                 ; 0000 091F }
                 ;
                 ;
                 ;int proces_1()
                 ; 0000 0923 {
                 _proces_1:
                 ; 0000 0924 int wynik;
                 ; 0000 0925 wynik = 0;
000b6e 940e 149d 	CALL SUBOPT_0xB
                 ;	wynik -> R16,R17
                 ; 0000 0926 //zwrotka = 0;
                 ; 0000 0927 
                 ; 0000 0928 switch(proces[1])
                +
000b70 91e0 0516+LDS R30 , _proces + ( 2 )
000b72 91f0 0517+LDS R31 , _proces + ( 2 ) + 1
                 	__GETW1MN _proces,2
                 ; 0000 0929     {
                 ; 0000 092A     case 0:
000b74 9730      	SBIW R30,0
000b75 f471      	BRNE _0x1DA
                 ; 0000 092B         sek1_7s = 0;
000b76 e0e0      	LDI  R30,LOW(0)
000b77 93e0 054a 	STS  _sek1_7s,R30
000b79 93e0 054b 	STS  _sek1_7s+1,R30
000b7b 93e0 054c 	STS  _sek1_7s+2,R30
000b7d 93e0 054d 	STS  _sek1_7s+3,R30
                 ; 0000 092C         sek1 = 0;
000b7f 940e 17ff 	CALL SUBOPT_0x83
                 ; 0000 092D         proces[1] = 1;
000b81 940e 1804 	CALL SUBOPT_0x84
                 ; 0000 092E     break;
000b83 c04a      	RJMP _0x1D9
                 ; 0000 092F 
                 ; 0000 0930 
                 ; 0000 0931     case 1:
                 _0x1DA:
000b84 30e1      	CPI  R30,LOW(0x1)
000b85 e0a0      	LDI  R26,HIGH(0x1)
000b86 07fa      	CPC  R31,R26
000b87 f459      	BRNE _0x1DB
                 ; 0000 0932             //if(sek1 > 40)
                 ; 0000 0933             //    {
                 ; 0000 0934             //    PORTC.4 = 1;      //silownik z glowica kleju nad pret nie ma juz na razie kleju
                 ; 0000 0935             //    }
                 ; 0000 0936 
                 ; 0000 0937             if(sek1 > 60)  //150 01.08
000b88 940e 172b 	CALL SUBOPT_0x63
000b8a 940e 1809 	CALL SUBOPT_0x85
000b8c f02c      	BRLT _0x1DC
                 ; 0000 0938                 {
                 ; 0000 0939                 //lej klej
                 ; 0000 093A                 PORTE.4 = 1;  //lej klej
000b8d 9a1c      	SBI  0x3,4
                 ; 0000 093B                 sek1 = 0;
000b8e 940e 17ff 	CALL SUBOPT_0x83
                 ; 0000 093C                 proces[1] = 2;
000b90 940e 1811 	CALL SUBOPT_0x86
                 ; 0000 093D                 }
                 ; 0000 093E     break;
                 _0x1DC:
000b92 c03b      	RJMP _0x1D9
                 ; 0000 093F 
                 ; 0000 0940     case 2:
                 _0x1DB:
000b93 30e2      	CPI  R30,LOW(0x2)
000b94 e0a0      	LDI  R26,HIGH(0x2)
000b95 07fa      	CPC  R31,R26
000b96 f459      	BRNE _0x1DF
                 ; 0000 0941             if(sek1 > 30) //100
000b97 940e 172b 	CALL SUBOPT_0x63
000b99 940e 1816 	CALL SUBOPT_0x87
000b9b f02c      	BRLT _0x1E0
                 ; 0000 0942                 {
                 ; 0000 0943                 //przestan lac klej
                 ; 0000 0944                 PORTE.4 = 0;  //lej klej
000b9c 981c      	CBI  0x3,4
                 ; 0000 0945                 sek1 = 0;
000b9d 940e 17ff 	CALL SUBOPT_0x83
                 ; 0000 0946                 proces[1] = 3;
000b9f 940e 181e 	CALL SUBOPT_0x88
                 ; 0000 0947                 }
                 ; 0000 0948     break;
                 _0x1E0:
000ba1 c02c      	RJMP _0x1D9
                 ; 0000 0949     case 3:
                 _0x1DF:
000ba2 30e3      	CPI  R30,LOW(0x3)
000ba3 e0a0      	LDI  R26,HIGH(0x3)
000ba4 07fa      	CPC  R31,R26
000ba5 f451      	BRNE _0x1E3
                 ; 0000 094A             if(sek1 > 50)
000ba6 940e 172b 	CALL SUBOPT_0x63
000ba8 940e 17f7 	CALL SUBOPT_0x82
000baa f024      	BRLT _0x1E4
                 ; 0000 094B                 {
                 ; 0000 094C                 //PORTC.4 = 0; //cofnij silownik z klejem  //nie ma juz na razie kleju
                 ; 0000 094D                 sek1 = 0;
000bab 940e 17ff 	CALL SUBOPT_0x83
                 ; 0000 094E                 proces[1] = 4;
000bad 940e 1823 	CALL SUBOPT_0x89
                 ; 0000 094F                 }
                 ; 0000 0950 
                 ; 0000 0951     break;
                 _0x1E4:
000baf c01e      	RJMP _0x1D9
                 ; 0000 0952     case 4:
                 _0x1E3:
000bb0 30e4      	CPI  R30,LOW(0x4)
000bb1 e0a0      	LDI  R26,HIGH(0x4)
000bb2 07fa      	CPC  R31,R26
000bb3 f451      	BRNE _0x1E5
                 ; 0000 0953             if(sek1 > 50)  //czekaj az sie cofnie
000bb4 940e 172b 	CALL SUBOPT_0x63
000bb6 940e 17f7 	CALL SUBOPT_0x82
000bb8 f024      	BRLT _0x1E6
                 ; 0000 0954                 proces[1] = 5;
                +
000bb9 e1e6     +LDI R30 , LOW ( _proces + ( 2 ) )
000bba e0f5     +LDI R31 , HIGH ( _proces + ( 2 ) )
                 	__POINTW1MN _proces,2
000bbb 940e 1828 	CALL SUBOPT_0x8A
                 ; 0000 0955 
                 ; 0000 0956     break;
                 _0x1E6:
000bbd c010      	RJMP _0x1D9
                 ; 0000 0957 
                 ; 0000 0958     case 5:
                 _0x1E5:
000bbe 30e5      	CPI  R30,LOW(0x5)
000bbf e0a0      	LDI  R26,HIGH(0x5)
000bc0 07fa      	CPC  R31,R26
000bc1 f461      	BRNE _0x1D9
                 ; 0000 0959             //if(sek1_7s > czas_monterow)
                 ; 0000 095A             //    {
                 ; 0000 095B                 sek1 = 0;
000bc2 940e 17ff 	CALL SUBOPT_0x83
                 ; 0000 095C                 proces[1] = 0;
000bc4 940e 182d 	CALL SUBOPT_0x8B
                 ; 0000 095D                 wynik = 1;
                 ; 0000 095E                 if(start == 3)  //do sytuacji startowej
000bc6 e0e3      	LDI  R30,LOW(3)
000bc7 e0f0      	LDI  R31,HIGH(3)
000bc8 15ec      	CP   R30,R12
000bc9 05fd      	CPC  R31,R13
000bca f419      	BRNE _0x1E8
                 ; 0000 095F                     start = 4;
000bcb e0e4      	LDI  R30,LOW(4)
000bcc e0f0      	LDI  R31,HIGH(4)
000bcd 016f      	MOVW R12,R30
                 ; 0000 0960             //    }
                 ; 0000 0961 
                 ; 0000 0962     break;
                 _0x1E8:
                 ; 0000 0963     }
                 _0x1D9:
                 ; 0000 0964 
                 ; 0000 0965 
                 ; 0000 0966 
                 ; 0000 0967 
                 ; 0000 0968 return wynik;
000bce c2f2      	RJMP _0x20A0001
                 ; 0000 0969 }
                 ;
                 ;
                 ;// wersja fast ale koliduje to ze przenosze pret na poczotku
                 ;int proces_2()
                 ; 0000 096E {
                 _proces_2:
                 ; 0000 096F int wynik;
                 ; 0000 0970 wynik = 0;
000bcf 940e 149d 	CALL SUBOPT_0xB
                 ;	wynik -> R16,R17
                 ; 0000 0971 
                 ; 0000 0972 switch(proces[2])
                +
000bd1 91e0 0518+LDS R30 , _proces + ( 4 )
000bd3 91f0 0519+LDS R31 , _proces + ( 4 ) + 1
                 	__GETW1MN _proces,4
                 ; 0000 0973     {
                 ; 0000 0974     case 0:
000bd5 9730      	SBIW R30,0
000bd6 f491      	BRNE _0x1EC
                 ; 0000 0975         sek2_7s = 0;
000bd7 e0e0      	LDI  R30,LOW(0)
000bd8 93e0 054e 	STS  _sek2_7s,R30
000bda 93e0 054f 	STS  _sek2_7s+1,R30
000bdc 93e0 0550 	STS  _sek2_7s+2,R30
000bde 93e0 0551 	STS  _sek2_7s+3,R30
                 ; 0000 0976         sek2 = 0;
000be0 940e 1834 	CALL SUBOPT_0x8C
                 ; 0000 0977         PORTB.3 = 0; //silownik dociskajacy grzybki - na wszelki wypadek w gore gdyby nie byl
000be2 98c3      	CBI  0x18,3
                 ; 0000 0978         PORTC.2 = 0; //maly silownik grzybka - droga DO grzebieni
000be3 98aa      	CBI  0x15,2
                 ; 0000 0979         proces[2] = 1;
                +
000be4 e1e8     +LDI R30 , LOW ( _proces + ( 4 ) )
000be5 e0f5     +LDI R31 , HIGH ( _proces + ( 4 ) )
                 	__POINTW1MN _proces,4
000be6 940e 1804 	CALL SUBOPT_0x84
                 ; 0000 097A     break;
000be8 c12f      	RJMP _0x1EB
                 ; 0000 097B 
                 ; 0000 097C     case 1:
                 _0x1EC:
000be9 30e1      	CPI  R30,LOW(0x1)
000bea e0a0      	LDI  R26,HIGH(0x1)
000beb 07fa      	CPC  R31,R26
000bec f491      	BRNE _0x1F1
                 ; 0000 097D             if(sek2 > 1)
000bed 940e 183e 	CALL SUBOPT_0x8D
                +
000bef 30a2     +CPI R26 , LOW ( 0x2 )
000bf0 e0e0     +LDI R30 , HIGH ( 0x2 )
000bf1 07be     +CPC R27 , R30
000bf2 e0e0     +LDI R30 , BYTE3 ( 0x2 )
000bf3 078e     +CPC R24 , R30
000bf4 e0e0     +LDI R30 , BYTE4 ( 0x2 )
000bf5 079e     +CPC R25 , R30
                 	__CPD2N 0x2
000bf6 f03c      	BRLT _0x1F2
                 ; 0000 097E                 {
                 ; 0000 097F                 PORTE.2 = 1; //wroc malym silownik grzybka
000bf7 9a1a      	SBI  0x3,2
                 ; 0000 0980                 sek2 = 0;
000bf8 940e 1834 	CALL SUBOPT_0x8C
                 ; 0000 0981                 proces[2] = 2;
                +
000bfa e1e8     +LDI R30 , LOW ( _proces + ( 4 ) )
000bfb e0f5     +LDI R31 , HIGH ( _proces + ( 4 ) )
                 	__POINTW1MN _proces,4
000bfc 940e 1811 	CALL SUBOPT_0x86
                 ; 0000 0982                 }
                 ; 0000 0983     break;
                 _0x1F2:
000bfe c119      	RJMP _0x1EB
                 ; 0000 0984 
                 ; 0000 0985     case 2:
                 _0x1F1:
000bff 30e2      	CPI  R30,LOW(0x2)
000c00 e0a0      	LDI  R26,HIGH(0x2)
000c01 07fa      	CPC  R31,R26
000c02 f4c1      	BRNE _0x1F5
                 ; 0000 0986 
                 ; 0000 0987             if(metalowe_grzybki == 1)
000c03 91a0 0595 	LDS  R26,_metalowe_grzybki
000c05 91b0 0596 	LDS  R27,_metalowe_grzybki+1
000c07 9711      	SBIW R26,1
000c08 f421      	BRNE _0x1F6
                 ; 0000 0988                 {
                 ; 0000 0989                 grzybek_biezacy_dokrecony = 1;
000c09 940e 1847 	CALL SUBOPT_0x8E
                 ; 0000 098A                 sek2 = 0;
                 ; 0000 098B                 proces[2] = 9;
000c0b 940e 184e 	CALL SUBOPT_0x8F
                 ; 0000 098C                 }
                 ; 0000 098D 
                 ; 0000 098E             if(sek2 > 10)  //30
                 _0x1F6:
000c0d 940e 183e 	CALL SUBOPT_0x8D
000c0f 940e 1855 	CALL SUBOPT_0x90
000c11 f044      	BRLT _0x1F7
                 ; 0000 098F                 {
                 ; 0000 0990                 PORTC.1 = 1; //wroc duzym pobieraniem grzybka
000c12 9aa9      	SBI  0x15,1
                 ; 0000 0991                 PORTB.7 = 1; //docisnij preta
000c13 9ac7      	SBI  0x18,7
                 ; 0000 0992                 sek2 = 0;
000c14 940e 1834 	CALL SUBOPT_0x8C
                 ; 0000 0993                 proces[2] = 3;
                +
000c16 e1e8     +LDI R30 , LOW ( _proces + ( 4 ) )
000c17 e0f5     +LDI R31 , HIGH ( _proces + ( 4 ) )
                 	__POINTW1MN _proces,4
000c18 940e 181e 	CALL SUBOPT_0x88
                 ; 0000 0994                 }
                 ; 0000 0995     break;
                 _0x1F7:
000c1a c0fd      	RJMP _0x1EB
                 ; 0000 0996 
                 ; 0000 0997 
                 ; 0000 0998     case 3:
                 _0x1F5:
000c1b 30e3      	CPI  R30,LOW(0x3)
000c1c e0a0      	LDI  R26,HIGH(0x3)
000c1d 07fa      	CPC  R31,R26
000c1e f4a1      	BRNE _0x1FC
                 ; 0000 0999             if(sek2 > 50)  //30   bylo ale stukalo, zwolnie
000c1f 940e 183e 	CALL SUBOPT_0x8D
000c21 940e 17f7 	CALL SUBOPT_0x82
000c23 f074      	BRLT _0x1FD
                 ; 0000 099A                 {
                 ; 0000 099B                 PORTC.1 = 0; //pobierz grzybek
000c24 98a9      	CBI  0x15,1
                 ; 0000 099C                 il_grzybkow--;
000c25 e8a9      	LDI  R26,LOW(_il_grzybkow)
000c26 e0b5      	LDI  R27,HIGH(_il_grzybkow)
000c27 91ed      	LD   R30,X+
000c28 91fd      	LD   R31,X+
000c29 9731      	SBIW R30,1
000c2a 93fe      	ST   -X,R31
000c2b 93ee      	ST   -X,R30
                 ; 0000 099D                 sek2 = 0;
000c2c 940e 1834 	CALL SUBOPT_0x8C
                 ; 0000 099E                 proces[2] = 4;
                +
000c2e e1e8     +LDI R30 , LOW ( _proces + ( 4 ) )
000c2f e0f5     +LDI R31 , HIGH ( _proces + ( 4 ) )
                 	__POINTW1MN _proces,4
000c30 940e 1823 	CALL SUBOPT_0x89
                 ; 0000 099F                 }
                 ; 0000 09A0     break;
                 _0x1FD:
000c32 c0e5      	RJMP _0x1EB
                 ; 0000 09A1 
                 ; 0000 09A2     case 4:
                 _0x1FC:
000c33 30e4      	CPI  R30,LOW(0x4)
000c34 e0a0      	LDI  R26,HIGH(0x4)
000c35 07fa      	CPC  R31,R26
000c36 f439      	BRNE _0x200
                 ; 0000 09A3             //if(PINA.4 == 0 | )  //upewnij sie ze grzebienie na dole
                 ; 0000 09A4             //    {
                 ; 0000 09A5                 //PORTB.7 = 1; //docisnij preta
                 ; 0000 09A6                 sek2 = 0;
000c37 940e 1834 	CALL SUBOPT_0x8C
                 ; 0000 09A7                 proces[2] = 5;
                +
000c39 e1e8     +LDI R30 , LOW ( _proces + ( 4 ) )
000c3a e0f5     +LDI R31 , HIGH ( _proces + ( 4 ) )
                 	__POINTW1MN _proces,4
000c3b 940e 1828 	CALL SUBOPT_0x8A
                 ; 0000 09A8             //    }
                 ; 0000 09A9     break;
000c3d c0da      	RJMP _0x1EB
                 ; 0000 09AA 
                 ; 0000 09AB 
                 ; 0000 09AC     case 5:
                 _0x200:
000c3e 30e5      	CPI  R30,LOW(0x5)
000c3f e0a0      	LDI  R26,HIGH(0x5)
000c40 07fa      	CPC  R31,R26
000c41 f481      	BRNE _0x201
                 ; 0000 09AD             if(sek2 > 20)  //70
000c42 940e 183e 	CALL SUBOPT_0x8D
000c44 940e 185d 	CALL SUBOPT_0x91
000c46 f054      	BRLT _0x202
                 ; 0000 09AE                 {
                 ; 0000 09AF                 PORTB.3 = 1;   //docisnij grzybek z gory
000c47 9ac3      	SBI  0x18,3
                 ; 0000 09B0                 PORTE.2 = 0;  //maly silownik grzybka na luz
000c48 981a      	CBI  0x3,2
                 ; 0000 09B1                 grzybek_biezacy_dokrecony = 0;
000c49 940e 1865 	CALL SUBOPT_0x92
                 ; 0000 09B2                 sek2 = 0;
                 ; 0000 09B3                 proces[2] = 6;
                +
000c4b e1e8     +LDI R30 , LOW ( _proces + ( 4 ) )
000c4c e0f5     +LDI R31 , HIGH ( _proces + ( 4 ) )
                 	__POINTW1MN _proces,4
000c4d e0a6      	LDI  R26,LOW(6)
000c4e e0b0      	LDI  R27,HIGH(6)
000c4f 83a0      	STD  Z+0,R26
000c50 83b1      	STD  Z+1,R27
                 ; 0000 09B4                 }
                 ; 0000 09B5     break;
                 _0x202:
000c51 c0c6      	RJMP _0x1EB
                 ; 0000 09B6 
                 ; 0000 09B7     case 6:
                 _0x201:
000c52 30e6      	CPI  R30,LOW(0x6)
000c53 e0a0      	LDI  R26,HIGH(0x6)
000c54 07fa      	CPC  R31,R26
000c55 f481      	BRNE _0x207
                 ; 0000 09B8             if(sek2 > 40)  //30
000c56 940e 183e 	CALL SUBOPT_0x8D
000c58 940e 17d9 	CALL SUBOPT_0x7F
000c5a f054      	BRLT _0x208
                 ; 0000 09B9                 {
                 ; 0000 09BA 
                 ; 0000 09BB                 //while(1)
                 ; 0000 09BC                 //    {
                 ; 0000 09BD                 //    }
                 ; 0000 09BE 
                 ; 0000 09BF                 PORTD.1 = 1;  //silnik dokrecajacy grzybki
000c5b 9a91      	SBI  0x12,1
                 ; 0000 09C0                 PORTC.3 = 1; //przysun silnik
000c5c 9aab      	SBI  0x15,3
                 ; 0000 09C1                 sek2 = 0;
000c5d 940e 1834 	CALL SUBOPT_0x8C
                 ; 0000 09C2                 proces[2] = 7;
                +
000c5f e1e8     +LDI R30 , LOW ( _proces + ( 4 ) )
000c60 e0f5     +LDI R31 , HIGH ( _proces + ( 4 ) )
                 	__POINTW1MN _proces,4
000c61 e0a7      	LDI  R26,LOW(7)
000c62 e0b0      	LDI  R27,HIGH(7)
000c63 83a0      	STD  Z+0,R26
000c64 83b1      	STD  Z+1,R27
                 ; 0000 09C3                 }
                 ; 0000 09C4 
                 ; 0000 09C5     break;
                 _0x208:
000c65 c0b2      	RJMP _0x1EB
                 ; 0000 09C6     /*
                 ; 0000 09C7     case 7:
                 ; 0000 09C8 
                 ; 0000 09C9             if(PINF.5 == 0)
                 ; 0000 09CA                 grzybek_biezacy_dokrecony = 1;
                 ; 0000 09CB 
                 ; 0000 09CC             if(sek2 > czas_silnika_dokrecajacego_grzybki)       //maks 200, min 20
                 ; 0000 09CD                 {
                 ; 0000 09CE                 PORTB.3 = 0;   //silownik dociskajacy grzybek z gory
                 ; 0000 09CF                 PORTD.1 = 0;  //silnik dokrecajacy grzybki
                 ; 0000 09D0                 }
                 ; 0000 09D1 
                 ; 0000 09D2              if(sek2 > czas_silnika_dokrecajacego_grzybki+10)
                 ; 0000 09D3                 {
                 ; 0000 09D4                 PORTC.3 = 0; //odsun silnik
                 ; 0000 09D5                 PORTC.2 = 1; //maly silownik grzybka - droga DO grzebieni
                 ; 0000 09D6                 sek2 = 0;
                 ; 0000 09D7                 proces[2] = 8;
                 ; 0000 09D8                 }
                 ; 0000 09D9 
                 ; 0000 09DA 
                 ; 0000 09DB     break;
                 ; 0000 09DC     */
                 ; 0000 09DD     case 7:
                 _0x207:
000c66 30e7      	CPI  R30,LOW(0x7)
000c67 e0a0      	LDI  R26,HIGH(0x7)
000c68 07fa      	CPC  R31,R26
000c69 f5c1      	BRNE _0x20D
                 ; 0000 09DE 
                 ; 0000 09DF             if(PINF.5 == 0 & grzybek_biezacy_dokrecony == 0)
000c6a e0a0      	LDI  R26,0
000c6b 9905      	SBIC 0x0,5
000c6c e0a1      	LDI  R26,1
000c6d 940e 176e 	CALL SUBOPT_0x6D
000c6f 940e 186b 	CALL SUBOPT_0x93
000c71 940e 16e5 	CALL SUBOPT_0x57
000c73 21e0      	AND  R30,R0
000c74 f011      	BREQ _0x20E
                 ; 0000 09E0                 {
                 ; 0000 09E1                 grzybek_biezacy_dokrecony = 1;
000c75 940e 1847 	CALL SUBOPT_0x8E
                 ; 0000 09E2                 sek2 = 0;
                 ; 0000 09E3                 }
                 ; 0000 09E4 
                 ; 0000 09E5             //if(grzybek_biezacy_dokrecony == 1 & sek2 >= (czas_silnika_dokrecajacego_grzybki - 5))
                 ; 0000 09E6 
                 ; 0000 09E7 
                 ; 0000 09E8             if(grzybek_biezacy_dokrecony == 1 & sek2 >= czas_silnika_dokrecajacego_grzybki)
                 _0x20E:
000c77 940e 1870 	CALL SUBOPT_0x94
000c79 2e0e      	MOV  R0,R30
000c7a 91e0 052e 	LDS  R30,_czas_silnika_dokrecajacego_grzybki
000c7c 91f0 052f 	LDS  R31,_czas_silnika_dokrecajacego_grzybki+1
000c7e 940e 183e 	CALL SUBOPT_0x8D
000c80 940e 1a18 	CALL __CWD1
000c82 940e 1a45 	CALL __GED12
000c84 21e0      	AND  R30,R0
000c85 f031      	BREQ _0x20F
                 ; 0000 09E9                 {
                 ; 0000 09EA                 PORTB.3 = 0;   //silownik dociskajacy grzybek z gory
000c86 98c3      	CBI  0x18,3
                 ; 0000 09EB                 PORTD.1 = 0;  //silnik dokrecajacy grzybki
000c87 9891      	CBI  0x12,1
                 ; 0000 09EC                 sek2 = 0;
000c88 940e 1834 	CALL SUBOPT_0x8C
                 ; 0000 09ED                 proces[2] = 8;
000c8a 940e 1872 	CALL SUBOPT_0x95
                 ; 0000 09EE                 }
                 ; 0000 09EF 
                 ; 0000 09F0             if(sek2 > czas_silnika_dokrecajacego_grzybki_stala)       //maks 200, min 20
                 _0x20F:
000c8c 91e0 0530 	LDS  R30,_czas_silnika_dokrecajacego_grzybki_stala
000c8e 91f0 0531 	LDS  R31,_czas_silnika_dokrecajacego_grzybki_stala+1
000c90 940e 183e 	CALL SUBOPT_0x8D
000c92 940e 1a18 	CALL __CWD1
000c94 940e 1ae9 	CALL __CPD12
000c96 f454      	BRGE _0x214
                 ; 0000 09F1                 {
                 ; 0000 09F2                 PORTB.3 = 0;   //silownik dociskajacy grzybek z gory
000c97 98c3      	CBI  0x18,3
                 ; 0000 09F3                 PORTD.1 = 0;  //silnik dokrecajacy grzybki
000c98 9891      	CBI  0x12,1
                 ; 0000 09F4                 licznik_niezakreconych_grzybkow++;
000c99 eaa9      	LDI  R26,LOW(_licznik_niezakreconych_grzybkow)
000c9a e0b5      	LDI  R27,HIGH(_licznik_niezakreconych_grzybkow)
000c9b 940e 1470 	CALL SUBOPT_0x4
                 ; 0000 09F5                 grzybek_biezacy_dokrecony = 0;
000c9d 940e 1865 	CALL SUBOPT_0x92
                 ; 0000 09F6                 sek2 = 0;
                 ; 0000 09F7                 proces[2] = 8;
000c9f 940e 1872 	CALL SUBOPT_0x95
                 ; 0000 09F8                 }
                 ; 0000 09F9 
                 ; 0000 09FA 
                 ; 0000 09FB     break;
                 _0x214:
000ca1 c076      	RJMP _0x1EB
                 ; 0000 09FC 
                 ; 0000 09FD     case 8:
                 _0x20D:
000ca2 30e8      	CPI  R30,LOW(0x8)
000ca3 e0a0      	LDI  R26,HIGH(0x8)
000ca4 07fa      	CPC  R31,R26
000ca5 f5a9      	BRNE _0x219
                 ; 0000 09FE              if(sek2 > 0 & grzybek_biezacy_dokrecony == 1)   //NOWE 18.09.2018
000ca6 940e 1879 	CALL SUBOPT_0x96
000ca8 940e 1870 	CALL SUBOPT_0x94
000caa 21e0      	AND  R30,R0
000cab f009      	BREQ _0x21A
                 ; 0000 09FF                  PORTC.2 = 1; //maly silownik grzybka - droga DO grzebieni
000cac 9aaa      	SBI  0x15,2
                 ; 0000 0A00              if(sek2 > 0 & grzybek_biezacy_dokrecony == 0)   //NOWE 18.09.2018
                 _0x21A:
000cad 940e 1879 	CALL SUBOPT_0x96
000caf 940e 186b 	CALL SUBOPT_0x93
000cb1 940e 16e5 	CALL SUBOPT_0x57
000cb3 21e0      	AND  R30,R0
000cb4 f009      	BREQ _0x21D
                 ; 0000 0A01                  PORTC.2 = 1; //maly silownik grzybka - droga DO grzebieni
000cb5 9aaa      	SBI  0x15,2
                 ; 0000 0A02 
                 ; 0000 0A03              if(sek2 > 5 & grzybek_biezacy_dokrecony == 1)
                 _0x21D:
000cb6 940e 183e 	CALL SUBOPT_0x8D
000cb8 940e 1734 	CALL SUBOPT_0x64
000cba 2e0e      	MOV  R0,R30
000cbb 940e 1870 	CALL SUBOPT_0x94
000cbd 21e0      	AND  R30,R0
000cbe f041      	BREQ _0x220
                 ; 0000 0A04                 {
                 ; 0000 0A05                 //PORTC.3 = 0; //odsun silnik
                 ; 0000 0A06                 PORTB.7 = 0; //przestan dociskac pret////////
000cbf 940e 1882 	CALL SUBOPT_0x97
                 ; 0000 0A07                 //PORTC.2 = 1; //maly silownik grzybka - droga DO grzebieni
                 ; 0000 0A08                 if(sek2 > 13)
000cc1 f02c      	BRLT _0x223
                 ; 0000 0A09                     {
                 ; 0000 0A0A                     PORTB.7 = 1;  //docisnij pret
000cc2 9ac7      	SBI  0x18,7
                 ; 0000 0A0B                     sek2 = 0;
000cc3 940e 1834 	CALL SUBOPT_0x8C
                 ; 0000 0A0C                     proces[2] = 9;
000cc5 940e 184e 	CALL SUBOPT_0x8F
                 ; 0000 0A0D                     }
                 ; 0000 0A0E                 }
                 _0x223:
                 ; 0000 0A0F 
                 ; 0000 0A10              if(sek2 > 5 & grzybek_biezacy_dokrecony == 0)
                 _0x220:
000cc7 940e 183e 	CALL SUBOPT_0x8D
000cc9 940e 1734 	CALL SUBOPT_0x64
000ccb 2e0e      	MOV  R0,R30
000ccc 940e 186b 	CALL SUBOPT_0x93
000cce 940e 16e5 	CALL SUBOPT_0x57
000cd0 21e0      	AND  R30,R0
000cd1 f041      	BREQ _0x226
                 ; 0000 0A11                 {
                 ; 0000 0A12                 //PORTC.3 = 0; //odsun silnik
                 ; 0000 0A13                 PORTB.7 = 0; //przestan dociskac pret////////
000cd2 940e 1882 	CALL SUBOPT_0x97
                 ; 0000 0A14                 //PORTC.2 = 1; //maly silownik grzybka - droga DO grzebieni
                 ; 0000 0A15                 if(sek2 > 13)
000cd4 f02c      	BRLT _0x229
                 ; 0000 0A16                     {
                 ; 0000 0A17                     PORTB.7 = 1;    //docisnij pret
000cd5 9ac7      	SBI  0x18,7
                 ; 0000 0A18                     sek2 = 0;
000cd6 940e 1834 	CALL SUBOPT_0x8C
                 ; 0000 0A19                     proces[2] = 9;
000cd8 940e 184e 	CALL SUBOPT_0x8F
                 ; 0000 0A1A                     }
                 ; 0000 0A1B                 }
                 _0x229:
                 ; 0000 0A1C 
                 ; 0000 0A1D 
                 ; 0000 0A1E 
                 ; 0000 0A1F     break;
                 _0x226:
000cda c03d      	RJMP _0x1EB
                 ; 0000 0A20 
                 ; 0000 0A21 
                 ; 0000 0A22     case 9:
                 _0x219:
000cdb 30e9      	CPI  R30,LOW(0x9)
000cdc e0a0      	LDI  R26,HIGH(0x9)
000cdd 07fa      	CPC  R31,R26
000cde f4f9      	BRNE _0x22C
                 ; 0000 0A23             if(sek2 > 5)
000cdf 940e 183e 	CALL SUBOPT_0x8D
                +
000ce1 30a6     +CPI R26 , LOW ( 0x6 )
000ce2 e0e0     +LDI R30 , HIGH ( 0x6 )
000ce3 07be     +CPC R27 , R30
000ce4 e0e0     +LDI R30 , BYTE3 ( 0x6 )
000ce5 078e     +CPC R24 , R30
000ce6 e0e0     +LDI R30 , BYTE4 ( 0x6 )
000ce7 079e     +CPC R25 , R30
                 	__CPD2N 0x6
000ce8 f0a4      	BRLT _0x22D
                 ; 0000 0A24                 {
                 ; 0000 0A25                 PORTC.3 = 0; //odsun silnik
000ce9 98ab      	CBI  0x15,3
                 ; 0000 0A26                 if(sek2 > 33)    //zmieniam 5 na 30 zeby trzymalo dluzej az odjedzie silnik
000cea 940e 183e 	CALL SUBOPT_0x8D
                +
000cec 32a2     +CPI R26 , LOW ( 0x22 )
000ced e0e0     +LDI R30 , HIGH ( 0x22 )
000cee 07be     +CPC R27 , R30
000cef e0e0     +LDI R30 , BYTE3 ( 0x22 )
000cf0 078e     +CPC R24 , R30
000cf1 e0e0     +LDI R30 , BYTE4 ( 0x22 )
000cf2 079e     +CPC R25 , R30
                 	__CPD2N 0x22
000cf3 f04c      	BRLT _0x230
                 ; 0000 0A27                     {
                 ; 0000 0A28                     PORTB.7 = 0; //pusc preta
000cf4 98c7      	CBI  0x18,7
                 ; 0000 0A29                     sek2 = 0;
000cf5 940e 1834 	CALL SUBOPT_0x8C
                 ; 0000 0A2A                     proces[2] = 10;
                +
000cf7 e1e8     +LDI R30 , LOW ( _proces + ( 4 ) )
000cf8 e0f5     +LDI R31 , HIGH ( _proces + ( 4 ) )
                 	__POINTW1MN _proces,4
000cf9 e0aa      	LDI  R26,LOW(10)
000cfa e0b0      	LDI  R27,HIGH(10)
000cfb 83a0      	STD  Z+0,R26
000cfc 83b1      	STD  Z+1,R27
                 ; 0000 0A2B                     }
                 ; 0000 0A2C                 }
                 _0x230:
                 ; 0000 0A2D     break;
                 _0x22D:
000cfd c01a      	RJMP _0x1EB
                 ; 0000 0A2E 
                 ; 0000 0A2F     case 10:
                 _0x22C:
000cfe 30ea      	CPI  R30,LOW(0xA)
000cff e0a0      	LDI  R26,HIGH(0xA)
000d00 07fa      	CPC  R31,R26
000d01 f4b1      	BRNE _0x1EB
                 ; 0000 0A30             //if(sek2_7s > czas_monterow)
                 ; 0000 0A31             //    {
                 ; 0000 0A32                 grzybek_dokrecony = grzybek_biezacy_dokrecony;
000d02 91e0 058f 	LDS  R30,_grzybek_biezacy_dokrecony
000d04 91f0 0590 	LDS  R31,_grzybek_biezacy_dokrecony+1
000d06 93e0 0591 	STS  _grzybek_dokrecony,R30
000d08 93f0 0592 	STS  _grzybek_dokrecony+1,R31
                 ; 0000 0A33                 sek2 = 0;
000d0a 940e 1834 	CALL SUBOPT_0x8C
                 ; 0000 0A34                 proces[2] = 0;
                +
000d0c e1e8     +LDI R30 , LOW ( _proces + ( 4 ) )
000d0d e0f5     +LDI R31 , HIGH ( _proces + ( 4 ) )
                 	__POINTW1MN _proces,4
000d0e 940e 182d 	CALL SUBOPT_0x8B
                 ; 0000 0A35                 wynik = 1;
                 ; 0000 0A36                 if(start == 5)  //do sytuacji startowej
000d10 e0e5      	LDI  R30,LOW(5)
000d11 e0f0      	LDI  R31,HIGH(5)
000d12 15ec      	CP   R30,R12
000d13 05fd      	CPC  R31,R13
000d14 f419      	BRNE _0x234
                 ; 0000 0A37                     start = 6;
000d15 e0e6      	LDI  R30,LOW(6)
000d16 e0f0      	LDI  R31,HIGH(6)
000d17 016f      	MOVW R12,R30
                 ; 0000 0A38             //    }
                 ; 0000 0A39 
                 ; 0000 0A3A     break;
                 _0x234:
                 ; 0000 0A3B     }
                 _0x1EB:
                 ; 0000 0A3C 
                 ; 0000 0A3D 
                 ; 0000 0A3E 
                 ; 0000 0A3F 
                 ; 0000 0A40 return wynik;
000d18 c1a8      	RJMP _0x20A0001
                 ; 0000 0A41 }
                 ;
                 ;int proces_3()
                 ; 0000 0A44 {
                 _proces_3:
                 ; 0000 0A45 int wynik;
                 ; 0000 0A46 wynik = 0;
000d19 940e 149d 	CALL SUBOPT_0xB
                 ;	wynik -> R16,R17
                 ; 0000 0A47 
                 ; 0000 0A48 switch(proces[3])
                +
000d1b 91e0 051a+LDS R30 , _proces + ( 6 )
000d1d 91f0 051b+LDS R31 , _proces + ( 6 ) + 1
                 	__GETW1MN _proces,6
                 ; 0000 0A49     {
                 ; 0000 0A4A     case 0:
000d1f 9730      	SBIW R30,0
000d20 f491      	BRNE _0x238
                 ; 0000 0A4B         sek3_7s = 0;
000d21 e0e0      	LDI  R30,LOW(0)
000d22 93e0 0552 	STS  _sek3_7s,R30
000d24 93e0 0553 	STS  _sek3_7s+1,R30
000d26 93e0 0554 	STS  _sek3_7s+2,R30
000d28 93e0 0555 	STS  _sek3_7s+3,R30
                 ; 0000 0A4C         sek3 = 0;
000d2a 940e 188c 	CALL SUBOPT_0x98
                 ; 0000 0A4D         proces[3] = 1;
                +
000d2c e1ea     +LDI R30 , LOW ( _proces + ( 6 ) )
000d2d e0f5     +LDI R31 , HIGH ( _proces + ( 6 ) )
                 	__POINTW1MN _proces,6
000d2e 940e 1804 	CALL SUBOPT_0x84
                 ; 0000 0A4E         licz = 0;
000d30 940e 14e9 	CALL SUBOPT_0x14
                 ; 0000 0A4F     break;
000d32 c18e      	RJMP _0x237
                 ; 0000 0A50 
                 ; 0000 0A51     case 1:
                 _0x238:
000d33 30e1      	CPI  R30,LOW(0x1)
000d34 e0a0      	LDI  R26,HIGH(0x1)
000d35 07fa      	CPC  R31,R26
000d36 f479      	BRNE _0x239
                 ; 0000 0A52 
                 ; 0000 0A53             sek3 = 0;
000d37 940e 188c 	CALL SUBOPT_0x98
                 ; 0000 0A54             PORTC.4 = 0;     //bramka grzybkow w gore
000d39 98ac      	CBI  0x15,4
                 ; 0000 0A55             if(dlugosc_preta_gwintowanego < 70)
000d3a 940e 152c 	CALL SUBOPT_0x1D
000d3c 34a6      	CPI  R26,LOW(0x46)
000d3d e0e0      	LDI  R30,HIGH(0x46)
000d3e 07be      	CPC  R27,R30
000d3f f40c      	BRGE _0x23C
                 ; 0000 0A56                   PORTE.3 = 1;
000d40 9a1b      	SBI  0x3,3
                 ; 0000 0A57             proces[3] = 2;
                 _0x23C:
                +
000d41 e1ea     +LDI R30 , LOW ( _proces + ( 6 ) )
000d42 e0f5     +LDI R31 , HIGH ( _proces + ( 6 ) )
                 	__POINTW1MN _proces,6
000d43 940e 1811 	CALL SUBOPT_0x86
                 ; 0000 0A58 
                 ; 0000 0A59 
                 ; 0000 0A5A     break;
000d45 c17b      	RJMP _0x237
                 ; 0000 0A5B 
                 ; 0000 0A5C     case 2:
                 _0x239:
000d46 30e2      	CPI  R30,LOW(0x2)
000d47 e0a0      	LDI  R26,HIGH(0x2)
000d48 07fa      	CPC  R31,R26
000d49 f4f9      	BRNE _0x23F
                 ; 0000 0A5D 
                 ; 0000 0A5E 
                 ; 0000 0A5F 
                 ; 0000 0A60             if(sek3 > 50)    //80 02.08
000d4a 940e 1896 	CALL SUBOPT_0x99
000d4c 940e 17f7 	CALL SUBOPT_0x82
000d4e f03c      	BRLT _0x240
                 ; 0000 0A61                 {
                 ; 0000 0A62                 if(dlugosc_preta_gwintowanego < 70)
000d4f 940e 152c 	CALL SUBOPT_0x1D
000d51 34a6      	CPI  R26,LOW(0x46)
000d52 e0e0      	LDI  R30,HIGH(0x46)
000d53 07be      	CPC  R27,R30
000d54 f40c      	BRGE _0x241
                 ; 0000 0A63                   PORTE.3 = 0;
000d55 981b      	CBI  0x3,3
                 ; 0000 0A64                 }
                 _0x241:
                 ; 0000 0A65             if(sek3 > 60)
                 _0x240:
000d56 940e 1896 	CALL SUBOPT_0x99
000d58 940e 1809 	CALL SUBOPT_0x85
000d5a f06c      	BRLT _0x244
                 ; 0000 0A66                 {
                 ; 0000 0A67                 PORTC.0 = 0;
000d5b 98a8      	CBI  0x15,0
                 ; 0000 0A68                 if(dlugosc_preta_gwintowanego != 60)
000d5c 940e 152c 	CALL SUBOPT_0x1D
000d5e 97dc      	SBIW R26,60
000d5f f009      	BREQ _0x247
                 ; 0000 0A69                     PORTB.1 = 1; //si³ownik chwytania lancy
000d60 9ac1      	SBI  0x18,1
                 ; 0000 0A6A                 PORTB.0 = 1; //otwarcie szczek w lancy - silownik z boku
                 _0x247:
000d61 9ac0      	SBI  0x18,0
                 ; 0000 0A6B                 sek3 = 0;
000d62 940e 188c 	CALL SUBOPT_0x98
                 ; 0000 0A6C                 proces[3] = 3;
                +
000d64 e1ea     +LDI R30 , LOW ( _proces + ( 6 ) )
000d65 e0f5     +LDI R31 , HIGH ( _proces + ( 6 ) )
                 	__POINTW1MN _proces,6
000d66 940e 181e 	CALL SUBOPT_0x88
                 ; 0000 0A6D                 }
                 ; 0000 0A6E 
                 ; 0000 0A6F 
                 ; 0000 0A70     break;
                 _0x244:
000d68 c158      	RJMP _0x237
                 ; 0000 0A71 
                 ; 0000 0A72 
                 ; 0000 0A73     case 3:
                 _0x23F:
000d69 30e3      	CPI  R30,LOW(0x3)
000d6a e0a0      	LDI  R26,HIGH(0x3)
000d6b 07fa      	CPC  R31,R26
000d6c f011      	BREQ PC+3
000d6d 940c 0db0 	JMP _0x24C
                 ; 0000 0A74             if(grzybek_dokrecony == 1 & metalowe_grzybki == 0 & oczekiwanie_na_poprawienie == 0 & grzybek_jest_nakrecony_na_precie == 1)
000d6f 91a0 0591 	LDS  R26,_grzybek_dokrecony
000d71 91b0 0592 	LDS  R27,_grzybek_dokrecony+1
000d73 940e 16ea 	CALL SUBOPT_0x58
000d75 2e0e      	MOV  R0,R30
000d76 91a0 0595 	LDS  R26,_metalowe_grzybki
000d78 91b0 0596 	LDS  R27,_metalowe_grzybki+1
000d7a 940e 16e5 	CALL SUBOPT_0x57
000d7c 220e      	AND  R0,R30
000d7d 91a0 05a1 	LDS  R26,_oczekiwanie_na_poprawienie
000d7f 91b0 05a2 	LDS  R27,_oczekiwanie_na_poprawienie+1
000d81 940e 16e5 	CALL SUBOPT_0x57
000d83 220e      	AND  R0,R30
000d84 91a0 05ab 	LDS  R26,_grzybek_jest_nakrecony_na_precie
000d86 91b0 05ac 	LDS  R27,_grzybek_jest_nakrecony_na_precie+1
000d88 940e 16ea 	CALL SUBOPT_0x58
000d8a 21e0      	AND  R30,R0
000d8b f4e9      	BRNE _0x2CA
                 ; 0000 0A75                 {
                 ; 0000 0A76                 proces[3] = 4;
                 ; 0000 0A77                 sek3 = 0;
                 ; 0000 0A78                 }
                 ; 0000 0A79             else
                 ; 0000 0A7A                 {
                 ; 0000 0A7B                 wydaj_dzwiek();
000d8c 940e 02c5 	CALL _wydaj_dzwiek
                 ; 0000 0A7C                 komunikat_15_na_panel();
000d8e 940e 035f 	CALL _komunikat_15_na_panel
                 ; 0000 0A7D                 oczekiwanie_na_poprawienie = 1;
000d90 e0e1      	LDI  R30,LOW(1)
000d91 e0f0      	LDI  R31,HIGH(1)
000d92 93e0 05a1 	STS  _oczekiwanie_na_poprawienie,R30
000d94 93f0 05a2 	STS  _oczekiwanie_na_poprawienie+1,R31
                 ; 0000 0A7E                 if(PINA.7 == 0)
000d96 99cf      	SBIC 0x19,7
000d97 c017      	RJMP _0x24F
                 ; 0000 0A7F                     {
                 ; 0000 0A80                     if(grzybek_jest_nakrecony_na_precie == 0 & start >= 7)
000d98 91a0 05ab 	LDS  R26,_grzybek_jest_nakrecony_na_precie
000d9a 91b0 05ac 	LDS  R27,_grzybek_jest_nakrecony_na_precie+1
000d9c 940e 1556 	CALL SUBOPT_0x24
000d9e 01d6      	MOVW R26,R12
000d9f e0e7      	LDI  R30,LOW(7)
000da0 e0f0      	LDI  R31,HIGH(7)
000da1 940e 1a33 	CALL __GEW12
000da3 21e0      	AND  R30,R0
000da4 f021      	BREQ _0x250
                 ; 0000 0A81                         licznik_wylatujacych_grzybkow++;
000da5 eaad      	LDI  R26,LOW(_licznik_wylatujacych_grzybkow)
000da6 e0b5      	LDI  R27,HIGH(_licznik_wylatujacych_grzybkow)
000da7 940e 1470 	CALL SUBOPT_0x4
                 ; 0000 0A82                     proces[3] = 4;
                 _0x250:
                 _0x2CA:
                +
000da9 e1ea     +LDI R30 , LOW ( _proces + ( 6 ) )
000daa e0f5     +LDI R31 , HIGH ( _proces + ( 6 ) )
                 	__POINTW1MN _proces,6
000dab 940e 1823 	CALL SUBOPT_0x89
                 ; 0000 0A83                     sek3 = 0;
000dad 940e 188c 	CALL SUBOPT_0x98
                 ; 0000 0A84                     }
                 ; 0000 0A85                 }
                 _0x24F:
                 ; 0000 0A86     break;
000daf c111      	RJMP _0x237
                 ; 0000 0A87 
                 ; 0000 0A88     case 4:
                 _0x24C:
000db0 30e4      	CPI  R30,LOW(0x4)
000db1 e0a0      	LDI  R26,HIGH(0x4)
000db2 07fa      	CPC  R31,R26
000db3 f5b1      	BRNE _0x251
                 ; 0000 0A89 
                 ; 0000 0A8A 
                 ; 0000 0A8B 
                 ; 0000 0A8C                     if(dlugosc_preta_gwintowanego != 60)
000db4 940e 152c 	CALL SUBOPT_0x1D
000db6 97dc      	SBIW R26,60
000db7 f041      	BREQ _0x252
                 ; 0000 0A8D                         {
                 ; 0000 0A8E                         komunikat_czysc_na_panel();
000db8 940e 0369 	CALL _komunikat_czysc_na_panel
                 ; 0000 0A8F                         oczekiwanie_na_poprawienie = 0;
000dba e0e0      	LDI  R30,LOW(0)
000dbb 93e0 05a1 	STS  _oczekiwanie_na_poprawienie,R30
000dbd 93e0 05a2 	STS  _oczekiwanie_na_poprawienie+1,R30
                 ; 0000 0A90                         PORTB.5 = 1; //si³ownik ma³y chwytania prêcika
000dbf 9ac5      	SBI  0x18,5
                 ; 0000 0A91                         }
                 ; 0000 0A92 
                 ; 0000 0A93                     if(dlugosc_preta_gwintowanego == 60 & PINA.7 == 0)
                 _0x252:
000dc0 940e 152c 	CALL SUBOPT_0x1D
000dc2 e3ec      	LDI  R30,LOW(60)
000dc3 e0f0      	LDI  R31,HIGH(60)
000dc4 940e 1a27 	CALL __EQW12
000dc6 940e 1706 	CALL SUBOPT_0x5D
000dc8 940e 1710 	CALL SUBOPT_0x5F
000dca f0a1      	BREQ _0x255
                 ; 0000 0A94                         {
                 ; 0000 0A95                         skonczony_proces[0] = 0;
000dcb 940e 189f 	CALL SUBOPT_0x9A
                 ; 0000 0A96                         skonczony_proces[1] = 0;
000dcd 940e 18a5 	CALL SUBOPT_0x9B
                 ; 0000 0A97                         skonczony_proces[2] = 0;
000dcf 940e 18ac 	CALL SUBOPT_0x9C
                 ; 0000 0A98                         skonczony_proces[3] = 0;
000dd1 940e 18b3 	CALL SUBOPT_0x9D
                 ; 0000 0A99                         zerowanie_czasu();
000dd3 940e 18ba 	CALL SUBOPT_0x9E
                 ; 0000 0A9A                         jest_pret_pod_czujnikami = 0;
                 ; 0000 0A9B                         proces[3] = 0;
                +
000dd5 e1ea     +LDI R30 , LOW ( _proces + ( 6 ) )
000dd6 e0f5     +LDI R31 , HIGH ( _proces + ( 6 ) )
                 	__POINTW1MN _proces,6
000dd7 e0a0      	LDI  R26,LOW(0)
000dd8 e0b0      	LDI  R27,HIGH(0)
000dd9 83a0      	STD  Z+0,R26
000dda 83b1      	STD  Z+1,R27
                 ; 0000 0A9C                         start = 7;
000ddb e0e7      	LDI  R30,LOW(7)
000ddc e0f0      	LDI  R31,HIGH(7)
000ddd 016f      	MOVW R12,R30
                 ; 0000 0A9D                         przenies_pret_gwintowany();
000dde d9f7      	RCALL _przenies_pret_gwintowany
                 ; 0000 0A9E                         }
                 ; 0000 0A9F 
                 ; 0000 0AA0 
                 ; 0000 0AA1                    if(dlugosc_preta_gwintowanego != 60)
                 _0x255:
000ddf 940e 152c 	CALL SUBOPT_0x1D
000de1 97dc      	SBIW R26,60
000de2 f031      	BREQ _0x256
                 ; 0000 0AA2                         {
                 ; 0000 0AA3                         sek3 = 0;
000de3 940e 188c 	CALL SUBOPT_0x98
                 ; 0000 0AA4                         proces[3] = 5; //WYWALAM NA RAZIE PRZEJSCIE DALEJ ABY UPROSCIC
                +
000de5 e1ea     +LDI R30 , LOW ( _proces + ( 6 ) )
000de6 e0f5     +LDI R31 , HIGH ( _proces + ( 6 ) )
                 	__POINTW1MN _proces,6
000de7 940e 1828 	CALL SUBOPT_0x8A
                 ; 0000 0AA5                         }
                 ; 0000 0AA6     break;
                 _0x256:
000de9 c0d7      	RJMP _0x237
                 ; 0000 0AA7 
                 ; 0000 0AA8     case 5:
                 _0x251:
000dea 30e5      	CPI  R30,LOW(0x5)
000deb e0a0      	LDI  R26,HIGH(0x5)
000dec 07fa      	CPC  R31,R26
000ded f011      	BREQ PC+3
000dee 940c 0e35 	JMP _0x257
                 ; 0000 0AA9 
                 ; 0000 0AAA             if(sek3 > 25 & PINA.5 == 1 & PORTB.5 == 1) //nie dojechal do konca czyli jest precik  //50 02.08
000df0 940e 1896 	CALL SUBOPT_0x99
                +
000df2 e1e9     +LDI R30 , LOW ( 0x19 )
000df3 e0f0     +LDI R31 , HIGH ( 0x19 )
000df4 e060     +LDI R22 , BYTE3 ( 0x19 )
000df5 e070     +LDI R23 , BYTE4 ( 0x19 )
                 	__GETD1N 0x19
000df6 940e 1a4d 	CALL __GTD12
000df8 2e0e      	MOV  R0,R30
000df9 e0a0      	LDI  R26,0
000dfa 99cd      	SBIC 0x19,5
000dfb e0a1      	LDI  R26,1
000dfc e0e1      	LDI  R30,LOW(1)
000dfd 940e 1a22 	CALL __EQB12
000dff 220e      	AND  R0,R30
000e00 e0a0      	LDI  R26,0
000e01 99c5      	SBIC 0x18,5
000e02 e0a1      	LDI  R26,1
000e03 940e 170b 	CALL SUBOPT_0x5E
000e05 f049      	BREQ _0x258
                 ; 0000 0AAB                 {
                 ; 0000 0AAC                 //PORTB.1 = 1; //si³ownik chwytania lancy
                 ; 0000 0AAD                 //PORTB.0 = 1; //otwarcie szczek w lancy - silownik z boku
                 ; 0000 0AAE                 PORTB.6 = 1; //silownik obrotowy na ktorym jest maly chwytajacy precik
000e06 9ac6      	SBI  0x18,6
                 ; 0000 0AAF                 sek3 = 0;
000e07 940e 188c 	CALL SUBOPT_0x98
                 ; 0000 0AB0                 proces[3] = 6;
                +
000e09 e1ea     +LDI R30 , LOW ( _proces + ( 6 ) )
000e0a e0f5     +LDI R31 , HIGH ( _proces + ( 6 ) )
                 	__POINTW1MN _proces,6
000e0b e0a6      	LDI  R26,LOW(6)
000e0c e0b0      	LDI  R27,HIGH(6)
000e0d 83a0      	STD  Z+0,R26
000e0e 83b1      	STD  Z+1,R27
                 ; 0000 0AB1                 }
                 ; 0000 0AB2             if(sek3 > 50 & PINA.5 == 0) // dojechal do konca czyli jest precika nie ma
                 _0x258:
000e0f 940e 1896 	CALL SUBOPT_0x99
                +
000e11 e3e2     +LDI R30 , LOW ( 0x32 )
000e12 e0f0     +LDI R31 , HIGH ( 0x32 )
000e13 e060     +LDI R22 , BYTE3 ( 0x32 )
000e14 e070     +LDI R23 , BYTE4 ( 0x32 )
                 	__GETD1N 0x32
000e15 940e 1a4d 	CALL __GTD12
000e17 2e0e      	MOV  R0,R30
000e18 940e 16ff 	CALL SUBOPT_0x5C
000e1a 21e0      	AND  R30,R0
000e1b f039      	BREQ _0x25B
                 ; 0000 0AB3                 {
                 ; 0000 0AB4                 sek3 = 0;
000e1c 940e 188c 	CALL SUBOPT_0x98
                 ; 0000 0AB5                 wydaj_dzwiek();
000e1e 940e 02c5 	CALL _wydaj_dzwiek
                 ; 0000 0AB6                 komunikat_14_na_panel();
000e20 940e 034b 	CALL _komunikat_14_na_panel
                 ; 0000 0AB7                 PORTB.5 = 0; //si³ownik ma³y chwytania prêcika
000e22 98c5      	CBI  0x18,5
                 ; 0000 0AB8                 }
                 ; 0000 0AB9             if(PORTB.5 == 0 & PINA.7 == 0)
                 _0x25B:
000e23 e0a0      	LDI  R26,0
000e24 99c5      	SBIC 0x18,5
000e25 e0a1      	LDI  R26,1
000e26 e0e0      	LDI  R30,LOW(0)
000e27 940e 1a22 	CALL __EQB12
000e29 940e 1706 	CALL SUBOPT_0x5D
000e2b 940e 1710 	CALL SUBOPT_0x5F
000e2d f031      	BREQ _0x25E
                 ; 0000 0ABA                  {
                 ; 0000 0ABB                  komunikat_czysc_na_panel();
000e2e 940e 0369 	CALL _komunikat_czysc_na_panel
                 ; 0000 0ABC                  proces[3] = 4;
                +
000e30 e1ea     +LDI R30 , LOW ( _proces + ( 6 ) )
000e31 e0f5     +LDI R31 , HIGH ( _proces + ( 6 ) )
                 	__POINTW1MN _proces,6
000e32 940e 1823 	CALL SUBOPT_0x89
                 ; 0000 0ABD                  }
                 ; 0000 0ABE 
                 ; 0000 0ABF 
                 ; 0000 0AC0     break;
                 _0x25E:
000e34 c08c      	RJMP _0x237
                 ; 0000 0AC1 
                 ; 0000 0AC2     case 6:
                 _0x257:
000e35 30e6      	CPI  R30,LOW(0x6)
000e36 e0a0      	LDI  R26,HIGH(0x6)
000e37 07fa      	CPC  R31,R26
000e38 f4a1      	BRNE _0x25F
                 ; 0000 0AC3 
                 ; 0000 0AC4             if(sek3 > 25)  //50 02.08
000e39 940e 1896 	CALL SUBOPT_0x99
                +
000e3b 31aa     +CPI R26 , LOW ( 0x1A )
000e3c e0e0     +LDI R30 , HIGH ( 0x1A )
000e3d 07be     +CPC R27 , R30
000e3e e0e0     +LDI R30 , BYTE3 ( 0x1A )
000e3f 078e     +CPC R24 , R30
000e40 e0e0     +LDI R30 , BYTE4 ( 0x1A )
000e41 079e     +CPC R25 , R30
                 	__CPD2N 0x1A
000e42 f04c      	BRLT _0x260
                 ; 0000 0AC5                 {
                 ; 0000 0AC6                 //PORTB.1 = 1; //si³ownik chwytania lancy
                 ; 0000 0AC7                 PORTB.2 = 1; //wkladanie do lancy precika z grzybkiem
000e43 9ac2      	SBI  0x18,2
                 ; 0000 0AC8                 sek3 = 0;
000e44 940e 188c 	CALL SUBOPT_0x98
                 ; 0000 0AC9                 proces[3] = 7;
                +
000e46 e1ea     +LDI R30 , LOW ( _proces + ( 6 ) )
000e47 e0f5     +LDI R31 , HIGH ( _proces + ( 6 ) )
                 	__POINTW1MN _proces,6
000e48 e0a7      	LDI  R26,LOW(7)
000e49 e0b0      	LDI  R27,HIGH(7)
000e4a 83a0      	STD  Z+0,R26
000e4b 83b1      	STD  Z+1,R27
                 ; 0000 0ACA                 }
                 ; 0000 0ACB     break;
                 _0x260:
000e4c c074      	RJMP _0x237
                 ; 0000 0ACC 
                 ; 0000 0ACD     case 7:
                 _0x25F:
000e4d 30e7      	CPI  R30,LOW(0x7)
000e4e e0a0      	LDI  R26,HIGH(0x7)
000e4f 07fa      	CPC  R31,R26
000e50 f4b1      	BRNE _0x263
                 ; 0000 0ACE 
                 ; 0000 0ACF             if(sek3 > 30)  //50 02.08
000e51 940e 1896 	CALL SUBOPT_0x99
000e53 940e 1816 	CALL SUBOPT_0x87
000e55 f084      	BRLT _0x264
                 ; 0000 0AD0                 {
                 ; 0000 0AD1                 if(PINF.0 == 1)
000e56 9b00      	SBIS 0x0,0
000e57 c005      	RJMP _0x265
                 ; 0000 0AD2                     licznik_niewlozonych_pretow_z_grzybkiem++;
000e58 ebab      	LDI  R26,LOW(_licznik_niewlozonych_pretow_z_grzybkiem)
000e59 e0b5      	LDI  R27,HIGH(_licznik_niewlozonych_pretow_z_grzybkiem)
000e5a 940e 1470 	CALL SUBOPT_0x4
000e5c 9731      	SBIW R30,1
                 ; 0000 0AD3                 PORTB.0 = 0; //zacisniecie szczek w lancy - silownik z boku
                 _0x265:
000e5d 98c0      	CBI  0x18,0
                 ; 0000 0AD4                 sek3 = 0;
000e5e 940e 188c 	CALL SUBOPT_0x98
                 ; 0000 0AD5                 proces[3] = 8;
                +
000e60 e1ea     +LDI R30 , LOW ( _proces + ( 6 ) )
000e61 e0f5     +LDI R31 , HIGH ( _proces + ( 6 ) )
                 	__POINTW1MN _proces,6
000e62 e0a8      	LDI  R26,LOW(8)
000e63 e0b0      	LDI  R27,HIGH(8)
000e64 83a0      	STD  Z+0,R26
000e65 83b1      	STD  Z+1,R27
                 ; 0000 0AD6                 }
                 ; 0000 0AD7     break;
                 _0x264:
000e66 c05a      	RJMP _0x237
                 ; 0000 0AD8 
                 ; 0000 0AD9     case 8:
                 _0x263:
000e67 30e8      	CPI  R30,LOW(0x8)
000e68 e0a0      	LDI  R26,HIGH(0x8)
000e69 07fa      	CPC  R31,R26
000e6a f479      	BRNE _0x268
                 ; 0000 0ADA 
                 ; 0000 0ADB             if(sek3 > 30)  //50  02.08
000e6b 940e 1896 	CALL SUBOPT_0x99
000e6d 940e 1816 	CALL SUBOPT_0x87
000e6f f04c      	BRLT _0x269
                 ; 0000 0ADC                 {
                 ; 0000 0ADD                 PORTB.5 = 0; //si³ownik ma³y chwytania prêcika - puszczenie precika
000e70 98c5      	CBI  0x18,5
                 ; 0000 0ADE                 //PORTB.1 = 0; //si³ownik chwytania lancy - puszczenie
                 ; 0000 0ADF                 sek3 = 0;
000e71 940e 188c 	CALL SUBOPT_0x98
                 ; 0000 0AE0                 proces[3] = 9;  ///bylo 9 omijam teraz te dwa ponizej  //jednak finalnie nie omijam
                +
000e73 e1ea     +LDI R30 , LOW ( _proces + ( 6 ) )
000e74 e0f5     +LDI R31 , HIGH ( _proces + ( 6 ) )
                 	__POINTW1MN _proces,6
000e75 e0a9      	LDI  R26,LOW(9)
000e76 e0b0      	LDI  R27,HIGH(9)
000e77 83a0      	STD  Z+0,R26
000e78 83b1      	STD  Z+1,R27
                 ; 0000 0AE1                                 //jednal omijam tylko jednego ponizej
                 ; 0000 0AE2                 }
                 ; 0000 0AE3     break;
                 _0x269:
000e79 c047      	RJMP _0x237
                 ; 0000 0AE4 
                 ; 0000 0AE5 
                 ; 0000 0AE6 
                 ; 0000 0AE7     case 9:
                 _0x268:
000e7a 30e9      	CPI  R30,LOW(0x9)
000e7b e0a0      	LDI  R26,HIGH(0x9)
000e7c 07fa      	CPC  R31,R26
000e7d f479      	BRNE _0x26C
                 ; 0000 0AE8             if(sek3 > 10)
000e7e 940e 1896 	CALL SUBOPT_0x99
000e80 940e 1855 	CALL SUBOPT_0x90
000e82 f04c      	BRLT _0x26D
                 ; 0000 0AE9                 {
                 ; 0000 0AEA                 PORTB.2 = 0; //wkladanie do lancy precika z grzybkiem - powrot silownikiem
000e83 98c2      	CBI  0x18,2
                 ; 0000 0AEB                 sek3 = 0;
000e84 940e 188c 	CALL SUBOPT_0x98
                 ; 0000 0AEC                 proces[3] = 10;
                +
000e86 e1ea     +LDI R30 , LOW ( _proces + ( 6 ) )
000e87 e0f5     +LDI R31 , HIGH ( _proces + ( 6 ) )
                 	__POINTW1MN _proces,6
000e88 e0aa      	LDI  R26,LOW(10)
000e89 e0b0      	LDI  R27,HIGH(10)
000e8a 83a0      	STD  Z+0,R26
000e8b 83b1      	STD  Z+1,R27
                 ; 0000 0AED                 }
                 ; 0000 0AEE     break;
                 _0x26D:
000e8c c034      	RJMP _0x237
                 ; 0000 0AEF 
                 ; 0000 0AF0     case 10:
                 _0x26C:
000e8d 30ea      	CPI  R30,LOW(0xA)
000e8e e0a0      	LDI  R26,HIGH(0xA)
000e8f 07fa      	CPC  R31,R26
000e90 f481      	BRNE _0x270
                 ; 0000 0AF1             if(sek3 > 10)
000e91 940e 1896 	CALL SUBOPT_0x99
000e93 940e 1855 	CALL SUBOPT_0x90
000e95 f054      	BRLT _0x271
                 ; 0000 0AF2                 {
                 ; 0000 0AF3                 PORTB.1 = 0; //si³ownik chwytania lancy - puszczenie
000e96 98c1      	CBI  0x18,1
                 ; 0000 0AF4                 //PORTB.6 = 0; //silownik obrotowy na ktorym jest maly chwytajacy precik - powrot
                 ; 0000 0AF5                 PORTC.4 = 1;  //bramka grzybkow z precikiem znowu sie blokuje
000e97 9aac      	SBI  0x15,4
                 ; 0000 0AF6                 sek3 = 0;
000e98 940e 188c 	CALL SUBOPT_0x98
                 ; 0000 0AF7                 proces[3] = 11;
                +
000e9a e1ea     +LDI R30 , LOW ( _proces + ( 6 ) )
000e9b e0f5     +LDI R31 , HIGH ( _proces + ( 6 ) )
                 	__POINTW1MN _proces,6
000e9c e0ab      	LDI  R26,LOW(11)
000e9d e0b0      	LDI  R27,HIGH(11)
000e9e 83a0      	STD  Z+0,R26
000e9f 83b1      	STD  Z+1,R27
                 ; 0000 0AF8                 }
                 ; 0000 0AF9     break;
                 _0x271:
000ea0 c020      	RJMP _0x237
                 ; 0000 0AFA 
                 ; 0000 0AFB 
                 ; 0000 0AFC 
                 ; 0000 0AFD 
                 ; 0000 0AFE     case 11:
                 _0x270:
000ea1 30eb      	CPI  R30,LOW(0xB)
000ea2 e0a0      	LDI  R26,HIGH(0xB)
000ea3 07fa      	CPC  R31,R26
000ea4 f4e1      	BRNE _0x237
                 ; 0000 0AFF                          //& PINF.1 == 0
                 ; 0000 0B00             if(sek3 > 20 )
000ea5 940e 1896 	CALL SUBOPT_0x99
000ea7 940e 185d 	CALL SUBOPT_0x91
000ea9 f0bc      	BRLT _0x277
                 ; 0000 0B01                 {
                 ; 0000 0B02                 sek3 = 0;
000eaa 940e 188c 	CALL SUBOPT_0x98
                 ; 0000 0B03                 proces[3] = 0;
                +
000eac e1ea     +LDI R30 , LOW ( _proces + ( 6 ) )
000ead e0f5     +LDI R31 , HIGH ( _proces + ( 6 ) )
                 	__POINTW1MN _proces,6
000eae 940e 182d 	CALL SUBOPT_0x8B
                 ; 0000 0B04                 wynik = 1;
                 ; 0000 0B05                 il_pretow_gwintowanych--;
000eb0 e3a2      	LDI  R26,LOW(_il_pretow_gwintowanych)
000eb1 e0b5      	LDI  R27,HIGH(_il_pretow_gwintowanych)
000eb2 91ed      	LD   R30,X+
000eb3 91fd      	LD   R31,X+
000eb4 9731      	SBIW R30,1
000eb5 93fe      	ST   -X,R31
000eb6 93ee      	ST   -X,R30
                 ; 0000 0B06                 if(start == 7)  //do sytuacji startowej
000eb7 e0e7      	LDI  R30,LOW(7)
000eb8 e0f0      	LDI  R31,HIGH(7)
000eb9 15ec      	CP   R30,R12
000eba 05fd      	CPC  R31,R13
000ebb f429      	BRNE _0x278
                 ; 0000 0B07                     {
                 ; 0000 0B08                     start = 8;
000ebc e0e8      	LDI  R30,LOW(8)
000ebd e0f0      	LDI  R31,HIGH(8)
000ebe 016f      	MOVW R12,R30
                 ; 0000 0B09                     monter_1_time = 0;
000ebf 940e 18c2 	CALL SUBOPT_0x9F
                 ; 0000 0B0A                     monter_2_time = 0;
                 ; 0000 0B0B                     monter_3_time = 0;
                 ; 0000 0B0C                     }
                 ; 0000 0B0D                 }
                 _0x278:
                 ; 0000 0B0E 
                 ; 0000 0B0F     break;
                 _0x277:
                 ; 0000 0B10     }
                 _0x237:
                 ; 0000 0B11 
                 ; 0000 0B12 
                 ; 0000 0B13 return wynik;
                 _0x20A0001:
000ec1 01f8      	MOVW R30,R16
000ec2 9109      	LD   R16,Y+
000ec3 9119      	LD   R17,Y+
000ec4 9508      	RET
                 ; 0000 0B14 }
                 ;
                 ;
                 ;void procesy()
                 ; 0000 0B18 {
                 _procesy:
                 ; 0000 0B19 if(skonczony_proces[0] == 0 & start != 0)
000ec5 940e 18dc 	CALL SUBOPT_0xA0
000ec7 940e 1556 	CALL SUBOPT_0x24
000ec9 940e 18e1 	CALL SUBOPT_0xA1
000ecb 21e0      	AND  R30,R0
000ecc f029      	BREQ _0x279
                 ; 0000 0B1A   skonczony_proces[0] = proces_0();
000ecd dbb8      	RCALL _proces_0
000ece 93e0 0500 	STS  _skonczony_proces,R30
000ed0 93f0 0501 	STS  _skonczony_proces+1,R31
                 ; 0000 0B1B 
                 ; 0000 0B1C if(skonczony_proces[1] == 0 & start != 0 & start != 1 & jest_pret_pod_czujnikami == 1)
                 _0x279:
000ed2 940e 18e7 	CALL SUBOPT_0xA2
000ed4 940e 18ec 	CALL SUBOPT_0xA3
000ed6 940e 18f2 	CALL SUBOPT_0xA4
000ed8 940e 18fa 	CALL SUBOPT_0xA5
000eda 21e0      	AND  R30,R0
000edb f029      	BREQ _0x27A
                 ; 0000 0B1D   skonczony_proces[1] = proces_1();
000edc dc91      	RCALL _proces_1
                +
000edd 93e0 0502+STS _skonczony_proces + ( 2 ) , R30
000edf 93f0 0503+STS _skonczony_proces + ( 2 ) + 1 , R31
                 	__PUTW1MN _skonczony_proces,2
                 ; 0000 0B1E 
                 ; 0000 0B1F if(skonczony_proces[2] == 0 & start != 0 & start != 1 & start != 2 & start != 3 & start != 4 & jest_pret_pod_czujnikami == 1)
                 _0x27A:
000ee1 940e 18ff 	CALL SUBOPT_0xA6
000ee3 940e 18ec 	CALL SUBOPT_0xA3
000ee5 940e 18f2 	CALL SUBOPT_0xA4
000ee7 940e 1904 	CALL SUBOPT_0xA7
000ee9 940e 18fa 	CALL SUBOPT_0xA5
000eeb 21e0      	AND  R30,R0
000eec f029      	BREQ _0x27B
                 ; 0000 0B20     skonczony_proces[2] = proces_2();
000eed dce1      	RCALL _proces_2
                +
000eee 93e0 0504+STS _skonczony_proces + ( 4 ) , R30
000ef0 93f0 0505+STS _skonczony_proces + ( 4 ) + 1 , R31
                 	__PUTW1MN _skonczony_proces,4
                 ; 0000 0B21 
                 ; 0000 0B22 if(skonczony_proces[3] == 0 & start != 0 & start != 1 & start != 2 & start != 3 & start != 4 & start != 5 & start != 6 & jest_pret_pod_czujnikami == 1)
                 _0x27B:
                +
000ef2 91e0 0506+LDS R30 , _skonczony_proces + ( 6 )
000ef4 91f0 0507+LDS R31 , _skonczony_proces + ( 6 ) + 1
                 	__GETW1MN _skonczony_proces,6
000ef6 940e 18ec 	CALL SUBOPT_0xA3
000ef8 940e 18f2 	CALL SUBOPT_0xA4
000efa 940e 1904 	CALL SUBOPT_0xA7
000efc 01d6      	MOVW R26,R12
000efd e0e5      	LDI  R30,LOW(5)
000efe e0f0      	LDI  R31,HIGH(5)
000eff 940e 1a2d 	CALL __NEW12
000f01 220e      	AND  R0,R30
000f02 e0e6      	LDI  R30,LOW(6)
000f03 e0f0      	LDI  R31,HIGH(6)
000f04 940e 1a2d 	CALL __NEW12
000f06 220e      	AND  R0,R30
000f07 940e 18fa 	CALL SUBOPT_0xA5
000f09 21e0      	AND  R30,R0
000f0a f029      	BREQ _0x27C
                 ; 0000 0B23   skonczony_proces[3] = proces_3();
000f0b de0d      	RCALL _proces_3
                +
000f0c 93e0 0506+STS _skonczony_proces + ( 6 ) , R30
000f0e 93f0 0507+STS _skonczony_proces + ( 6 ) + 1 , R31
                 	__PUTW1MN _skonczony_proces,6
                 ; 0000 0B24 }
                 _0x27C:
000f10 9508      	RET
                 ;
                 ;void wyzeruj_monterow()
                 ; 0000 0B27 {
                 _wyzeruj_monterow:
                 ; 0000 0B28 monterzy_skonczyli = 0;
000f11 24aa      	CLR  R10
000f12 24bb      	CLR  R11
                 ; 0000 0B29 monter_1_skonczyl = 0;
000f13 940e 1915 	CALL SUBOPT_0xA8
                 ; 0000 0B2A monter_2_skonczyl = 0;
                 ; 0000 0B2B monter_3_skonczyl = 0;
                 ; 0000 0B2C monter_1_time = 0;
000f15 940e 18c2 	CALL SUBOPT_0x9F
                 ; 0000 0B2D monter_2_time = 0;
                 ; 0000 0B2E monter_3_time = 0;
                 ; 0000 0B2F wyswietl_czas_procesu();
000f17 940e 05de 	CALL _wyswietl_czas_procesu
                 ; 0000 0B30 zerowanie_czasu();
000f19 940e 01fe 	CALL _zerowanie_czasu
                 ; 0000 0B31 //if(skonczony_proces[0] == 0)
                 ; 0000 0B32 //    wyswietl_czas_procesu();
                 ; 0000 0B33 }
000f1b 9508      	RET
                 ;
                 ;
                 ;
                 ;void zerowanie_procesow()
                 ; 0000 0B38 {
                 _zerowanie_procesow:
                 ; 0000 0B39 int liczenie;
                 ; 0000 0B3A long int czestosc_komunikacji;
                 ; 0000 0B3B czestosc_komunikacji = 0;
000f1c 9724      	SBIW R28,4
000f1d 931a      	ST   -Y,R17
000f1e 930a      	ST   -Y,R16
                 ;	liczenie -> R16,R17
                 ;	czestosc_komunikacji -> Y+2
000f1f 940e 191c 	CALL SUBOPT_0xA9
                 ; 0000 0B3C liczenie = 0;
                +
000f21 e000     +LDI R16 , LOW ( 0 )
000f22 e010     +LDI R17 , HIGH ( 0 )
                 	__GETWRN 16,17,0
                 ; 0000 0B3D 
                 ; 0000 0B3E if(skonczony_proces[0] == 1 & start == 2)
000f23 940e 1922 	CALL SUBOPT_0xAA
000f25 2e0e      	MOV  R0,R30
000f26 01d6      	MOVW R26,R12
000f27 940e 16ef 	CALL SUBOPT_0x59
000f29 21e0      	AND  R30,R0
000f2a f099      	BREQ _0x27D
                 ; 0000 0B3F         {
                 ; 0000 0B40         z = czekaj_na_guzik_start();
000f2b 940e 1788 	CALL SUBOPT_0x72
                 ; 0000 0B41         klej = czekaj_na_klej();
000f2d 940e 1924 	CALL SUBOPT_0xAB
                 ; 0000 0B42         //klej_slave = czekaj_na_klej_slave();
                 ; 0000 0B43         klej_slave = 1;
                 ; 0000 0B44         kontrola_grzybkow = kontrola_grzyb();  // & kontrola_grzybkow == 1
                 ; 0000 0B45         if(z == 1 & klej == 1 & klej_slave == 1 & kontrola_grzybkow == 1)
000f2f 940e 1936 	CALL SUBOPT_0xAC
000f31 940e 193b 	CALL SUBOPT_0xAD
000f33 940e 1941 	CALL SUBOPT_0xAE
000f35 21e0      	AND  R30,R0
000f36 f039      	BREQ _0x27E
                 ; 0000 0B46             {
                 ; 0000 0B47             przenies_pret_gwintowany();  //chodzi w whilu dopoki nie zrobi
000f37 940e 1947 	CALL SUBOPT_0xAF
                 ; 0000 0B48             wyswietl_czas_procesu();
                 ; 0000 0B49             odpytaj_parametry_z_panelu(0);
                 ; 0000 0B4A             skonczony_proces[0] = 0;
                 ; 0000 0B4B             zerowanie_czasu();
000f39 940e 18ba 	CALL SUBOPT_0x9E
                 ; 0000 0B4C             jest_pret_pod_czujnikami = 0;
                 ; 0000 0B4D             start = 3;
000f3b e0e3      	LDI  R30,LOW(3)
000f3c e0f0      	LDI  R31,HIGH(3)
000f3d 016f      	MOVW R12,R30
                 ; 0000 0B4E             }
                 ; 0000 0B4F         }
                 _0x27E:
                 ; 0000 0B50 
                 ; 0000 0B51 if(skonczony_proces[0] == 1 & skonczony_proces[1] == 1 & start == 4)
                 _0x27D:
000f3e 940e 1922 	CALL SUBOPT_0xAA
000f40 2e0e      	MOV  R0,R30
000f41 940e 18e7 	CALL SUBOPT_0xA2
000f43 940e 1952 	CALL SUBOPT_0xB0
000f45 01d6      	MOVW R26,R12
000f46 e0e4      	LDI  R30,LOW(4)
000f47 e0f0      	LDI  R31,HIGH(4)
000f48 940e 1a27 	CALL __EQW12
000f4a 21e0      	AND  R30,R0
000f4b f0b9      	BREQ _0x27F
                 ; 0000 0B52         {
                 ; 0000 0B53         z = czekaj_na_guzik_start();
000f4c 940e 1788 	CALL SUBOPT_0x72
                 ; 0000 0B54         klej = czekaj_na_klej();
000f4e 940e 1924 	CALL SUBOPT_0xAB
                 ; 0000 0B55         //klej_slave = czekaj_na_klej_slave();
                 ; 0000 0B56         klej_slave = 1;
                 ; 0000 0B57         kontrola_grzybkow = kontrola_grzyb();
                 ; 0000 0B58         if(z == 1 & klej == 1 & klej_slave == 1 & kontrola_grzybkow == 1)
000f50 940e 1936 	CALL SUBOPT_0xAC
000f52 940e 193b 	CALL SUBOPT_0xAD
000f54 940e 1941 	CALL SUBOPT_0xAE
000f56 21e0      	AND  R30,R0
000f57 f059      	BREQ _0x280
                 ; 0000 0B59             {
                 ; 0000 0B5A             przenies_pret_gwintowany();  //chodzi w whilu dopoki nie zrobi
000f58 940e 1947 	CALL SUBOPT_0xAF
                 ; 0000 0B5B             wyswietl_czas_procesu();
                 ; 0000 0B5C             odpytaj_parametry_z_panelu(0);
                 ; 0000 0B5D             skonczony_proces[0] = 0;
                 ; 0000 0B5E             skonczony_proces[1] = 0;
000f5a 940e 18a5 	CALL SUBOPT_0x9B
                 ; 0000 0B5F             zerowanie_czasu();
000f5c 940e 01fe 	CALL _zerowanie_czasu
                 ; 0000 0B60             start = 5;
000f5e e0e5      	LDI  R30,LOW(5)
000f5f e0f0      	LDI  R31,HIGH(5)
000f60 016f      	MOVW R12,R30
                 ; 0000 0B61             jest_pret_pod_czujnikami = 0;
000f61 940e 1958 	CALL SUBOPT_0xB1
                 ; 0000 0B62             }
                 ; 0000 0B63         }
                 _0x280:
                 ; 0000 0B64 
                 ; 0000 0B65 if(skonczony_proces[0] == 1 & skonczony_proces[1] == 1 & skonczony_proces[2] == 1 & start == 6)
                 _0x27F:
000f63 940e 1922 	CALL SUBOPT_0xAA
000f65 2e0e      	MOV  R0,R30
000f66 940e 18e7 	CALL SUBOPT_0xA2
000f68 940e 1952 	CALL SUBOPT_0xB0
000f6a 940e 18ff 	CALL SUBOPT_0xA6
000f6c 940e 1952 	CALL SUBOPT_0xB0
000f6e 01d6      	MOVW R26,R12
000f6f e0e6      	LDI  R30,LOW(6)
000f70 e0f0      	LDI  R31,HIGH(6)
000f71 940e 1a27 	CALL __EQW12
000f73 21e0      	AND  R30,R0
000f74 f0b9      	BREQ _0x281
                 ; 0000 0B66         {
                 ; 0000 0B67         z = czekaj_na_guzik_start();
000f75 940e 1788 	CALL SUBOPT_0x72
                 ; 0000 0B68         klej = czekaj_na_klej();
000f77 940e 1924 	CALL SUBOPT_0xAB
                 ; 0000 0B69         //klej_slave = czekaj_na_klej_slave();
                 ; 0000 0B6A         klej_slave = 1;
                 ; 0000 0B6B         kontrola_grzybkow = kontrola_grzyb();
                 ; 0000 0B6C         if(z == 1 & klej == 1 & klej_slave == 1 & kontrola_grzybkow == 1)
000f79 940e 1936 	CALL SUBOPT_0xAC
000f7b 940e 193b 	CALL SUBOPT_0xAD
000f7d 940e 1941 	CALL SUBOPT_0xAE
000f7f 21e0      	AND  R30,R0
000f80 f059      	BREQ _0x282
                 ; 0000 0B6D             {
                 ; 0000 0B6E             //ksp = 0;
                 ; 0000 0B6F             przenies_pret_gwintowany();  //chodzi w whilu dopoki nie zrobi
000f81 940e 1947 	CALL SUBOPT_0xAF
                 ; 0000 0B70             wyswietl_czas_procesu();
                 ; 0000 0B71             odpytaj_parametry_z_panelu(0);
                 ; 0000 0B72             skonczony_proces[0] = 0;
                 ; 0000 0B73             skonczony_proces[1] = 0;
000f83 940e 18a5 	CALL SUBOPT_0x9B
                 ; 0000 0B74             skonczony_proces[2] = 0;
000f85 940e 18ac 	CALL SUBOPT_0x9C
                 ; 0000 0B75             zerowanie_czasu();
000f87 940e 18ba 	CALL SUBOPT_0x9E
                 ; 0000 0B76             jest_pret_pod_czujnikami = 0;
                 ; 0000 0B77             start = 7;
000f89 e0e7      	LDI  R30,LOW(7)
000f8a e0f0      	LDI  R31,HIGH(7)
000f8b 016f      	MOVW R12,R30
                 ; 0000 0B78             }
                 ; 0000 0B79         }
                 _0x282:
                 ; 0000 0B7A 
                 ; 0000 0B7B //to ju¿ jest ten glowny co chodzi w kolko
                 ; 0000 0B7C if(skonczony_proces[0] == 1 & skonczony_proces[1] == 1 & skonczony_proces[2] == 1 & skonczony_proces[3] == 1 & start >= 8)
                 _0x281:
000f8c 940e 1922 	CALL SUBOPT_0xAA
000f8e 2e0e      	MOV  R0,R30
000f8f 940e 18e7 	CALL SUBOPT_0xA2
000f91 940e 1952 	CALL SUBOPT_0xB0
000f93 940e 18ff 	CALL SUBOPT_0xA6
000f95 940e 1952 	CALL SUBOPT_0xB0
                +
000f97 91e0 0506+LDS R30 , _skonczony_proces + ( 6 )
000f99 91f0 0507+LDS R31 , _skonczony_proces + ( 6 ) + 1
                 	__GETW1MN _skonczony_proces,6
000f9b 940e 1952 	CALL SUBOPT_0xB0
000f9d 940e 16f4 	CALL SUBOPT_0x5A
000f9f 21e0      	AND  R30,R0
000fa0 f411      	BRNE PC+3
000fa1 940c 1099 	JMP _0x283
                 ; 0000 0B7D         {
                 ; 0000 0B7E         z = czekaj_na_guzik_start();
000fa3 940e 1788 	CALL SUBOPT_0x72
                 ; 0000 0B7F         klej = czekaj_na_klej();
000fa5 da95      	RCALL _czekaj_na_klej
000fa6 940e 1795 	CALL SUBOPT_0x74
                 ; 0000 0B80         //klej_slave = czekaj_na_klej_slave();
                 ; 0000 0B81         klej_slave = 1;
000fa8 e0e1      	LDI  R30,LOW(1)
000fa9 e0f0      	LDI  R31,HIGH(1)
000faa 93e0 0580 	STS  _klej_slave,R30
000fac 93f0 0581 	STS  _klej_slave+1,R31
                 ; 0000 0B82         kontrola_grzybkow = kontrola_grzyb();
000fae 940e 0276 	CALL _kontrola_grzyb
000fb0 93e0 058b 	STS  _kontrola_grzybkow,R30
000fb2 93f0 058c 	STS  _kontrola_grzybkow+1,R31
                 ; 0000 0B83         if(monterzy_skonczyli == 1 & z == 1 & klej == 1 & klej_slave == 1 & kontrola_grzybkow == 1)
000fb4 01d5      	MOVW R26,R10
000fb5 940e 16ea 	CALL SUBOPT_0x58
000fb7 2e0e      	MOV  R0,R30
000fb8 91a0 0586 	LDS  R26,_z
000fba e0e1      	LDI  R30,LOW(1)
000fbb 940e 1a22 	CALL __EQB12
000fbd 220e      	AND  R0,R30
000fbe 940e 1936 	CALL SUBOPT_0xAC
000fc0 940e 193b 	CALL SUBOPT_0xAD
000fc2 940e 1941 	CALL SUBOPT_0xAE
000fc4 21e0      	AND  R30,R0
000fc5 f411      	BRNE PC+3
000fc6 940c 1099 	JMP _0x284
                 ; 0000 0B84             {
                 ; 0000 0B85             monter_slave = 0;
000fc8 940e 17a0 	CALL SUBOPT_0x76
                 ; 0000 0B86             czestosc_komunikacji = 0;
000fca 940e 191c 	CALL SUBOPT_0xA9
                 ; 0000 0B87             while(monter_slave == 0 & start >=11 & tryb_male_puchary == 0)
                 _0x285:
000fcc 940e 195e 	CALL SUBOPT_0xB2
000fce 940e 1963 	CALL SUBOPT_0xB3
000fd0 21e0      	AND  R30,R0
000fd1 f0c9      	BREQ _0x287
                 ; 0000 0B88                 {
                 ; 0000 0B89                 czestosc_komunikacji++;
000fd2 940e 196b 	CALL SUBOPT_0xB4
                 ; 0000 0B8A                 if(czestosc_komunikacji == 1)
000fd4 f419      	BRNE _0x288
                 ; 0000 0B8B                     monter_slave = czekaj_na_odpuszczenie_szczek();
000fd5 da6e      	RCALL _czekaj_na_odpuszczenie_szczek
000fd6 940e 17a6 	CALL SUBOPT_0x77
                 ; 0000 0B8C                 if(czestosc_komunikacji > 100)
                 _0x288:
000fd8 940e 1980 	CALL SUBOPT_0xB5
000fda f014      	BRLT _0x289
                 ; 0000 0B8D                     czestosc_komunikacji = 0;
000fdb 940e 191c 	CALL SUBOPT_0xA9
                 ; 0000 0B8E 
                 ; 0000 0B8F                 if(monter_slave == 0 & liczenie == 0)   //nie nacisnal o czasie szczek
                 _0x289:
000fdd 940e 195e 	CALL SUBOPT_0xB2
000fdf 01d8      	MOVW R26,R16
000fe0 940e 16e5 	CALL SUBOPT_0x57
000fe2 21e0      	AND  R30,R0
000fe3 f031      	BREQ _0x28A
                 ; 0000 0B90                       {
                 ; 0000 0B91                       licznik_spoznien_monter_3_nowy++;
000fe4 e7a6      	LDI  R26,LOW(_licznik_spoznien_monter_3_nowy)
000fe5 e0b5      	LDI  R27,HIGH(_licznik_spoznien_monter_3_nowy)
000fe6 940e 1470 	CALL SUBOPT_0x4
                 ; 0000 0B92                       liczenie = 1;
                +
000fe8 e001     +LDI R16 , LOW ( 1 )
000fe9 e010     +LDI R17 , HIGH ( 1 )
                 	__GETWRN 16,17,1
                 ; 0000 0B93                       }
                 ; 0000 0B94                 }
                 _0x28A:
000fea cfe1      	RJMP _0x285
                 _0x287:
                 ; 0000 0B95 
                 ; 0000 0B96             while(monter_slave == 0 & start >=10 & tryb_male_puchary == 1)
                 _0x28B:
000feb 940e 195e 	CALL SUBOPT_0xB2
000fed 940e 174f 	CALL SUBOPT_0x67
000fef 220e      	AND  R0,R30
000ff0 940e 1761 	CALL SUBOPT_0x6A
000ff2 21e0      	AND  R30,R0
000ff3 f061      	BREQ _0x28D
                 ; 0000 0B97                 {
                 ; 0000 0B98                 czestosc_komunikacji++;
000ff4 940e 196b 	CALL SUBOPT_0xB4
                 ; 0000 0B99                 if(czestosc_komunikacji == 1)
000ff6 f419      	BRNE _0x28E
                 ; 0000 0B9A                     monter_slave = czekaj_na_odpuszczenie_szczek();
000ff7 da4c      	RCALL _czekaj_na_odpuszczenie_szczek
000ff8 940e 17a6 	CALL SUBOPT_0x77
                 ; 0000 0B9B                     //tasma lancuchowa powinna ruszyc monter 2 nacisnie pedal i minie okolo 1s
                 ; 0000 0B9C                 if(czestosc_komunikacji > 100)
                 _0x28E:
000ffa 940e 1980 	CALL SUBOPT_0xB5
000ffc f014      	BRLT _0x28F
                 ; 0000 0B9D                     czestosc_komunikacji = 0;
000ffd 940e 191c 	CALL SUBOPT_0xA9
                 ; 0000 0B9E                 }
                 _0x28F:
000fff cfeb      	RJMP _0x28B
                 _0x28D:
                 ; 0000 0B9F 
                 ; 0000 0BA0 
                 ; 0000 0BA1 
                 ; 0000 0BA2 
                 ; 0000 0BA3 
                 ; 0000 0BA4                 przenies_pret_gwintowany();  //chodzi w whilu dopoki nie zrobi
001000 940e 07d6 	CALL _przenies_pret_gwintowany
                 ; 0000 0BA5                                           //nie dawca zezwolenia na szczeki
                 ; 0000 0BA6 
                 ; 0000 0BA7             odpytaj_parametry_z_panelu(0);       //jak il_pretow == 4
001002 e0e0      	LDI  R30,LOW(0)
001003 e0f0      	LDI  R31,HIGH(0)
001004 93fa      	ST   -Y,R31
001005 93ea      	ST   -Y,R30
001006 940e 0379 	CALL _odpytaj_parametry_z_panelu
                 ; 0000 0BA8             if(anuluj_biezace_zlecenie == 1 & anuluj_biezace_zlecenie_const == 0)
001008 91a0 05b9 	LDS  R26,_anuluj_biezace_zlecenie
00100a 91b0 05ba 	LDS  R27,_anuluj_biezace_zlecenie+1
00100c 940e 16ea 	CALL SUBOPT_0x58
00100e 2e0e      	MOV  R0,R30
00100f 91a0 05bd 	LDS  R26,_anuluj_biezace_zlecenie_const
001011 91b0 05be 	LDS  R27,_anuluj_biezace_zlecenie_const+1
001013 940e 16e5 	CALL SUBOPT_0x57
001015 21e0      	AND  R30,R0
001016 f0c9      	BREQ _0x290
                 ; 0000 0BA9                 {
                 ; 0000 0BAA                 anuluj_biezace_zlecenie = 0;
001017 e0e0      	LDI  R30,LOW(0)
001018 93e0 05b9 	STS  _anuluj_biezace_zlecenie,R30
00101a 93e0 05ba 	STS  _anuluj_biezace_zlecenie+1,R30
                 ; 0000 0BAB                 anuluj_biezace_zlecenie_const = 1;
00101c e0e1      	LDI  R30,LOW(1)
00101d e0f0      	LDI  R31,HIGH(1)
00101e 93e0 05bd 	STS  _anuluj_biezace_zlecenie_const,R30
001020 93f0 05be 	STS  _anuluj_biezace_zlecenie_const+1,R31
                 ; 0000 0BAC                 ustaw_na_nie_anulacje_zlecenia();
001022 940e 02b5 	CALL _ustaw_na_nie_anulacje_zlecenia
                 ; 0000 0BAD                 il_pretow_gwintowanych = 4;
001024 e0e4      	LDI  R30,LOW(4)
001025 e0f0      	LDI  R31,HIGH(4)
001026 940e 1578 	CALL SUBOPT_0x2A
                 ; 0000 0BAE                 il_pretow_gwintowanych_stala = il_pretow_gwintowanych;
001028 940e 157d 	CALL SUBOPT_0x2B
                 ; 0000 0BAF                 licznik_pucharow = -2;  //0
00102a efee      	LDI  R30,LOW(65534)
00102b efff      	LDI  R31,HIGH(65534)
00102c 93e0 0528 	STS  _licznik_pucharow,R30
00102e 93f0 0529 	STS  _licznik_pucharow+1,R31
                 ; 0000 0BB0                 }
                 ; 0000 0BB1 
                 ; 0000 0BB2 
                 ; 0000 0BB3             start++;
                 _0x290:
001030 01f6      	MOVW R30,R12
001031 9631      	ADIW R30,1
001032 016f      	MOVW R12,R30
                 ; 0000 0BB4             if(start > 1000)
001033 eee8      	LDI  R30,LOW(1000)
001034 e0f3      	LDI  R31,HIGH(1000)
001035 15ec      	CP   R30,R12
001036 05fd      	CPC  R31,R13
001037 f41c      	BRGE _0x291
                 ; 0000 0BB5                start = 100;  //zeby sie nie zapetlil start
001038 e6e4      	LDI  R30,LOW(100)
001039 e0f0      	LDI  R31,HIGH(100)
00103a 016f      	MOVW R12,R30
                 ; 0000 0BB6 
                 ; 0000 0BB7             if(il_pretow_gwintowanych > 3 & jest_pret_pod_czujnikami == 1)
                 _0x291:
00103b 940e 155c 	CALL SUBOPT_0x25
00103d e0e3      	LDI  R30,LOW(3)
00103e e0f0      	LDI  R31,HIGH(3)
00103f 940e 1a3f 	CALL __GTW12
001041 2e0e      	MOV  R0,R30
001042 940e 18fa 	CALL SUBOPT_0xA5
001044 21e0      	AND  R30,R0
001045 f051      	BREQ _0x292
                 ; 0000 0BB8                 {
                 ; 0000 0BB9                 jest_pret_pod_czujnikami = 0;
001046 940e 1958 	CALL SUBOPT_0xB1
                 ; 0000 0BBA                 skonczony_proces[0] = 0;
001048 940e 189f 	CALL SUBOPT_0x9A
                 ; 0000 0BBB                 skonczony_proces[1] = 0;
00104a 940e 18a5 	CALL SUBOPT_0x9B
                 ; 0000 0BBC                 skonczony_proces[2] = 0;
00104c 940e 18ac 	CALL SUBOPT_0x9C
                 ; 0000 0BBD                 skonczony_proces[3] = 0;
00104e 940e 18b3 	CALL SUBOPT_0x9D
                 ; 0000 0BBE                 }
                 ; 0000 0BBF 
                 ; 0000 0BC0              if(il_pretow_gwintowanych > 2)
                 _0x292:
001050 940e 155c 	CALL SUBOPT_0x25
001052 9713      	SBIW R26,3
001053 f044      	BRLT _0x293
                 ; 0000 0BC1                 {
                 ; 0000 0BC2                 jest_pret_pod_czujnikami = 1;//bo procesu 0 juz nie ma
001054 940e 17c9 	CALL SUBOPT_0x7D
                 ; 0000 0BC3                 skonczony_proces[1] = 0;
001056 940e 18a5 	CALL SUBOPT_0x9B
                 ; 0000 0BC4                 skonczony_proces[2] = 0;
001058 940e 18ac 	CALL SUBOPT_0x9C
                 ; 0000 0BC5                 skonczony_proces[3] = 0;
00105a 940e 18b3 	CALL SUBOPT_0x9D
                 ; 0000 0BC6                 }
                 ; 0000 0BC7 
                 ; 0000 0BC8              if(il_pretow_gwintowanych > 1)
                 _0x293:
00105c 940e 155c 	CALL SUBOPT_0x25
00105e 9712      	SBIW R26,2
00105f f034      	BRLT _0x294
                 ; 0000 0BC9                 {
                 ; 0000 0BCA                 jest_pret_pod_czujnikami = 1; //bo procesu 0 juz nie ma
001060 940e 17c9 	CALL SUBOPT_0x7D
                 ; 0000 0BCB                 skonczony_proces[2] = 0;
001062 940e 18ac 	CALL SUBOPT_0x9C
                 ; 0000 0BCC                 skonczony_proces[3] = 0;
001064 940e 18b3 	CALL SUBOPT_0x9D
                 ; 0000 0BCD                 }
                 ; 0000 0BCE 
                 ; 0000 0BCF              if(il_pretow_gwintowanych > 0)
                 _0x294:
001066 940e 155c 	CALL SUBOPT_0x25
001068 940e 1ae5 	CALL __CPW02
00106a f424      	BRGE _0x295
                 ; 0000 0BD0                 {
                 ; 0000 0BD1                 jest_pret_pod_czujnikami = 1; //bo procesu 0 juz nie ma
00106b 940e 17c9 	CALL SUBOPT_0x7D
                 ; 0000 0BD2                 skonczony_proces[3] = 0;
00106d 940e 18b3 	CALL SUBOPT_0x9D
                 ; 0000 0BD3                 }
                 ; 0000 0BD4 
                 ; 0000 0BD5             wyzeruj_monterow();
                 _0x295:
00106f dea1      	RCALL _wyzeruj_monterow
                 ; 0000 0BD6 
                 ; 0000 0BD7             if((licznik_pucharow - 1) == il_pretow_gwintowanych_stala & potw_zielonym_bo_pomyliles_pedal_z_potwierdz == 0)
001070 940e 198c 	CALL SUBOPT_0xB6
001072 91a0 059f 	LDS  R26,_il_pretow_gwintowanych_stala
001074 91b0 05a0 	LDS  R27,_il_pretow_gwintowanych_stala+1
001076 940e 1a27 	CALL __EQW12
001078 2e0e      	MOV  R0,R30
001079 91a0 05a3 	LDS  R26,_potw_zielonym_bo_pomyliles_pedal_z_potwierdz
00107b 91b0 05a4 	LDS  R27,_potw_zielonym_bo_pomyliles_pedal_z_potwierdz+1
00107d 940e 16e5 	CALL SUBOPT_0x57
00107f 21e0      	AND  R30,R0
001080 f0c1      	BREQ _0x296
                 ; 0000 0BD8                     {
                 ; 0000 0BD9                     komunikat_6_na_panel();
001081 940e 0304 	CALL _komunikat_6_na_panel
                 ; 0000 0BDA                     msek_clock = 0;
001083 940e 1455 	CALL SUBOPT_0x0
                 ; 0000 0BDB                     sek_clock = 0;
001085 940e 145b 	CALL SUBOPT_0x1
                 ; 0000 0BDC                     min_clock = 0;
001087 940e 1461 	CALL SUBOPT_0x2
                 ; 0000 0BDD                     godz_clock = 0;
001089 e0e0      	LDI  R30,LOW(0)
00108a 93e0 05c5 	STS  _godz_clock,R30
00108c 93e0 05c6 	STS  _godz_clock+1,R30
                 ; 0000 0BDE                     PORTD.4 = 0;  //wylacz orientator bo wyl
00108e 9894      	CBI  0x12,4
                 ; 0000 0BDF                     PORTD.2 = 0;  //koniec zezwolenia na szczeki
00108f 9892      	CBI  0x12,2
                 ; 0000 0BE0                     ustaw_na_nie_anulacje_zlecenia();
001090 940e 02b5 	CALL _ustaw_na_nie_anulacje_zlecenia
                 ; 0000 0BE1                     wylacz_maszyne();
001092 940e 029c 	CALL _wylacz_maszyne
                 ; 0000 0BE2                     z = 0;
001094 e0e0      	LDI  R30,LOW(0)
001095 93e0 0586 	STS  _z,R30
                 ; 0000 0BE3                     start = 0;
001097 24cc      	CLR  R12
001098 24dd      	CLR  R13
                 ; 0000 0BE4                     }
                 ; 0000 0BE5             }
                 _0x296:
                 ; 0000 0BE6 
                 ; 0000 0BE7         }
                 _0x284:
                 ; 0000 0BE8 }
                 _0x283:
001099 8119      	LDD  R17,Y+1
00109a 8108      	LDD  R16,Y+0
00109b 9626      	ADIW R28,6
00109c 9508      	RET
                 ;
                 ;
                 ;void kontrola_monterow()
                 ; 0000 0BEC {
                 _kontrola_monterow:
                 ; 0000 0BED //brak monterow
                 ; 0000 0BEE 
                 ; 0000 0BEF if(start == 8 & monterzy_skonczyli == 0)
00109d 01d6      	MOVW R26,R12
00109e e0e8      	LDI  R30,LOW(8)
00109f e0f0      	LDI  R31,HIGH(8)
0010a0 940e 1a27 	CALL __EQW12
0010a2 2e0e      	MOV  R0,R30
0010a3 01d5      	MOVW R26,R10
0010a4 940e 16e5 	CALL SUBOPT_0x57
0010a6 21e0      	AND  R30,R0
0010a7 f019      	BREQ _0x29B
                 ; 0000 0BF0       monterzy_skonczyli = 1;
0010a8 e0e1      	LDI  R30,LOW(1)
0010a9 e0f0      	LDI  R31,HIGH(1)
0010aa 015f      	MOVW R10,R30
                 ; 0000 0BF1 
                 ; 0000 0BF2 //praca ciagla monterow
                 ; 0000 0BF3 
                 ; 0000 0BF4 if(start >= 9 & monterzy_skonczyli == 0)
                 _0x29B:
0010ab 940e 175a 	CALL SUBOPT_0x69
0010ad 01d5      	MOVW R26,R10
0010ae 940e 16e5 	CALL SUBOPT_0x57
0010b0 21e0      	AND  R30,R0
0010b1 f411      	BRNE PC+3
0010b2 940c 116c 	JMP _0x29C
                 ; 0000 0BF5     {
                 ; 0000 0BF6     if(monter_1_skonczyl == 0)  //zmianiam & na | i powinno nie byc potrzebne naciskanie guzika monter 1
0010b4 2c04      	MOV  R0,R4
0010b5 2805      	OR   R0,R5
0010b6 f4a9      	BRNE _0x29D
                 ; 0000 0BF7         {
                 ; 0000 0BF8         if(monter_1_time > czas_monterow & start >= 10)
0010b7 940e 1561 	CALL SUBOPT_0x26
0010b9 91a0 055e 	LDS  R26,_monter_1_time
0010bb 91b0 055f 	LDS  R27,_monter_1_time+1
0010bd 9180 0560 	LDS  R24,_monter_1_time+2
0010bf 9190 0561 	LDS  R25,_monter_1_time+3
0010c1 940e 1992 	CALL SUBOPT_0xB7
0010c3 21e0      	AND  R30,R0
0010c4 f021      	BREQ _0x29E
                 ; 0000 0BF9            licznik_spoznien_monter_1++;
0010c5 e6ae      	LDI  R26,LOW(_licznik_spoznien_monter_1)
0010c6 e0b5      	LDI  R27,HIGH(_licznik_spoznien_monter_1)
0010c7 940e 1470 	CALL SUBOPT_0x4
                 ; 0000 0BFA         monter_1_skonczyl = 1;
                 _0x29E:
0010c9 e0e1      	LDI  R30,LOW(1)
0010ca e0f0      	LDI  R31,HIGH(1)
0010cb 012f      	MOVW R4,R30
                 ; 0000 0BFB         }
                 ; 0000 0BFC 
                 ; 0000 0BFD     if(monter_2_skonczyl == 0)    //zmianiam & na | i powinno nie byc potrzebne naciskanie guzika monter 2
                 _0x29D:
0010cc 2c06      	MOV  R0,R6
0010cd 2807      	OR   R0,R7
0010ce f4a9      	BRNE _0x29F
                 ; 0000 0BFE         {
                 ; 0000 0BFF         if(monter_2_time > czas_monterow & start >= 10)
0010cf 940e 1561 	CALL SUBOPT_0x26
0010d1 91a0 0562 	LDS  R26,_monter_2_time
0010d3 91b0 0563 	LDS  R27,_monter_2_time+1
0010d5 9180 0564 	LDS  R24,_monter_2_time+2
0010d7 9190 0565 	LDS  R25,_monter_2_time+3
0010d9 940e 1992 	CALL SUBOPT_0xB7
0010db 21e0      	AND  R30,R0
0010dc f021      	BREQ _0x2A0
                 ; 0000 0C00            licznik_spoznien_monter_2++;
0010dd e7a0      	LDI  R26,LOW(_licznik_spoznien_monter_2)
0010de e0b5      	LDI  R27,HIGH(_licznik_spoznien_monter_2)
0010df 940e 1470 	CALL SUBOPT_0x4
                 ; 0000 0C01         monter_2_skonczyl = 1;
                 _0x2A0:
0010e1 e0e1      	LDI  R30,LOW(1)
0010e2 e0f0      	LDI  R31,HIGH(1)
0010e3 013f      	MOVW R6,R30
                 ; 0000 0C02         }
                 ; 0000 0C03 
                 ; 0000 0C04 
                 ; 0000 0C05 
                 ; 0000 0C06     if(PINF.4 == 0 & monter_3_skonczyl == 0 & start < 11 & tryb_male_puchary == 0)
                 _0x29F:
0010e4 940e 1996 	CALL SUBOPT_0xB8
0010e6 01d4      	MOVW R26,R8
0010e7 940e 16e5 	CALL SUBOPT_0x57
0010e9 220e      	AND  R0,R30
0010ea 01d6      	MOVW R26,R12
0010eb e0eb      	LDI  R30,LOW(11)
0010ec e0f0      	LDI  R31,HIGH(11)
0010ed 940e 1a39 	CALL __LTW12
0010ef 220e      	AND  R0,R30
0010f0 940e 1755 	CALL SUBOPT_0x68
0010f2 940e 16e5 	CALL SUBOPT_0x57
0010f4 21e0      	AND  R30,R0
0010f5 f0a1      	BREQ _0x2A1
                 ; 0000 0C07         {
                 ; 0000 0C08         if(monter_3_time > czas_monterow & start >= 10)
0010f6 940e 199a 	CALL SUBOPT_0xB9
0010f8 21e0      	AND  R30,R0
0010f9 f011      	BREQ _0x2A2
                 ; 0000 0C09            licznik_spoznien_monter_3++;
0010fa 940e 19a4 	CALL SUBOPT_0xBA
                 ; 0000 0C0A         if(start >=10)   //12 23.03.2016
                 _0x2A2:
0010fc 940e 19a7 	CALL SUBOPT_0xBB
0010fe f044      	BRLT _0x2A3
                 ; 0000 0C0B             {
                 ; 0000 0C0C             licznik_pucharow++;
0010ff 940e 19ac 	CALL SUBOPT_0xBC
                 ; 0000 0C0D             licznik_pucharow_global++;
001101 940e 19af 	CALL SUBOPT_0xBD
                 ; 0000 0C0E             wyswietl_ilosc_zmontowanych_pucharow(licznik_pucharow-1,licznik_pucharow_global-1);
001103 940e 198c 	CALL SUBOPT_0xB6
001105 940e 19b2 	CALL SUBOPT_0xBE
                 ; 0000 0C0F             wyswietl_parametry(licznik_wylatujacych_grzybkow,licznik_niezakreconych_grzybkow,licznik_wyzwolen_kurtyny,licznik_niewlozonych_pretow_z_grzybkiem,licznik_spoznien_monter_1_2,licznik_spoznien_monter_3_nowy);
                 ; 0000 0C10             }
                 ; 0000 0C11         monter_3_skonczyl = 1;
                 _0x2A3:
001107 e0e1      	LDI  R30,LOW(1)
001108 e0f0      	LDI  R31,HIGH(1)
001109 014f      	MOVW R8,R30
                 ; 0000 0C12         }
                 ; 0000 0C13 
                 ; 0000 0C14 
                 ; 0000 0C15 
                 ; 0000 0C16      if(PINF.4 == 0 & monter_3_skonczyl == 0 & start == 9 & tryb_male_puchary == 1)
                 _0x2A1:
00110a 940e 1996 	CALL SUBOPT_0xB8
00110c 01d4      	MOVW R26,R8
00110d 940e 16e5 	CALL SUBOPT_0x57
00110f 220e      	AND  R0,R30
001110 01d6      	MOVW R26,R12
001111 e0e9      	LDI  R30,LOW(9)
001112 e0f0      	LDI  R31,HIGH(9)
001113 940e 1a27 	CALL __EQW12
001115 220e      	AND  R0,R30
001116 940e 1761 	CALL SUBOPT_0x6A
001118 21e0      	AND  R30,R0
001119 f019      	BREQ _0x2A4
                 ; 0000 0C17         {
                 ; 0000 0C18         monter_3_skonczyl = 1;
00111a e0e1      	LDI  R30,LOW(1)
00111b e0f0      	LDI  R31,HIGH(1)
00111c 014f      	MOVW R8,R30
                 ; 0000 0C19         }
                 ; 0000 0C1A 
                 ; 0000 0C1B 
                 ; 0000 0C1C      if((PINF.4 == 0 | monter_3_skonczyl == 0) & start >= 10 & tryb_male_puchary == 1)
                 _0x2A4:
00111d 940e 1996 	CALL SUBOPT_0xB8
00111f 01d4      	MOVW R26,R8
001120 940e 16e5 	CALL SUBOPT_0x57
001122 2a0e      	OR   R0,R30
001123 940e 174f 	CALL SUBOPT_0x67
001125 220e      	AND  R0,R30
001126 940e 1761 	CALL SUBOPT_0x6A
001128 21e0      	AND  R30,R0
001129 f0a1      	BREQ _0x2A5
                 ; 0000 0C1D         {
                 ; 0000 0C1E         if(monter_3_time > czas_monterow & start >= 10)
00112a 940e 199a 	CALL SUBOPT_0xB9
00112c 21e0      	AND  R30,R0
00112d f011      	BREQ _0x2A6
                 ; 0000 0C1F            licznik_spoznien_monter_3++;
00112e 940e 19a4 	CALL SUBOPT_0xBA
                 ; 0000 0C20         if(start >=10)   //12 23.03.2016
                 _0x2A6:
001130 940e 19a7 	CALL SUBOPT_0xBB
001132 f044      	BRLT _0x2A7
                 ; 0000 0C21             {
                 ; 0000 0C22             licznik_pucharow++;
001133 940e 19ac 	CALL SUBOPT_0xBC
                 ; 0000 0C23             licznik_pucharow_global++;
001135 940e 19af 	CALL SUBOPT_0xBD
                 ; 0000 0C24             wyswietl_ilosc_zmontowanych_pucharow(licznik_pucharow-1,licznik_pucharow_global-1);
001137 940e 198c 	CALL SUBOPT_0xB6
001139 940e 19b2 	CALL SUBOPT_0xBE
                 ; 0000 0C25             wyswietl_parametry(licznik_wylatujacych_grzybkow,licznik_niezakreconych_grzybkow,licznik_wyzwolen_kurtyny,licznik_niewlozonych_pretow_z_grzybkiem,licznik_spoznien_monter_1_2,licznik_spoznien_monter_3_nowy);
                 ; 0000 0C26             }
                 ; 0000 0C27         monter_3_skonczyl = 1;
                 _0x2A7:
00113b e0e1      	LDI  R30,LOW(1)
00113c e0f0      	LDI  R31,HIGH(1)
00113d 014f      	MOVW R8,R30
                 ; 0000 0C28         }
                 ; 0000 0C29 
                 ; 0000 0C2A 
                 ; 0000 0C2B 
                 ; 0000 0C2C 
                 ; 0000 0C2D 
                 ; 0000 0C2E 
                 ; 0000 0C2F 
                 ; 0000 0C30 
                 ; 0000 0C31      if((PINF.4 == 0 | monter_3_skonczyl == 0) & start >= 11 & tryb_male_puchary == 0)      //nowe cale if 31.07
                 _0x2A5:
00113e 940e 1996 	CALL SUBOPT_0xB8
001140 01d4      	MOVW R26,R8
001141 940e 16e5 	CALL SUBOPT_0x57
001143 2a0e      	OR   R0,R30
001144 940e 1963 	CALL SUBOPT_0xB3
001146 21e0      	AND  R30,R0
001147 f0a1      	BREQ _0x2A8
                 ; 0000 0C32         {
                 ; 0000 0C33         if(monter_3_time > czas_monterow & start >= 10)
001148 940e 199a 	CALL SUBOPT_0xB9
00114a 21e0      	AND  R30,R0
00114b f011      	BREQ _0x2A9
                 ; 0000 0C34            licznik_spoznien_monter_3++;
00114c 940e 19a4 	CALL SUBOPT_0xBA
                 ; 0000 0C35         if(start >=10)   //12 23.03.2016
                 _0x2A9:
00114e 940e 19a7 	CALL SUBOPT_0xBB
001150 f044      	BRLT _0x2AA
                 ; 0000 0C36             {
                 ; 0000 0C37             licznik_pucharow++;
001151 940e 19ac 	CALL SUBOPT_0xBC
                 ; 0000 0C38             licznik_pucharow_global++;
001153 940e 19af 	CALL SUBOPT_0xBD
                 ; 0000 0C39             wyswietl_ilosc_zmontowanych_pucharow(licznik_pucharow-1,licznik_pucharow_global-1);
001155 940e 198c 	CALL SUBOPT_0xB6
001157 940e 19b2 	CALL SUBOPT_0xBE
                 ; 0000 0C3A             wyswietl_parametry(licznik_wylatujacych_grzybkow,licznik_niezakreconych_grzybkow,licznik_wyzwolen_kurtyny,licznik_niewlozonych_pretow_z_grzybkiem,licznik_spoznien_monter_1_2,licznik_spoznien_monter_3_nowy);
                 ; 0000 0C3B             }
                 ; 0000 0C3C         monter_3_skonczyl = 1;
                 _0x2AA:
001159 e0e1      	LDI  R30,LOW(1)
00115a e0f0      	LDI  R31,HIGH(1)
00115b 014f      	MOVW R8,R30
                 ; 0000 0C3D         }
                 ; 0000 0C3E 
                 ; 0000 0C3F 
                 ; 0000 0C40     if(monter_1_skonczyl == 1 & monter_2_skonczyl == 1 & monter_3_skonczyl == 1)
                 _0x2A8:
00115c 01d2      	MOVW R26,R4
00115d 940e 16ea 	CALL SUBOPT_0x58
00115f 2e0e      	MOV  R0,R30
001160 01d3      	MOVW R26,R6
001161 940e 16ea 	CALL SUBOPT_0x58
001163 220e      	AND  R0,R30
001164 01d4      	MOVW R26,R8
001165 940e 16ea 	CALL SUBOPT_0x58
001167 21e0      	AND  R30,R0
001168 f019      	BREQ _0x2AB
                 ; 0000 0C41        {
                 ; 0000 0C42        monterzy_skonczyli = 1;
001169 e0e1      	LDI  R30,LOW(1)
00116a e0f0      	LDI  R31,HIGH(1)
00116b 015f      	MOVW R10,R30
                 ; 0000 0C43        }
                 ; 0000 0C44     }
                 _0x2AB:
                 ; 0000 0C45 
                 ; 0000 0C46 }
                 _0x29C:
00116c 9508      	RET
                 ;
                 ;
                 ;void wznowienie_pracy_po_wykonaniu_zadania()
                 ; 0000 0C4A {
                 _wznowienie_pracy_po_wykonaniu_zadania:
                 ; 0000 0C4B if(start == 0)
00116d 2c0c      	MOV  R0,R12
00116e 280d      	OR   R0,R13
00116f f5b9      	BRNE _0x2AC
                 ; 0000 0C4C          {
                 ; 0000 0C4D          if(z == 0)
001170 91e0 0586 	LDS  R30,_z
001172 30e0      	CPI  R30,0
001173 f429      	BRNE _0x2AD
                 ; 0000 0C4E             {
                 ; 0000 0C4F             z = czekaj_na_guzik_start();
001174 940e 1788 	CALL SUBOPT_0x72
                 ; 0000 0C50             wyswietl_czas_przezbrojenia();
001176 940e 0612 	CALL _wyswietl_czas_przezbrojenia
                 ; 0000 0C51             }
                 ; 0000 0C52          else
001178 c02e      	RJMP _0x2AE
                 _0x2AD:
                 ; 0000 0C53             {
                 ; 0000 0C54             odpytaj_parametry_z_panelu(1);
001179 940e 1773 	CALL SUBOPT_0x6E
                 ; 0000 0C55             //if(tryb_male_puchary == 1)
                 ; 0000 0C56             komunikacja_startowa_male_puchary(wynik_wyboru_male_puchary);
00117b 940e 178d 	CALL SUBOPT_0x73
                 ; 0000 0C57 
                 ; 0000 0C58             licznik_pucharow = 0;
00117d 940e 19be 	CALL SUBOPT_0xBF
                 ; 0000 0C59             licznik_spoznien_monter_1 = -1;
00117f 940e 19c4 	CALL SUBOPT_0xC0
                 ; 0000 0C5A             licznik_spoznien_monter_2 = -1;
                 ; 0000 0C5B             licznik_spoznien_monter_3 = -1;
                 ; 0000 0C5C             skonczony_proces[0] = 0;
001181 940e 189f 	CALL SUBOPT_0x9A
                 ; 0000 0C5D             skonczony_proces[1] = 0;
001183 940e 18a5 	CALL SUBOPT_0x9B
                 ; 0000 0C5E             skonczony_proces[2] = 0;
001185 940e 18ac 	CALL SUBOPT_0x9C
                 ; 0000 0C5F             skonczony_proces[3] = 0;
001187 940e 18b3 	CALL SUBOPT_0x9D
                 ; 0000 0C60             licznik_pucharow = 0;
001189 940e 19be 	CALL SUBOPT_0xBF
                 ; 0000 0C61             komunikat_czysc_na_panel();
00118b 940e 0369 	CALL _komunikat_czysc_na_panel
                 ; 0000 0C62             PORTD.4 = 0; //wylacz orientatorchy gdyby chodzil
00118d 9894      	CBI  0x12,4
                 ; 0000 0C63             anuluj_biezace_zlecenie_const = 0;
00118e e0e0      	LDI  R30,LOW(0)
00118f 93e0 05bd 	STS  _anuluj_biezace_zlecenie_const,R30
001191 93e0 05be 	STS  _anuluj_biezace_zlecenie_const+1,R30
                 ; 0000 0C64             wyswietl_ilosc_zmontowanych_pucharow(licznik_pucharow,licznik_pucharow_global);
001193 91e0 0528 	LDS  R30,_licznik_pucharow
001195 91f0 0529 	LDS  R31,_licznik_pucharow+1
001197 93fa      	ST   -Y,R31
001198 93ea      	ST   -Y,R30
001199 91e0 05b1 	LDS  R30,_licznik_pucharow_global
00119b 91f0 05b2 	LDS  R31,_licznik_pucharow_global+1
00119d 93fa      	ST   -Y,R31
00119e 93ea      	ST   -Y,R30
00119f 940e 0591 	CALL _wyswietl_ilosc_zmontowanych_pucharow
                 ; 0000 0C65             wyswietl_czas_laczny_przezbrajan();
0011a1 940e 0646 	CALL _wyswietl_czas_laczny_przezbrajan
                 ; 0000 0C66             PORTC.4 = 1;  //bramka grzybkow z precikiem znowu sie blokuje
0011a3 9aac      	SBI  0x15,4
                 ; 0000 0C67             start = 1;
0011a4 e0e1      	LDI  R30,LOW(1)
0011a5 e0f0      	LDI  R31,HIGH(1)
0011a6 016f      	MOVW R12,R30
                 ; 0000 0C68 
                 ; 0000 0C69             }
                 _0x2AE:
                 ; 0000 0C6A          }
                 ; 0000 0C6B }
                 _0x2AC:
0011a7 9508      	RET
                 ;
                 ;
                 ;void main(void)
                 ; 0000 0C6F {
                 _main:
                 ; 0000 0C70 // Declare your local variables here
                 ; 0000 0C71 
                 ; 0000 0C72 // Input/Output Ports initialization
                 ; 0000 0C73 // Port A initialization
                 ; 0000 0C74 // Func7=In Func6=In Func5=In Func4=In Func3=In Func2=In Func1=In Func0=In
                 ; 0000 0C75 // State7=T State6=T State5=T State4=T State3=T State2=T State1=T State0=T
                 ; 0000 0C76 PORTA=0x00;
0011a8 e0e0      	LDI  R30,LOW(0)
0011a9 bbeb      	OUT  0x1B,R30
                 ; 0000 0C77 DDRA=0x00;
0011aa bbea      	OUT  0x1A,R30
                 ; 0000 0C78 
                 ; 0000 0C79 // Port B initialization
                 ; 0000 0C7A // Func7=Out Func6=Out Func5=Out Func4=Out Func3=Out Func2=Out Func1=Out Func0=Out
                 ; 0000 0C7B // State7=0 State6=0 State5=0 State4=0 State3=0 State2=0 State1=0 State0=0
                 ; 0000 0C7C PORTB=0x00;
0011ab bbe8      	OUT  0x18,R30
                 ; 0000 0C7D DDRB=0xFF;
0011ac efef      	LDI  R30,LOW(255)
0011ad bbe7      	OUT  0x17,R30
                 ; 0000 0C7E 
                 ; 0000 0C7F // Port C initialization
                 ; 0000 0C80 // Func7=Out Func6=Out Func5=Out Func4=Out Func3=Out Func2=Out Func1=Out Func0=Out
                 ; 0000 0C81 // State7=0 State6=0 State5=0 State4=0 State3=0 State2=0 State1=0 State0=0
                 ; 0000 0C82 PORTC=0x00;
0011ae e0e0      	LDI  R30,LOW(0)
0011af bbe5      	OUT  0x15,R30
                 ; 0000 0C83 DDRC=0xFF;
0011b0 efef      	LDI  R30,LOW(255)
0011b1 bbe4      	OUT  0x14,R30
                 ; 0000 0C84 
                 ; 0000 0C85 // Port D initialization
                 ; 0000 0C86 // Func7=Out Func6=Out Func5=Out Func4=Out Func3=Out Func2=Out Func1=Out Func0=Out
                 ; 0000 0C87 // State7=0 State6=0 State5=0 State4=0 State3=0 State2=0 State1=0 State0=0
                 ; 0000 0C88 PORTD=0x00;
0011b2 e0e0      	LDI  R30,LOW(0)
0011b3 bbe2      	OUT  0x12,R30
                 ; 0000 0C89 DDRD=0xFF;
0011b4 efef      	LDI  R30,LOW(255)
0011b5 bbe1      	OUT  0x11,R30
                 ; 0000 0C8A 
                 ; 0000 0C8B // Port E initialization
                 ; 0000 0C8C // Func7=Out Func6=Out Func5=Out Func4=Out Func3=Out Func2=Out Func1=Out Func0=Out
                 ; 0000 0C8D // State7=0 State6=0 State5=0 State4=0 State3=0 State2=0 State1=0 State0=0
                 ; 0000 0C8E PORTE=0x00;
0011b6 e0e0      	LDI  R30,LOW(0)
0011b7 b9e3      	OUT  0x3,R30
                 ; 0000 0C8F DDRE=0xFF;
0011b8 efef      	LDI  R30,LOW(255)
0011b9 b9e2      	OUT  0x2,R30
                 ; 0000 0C90 
                 ; 0000 0C91 // Port F initialization
                 ; 0000 0C92 // Func7=In Func6=In Func5=In Func4=In Func3=In Func2=In Func1=In Func0=In
                 ; 0000 0C93 // State7=T State6=T State5=T State4=T State3=T State2=T State1=T State0=T
                 ; 0000 0C94 PORTF=0x00;
0011ba e0e0      	LDI  R30,LOW(0)
0011bb 93e0 0062 	STS  98,R30
                 ; 0000 0C95 DDRF=0x00;
0011bd 93e0 0061 	STS  97,R30
                 ; 0000 0C96 
                 ; 0000 0C97 // Port G initialization
                 ; 0000 0C98 // Func4=Out Func3=Out Func2=Out Func1=Out Func0=Out
                 ; 0000 0C99 // State4=0 State3=0 State2=0 State1=0 State0=0
                 ; 0000 0C9A PORTG=0x00;
0011bf 93e0 0065 	STS  101,R30
                 ; 0000 0C9B DDRG=0x1F;
0011c1 e1ef      	LDI  R30,LOW(31)
0011c2 93e0 0064 	STS  100,R30
                 ; 0000 0C9C 
                 ; 0000 0C9D // Timer/Counter 0 initialization
                 ; 0000 0C9E // Clock source: System Clock
                 ; 0000 0C9F // Clock value: 15,625 kHz
                 ; 0000 0CA0 // Mode: Normal top=0xFF
                 ; 0000 0CA1 // OC0 output: Disconnected
                 ; 0000 0CA2 ASSR=0x00;
0011c4 e0e0      	LDI  R30,LOW(0)
0011c5 bfe0      	OUT  0x30,R30
                 ; 0000 0CA3 TCCR0=0x07;
0011c6 e0e7      	LDI  R30,LOW(7)
0011c7 bfe3      	OUT  0x33,R30
                 ; 0000 0CA4 TCNT0=0x00;
0011c8 e0e0      	LDI  R30,LOW(0)
0011c9 bfe2      	OUT  0x32,R30
                 ; 0000 0CA5 OCR0=0x00;
0011ca bfe1      	OUT  0x31,R30
                 ; 0000 0CA6 
                 ; 0000 0CA7 // Timer/Counter 1 initialization
                 ; 0000 0CA8 // Clock source: System Clock
                 ; 0000 0CA9 // Clock value: Timer1 Stopped
                 ; 0000 0CAA // Mode: Normal top=0xFFFF
                 ; 0000 0CAB // OC1A output: Discon.
                 ; 0000 0CAC // OC1B output: Discon.
                 ; 0000 0CAD // OC1C output: Discon.
                 ; 0000 0CAE // Noise Canceler: Off
                 ; 0000 0CAF // Input Capture on Falling Edge
                 ; 0000 0CB0 // Timer1 Overflow Interrupt: Off
                 ; 0000 0CB1 // Input Capture Interrupt: Off
                 ; 0000 0CB2 // Compare A Match Interrupt: Off
                 ; 0000 0CB3 // Compare B Match Interrupt: Off
                 ; 0000 0CB4 // Compare C Match Interrupt: Off
                 ; 0000 0CB5 TCCR1A=0x00;
0011cb bdef      	OUT  0x2F,R30
                 ; 0000 0CB6 TCCR1B=0x00;
0011cc bdee      	OUT  0x2E,R30
                 ; 0000 0CB7 TCNT1H=0x00;
0011cd bded      	OUT  0x2D,R30
                 ; 0000 0CB8 TCNT1L=0x00;
0011ce bdec      	OUT  0x2C,R30
                 ; 0000 0CB9 ICR1H=0x00;
0011cf bde7      	OUT  0x27,R30
                 ; 0000 0CBA ICR1L=0x00;
0011d0 bde6      	OUT  0x26,R30
                 ; 0000 0CBB OCR1AH=0x00;
0011d1 bdeb      	OUT  0x2B,R30
                 ; 0000 0CBC OCR1AL=0x00;
0011d2 bdea      	OUT  0x2A,R30
                 ; 0000 0CBD OCR1BH=0x00;
0011d3 bde9      	OUT  0x29,R30
                 ; 0000 0CBE OCR1BL=0x00;
0011d4 bde8      	OUT  0x28,R30
                 ; 0000 0CBF OCR1CH=0x00;
0011d5 93e0 0079 	STS  121,R30
                 ; 0000 0CC0 OCR1CL=0x00;
0011d7 93e0 0078 	STS  120,R30
                 ; 0000 0CC1 
                 ; 0000 0CC2 // Timer/Counter 2 initialization
                 ; 0000 0CC3 // Clock source: System Clock
                 ; 0000 0CC4 // Clock value: Timer2 Stopped
                 ; 0000 0CC5 // Mode: Normal top=0xFF
                 ; 0000 0CC6 // OC2 output: Disconnected
                 ; 0000 0CC7 TCCR2=0x00;
0011d9 bde5      	OUT  0x25,R30
                 ; 0000 0CC8 TCNT2=0x00;
0011da bde4      	OUT  0x24,R30
                 ; 0000 0CC9 OCR2=0x00;
0011db bde3      	OUT  0x23,R30
                 ; 0000 0CCA 
                 ; 0000 0CCB // Timer/Counter 3 initialization
                 ; 0000 0CCC // Clock source: System Clock
                 ; 0000 0CCD // Clock value: Timer3 Stopped
                 ; 0000 0CCE // Mode: Normal top=0xFFFF
                 ; 0000 0CCF // OC3A output: Discon.
                 ; 0000 0CD0 // OC3B output: Discon.
                 ; 0000 0CD1 // OC3C output: Discon.
                 ; 0000 0CD2 // Noise Canceler: Off
                 ; 0000 0CD3 // Input Capture on Falling Edge
                 ; 0000 0CD4 // Timer3 Overflow Interrupt: Off
                 ; 0000 0CD5 // Input Capture Interrupt: Off
                 ; 0000 0CD6 // Compare A Match Interrupt: Off
                 ; 0000 0CD7 // Compare B Match Interrupt: Off
                 ; 0000 0CD8 // Compare C Match Interrupt: Off
                 ; 0000 0CD9 TCCR3A=0x00;
0011dc 93e0 008b 	STS  139,R30
                 ; 0000 0CDA TCCR3B=0x00;
0011de 93e0 008a 	STS  138,R30
                 ; 0000 0CDB TCNT3H=0x00;
0011e0 93e0 0089 	STS  137,R30
                 ; 0000 0CDC TCNT3L=0x00;
0011e2 93e0 0088 	STS  136,R30
                 ; 0000 0CDD ICR3H=0x00;
0011e4 93e0 0081 	STS  129,R30
                 ; 0000 0CDE ICR3L=0x00;
0011e6 93e0 0080 	STS  128,R30
                 ; 0000 0CDF OCR3AH=0x00;
0011e8 93e0 0087 	STS  135,R30
                 ; 0000 0CE0 OCR3AL=0x00;
0011ea 93e0 0086 	STS  134,R30
                 ; 0000 0CE1 OCR3BH=0x00;
0011ec 93e0 0085 	STS  133,R30
                 ; 0000 0CE2 OCR3BL=0x00;
0011ee 93e0 0084 	STS  132,R30
                 ; 0000 0CE3 OCR3CH=0x00;
0011f0 93e0 0083 	STS  131,R30
                 ; 0000 0CE4 OCR3CL=0x00;
0011f2 93e0 0082 	STS  130,R30
                 ; 0000 0CE5 
                 ; 0000 0CE6 // External Interrupt(s) initialization
                 ; 0000 0CE7 // INT0: Off
                 ; 0000 0CE8 // INT1: Off
                 ; 0000 0CE9 // INT2: Off
                 ; 0000 0CEA // INT3: Off
                 ; 0000 0CEB // INT4: Off
                 ; 0000 0CEC // INT5: Off
                 ; 0000 0CED // INT6: Off
                 ; 0000 0CEE // INT7: Off
                 ; 0000 0CEF EICRA=0x00;
0011f4 93e0 006a 	STS  106,R30
                 ; 0000 0CF0 EICRB=0x00;
0011f6 bfea      	OUT  0x3A,R30
                 ; 0000 0CF1 EIMSK=0x00;
0011f7 bfe9      	OUT  0x39,R30
                 ; 0000 0CF2 
                 ; 0000 0CF3 // Timer(s)/Counter(s) Interrupt(s) initialization
                 ; 0000 0CF4 TIMSK=0x01;
0011f8 e0e1      	LDI  R30,LOW(1)
0011f9 bfe7      	OUT  0x37,R30
                 ; 0000 0CF5 
                 ; 0000 0CF6 ETIMSK=0x00;
0011fa e0e0      	LDI  R30,LOW(0)
0011fb 93e0 007d 	STS  125,R30
                 ; 0000 0CF7 
                 ; 0000 0CF8 
                 ; 0000 0CF9 
                 ; 0000 0CFA // USART0 initialization
                 ; 0000 0CFB // Communication Parameters: 8 Data, 1 Stop, No Parity
                 ; 0000 0CFC // USART0 Receiver: On
                 ; 0000 0CFD // USART0 Transmitter: On
                 ; 0000 0CFE // USART0 Mode: Asynchronous
                 ; 0000 0CFF // USART0 Baud Rate: 9600
                 ; 0000 0D00 UCSR0A=(0<<RXC0) | (0<<TXC0) | (0<<UDRE0) | (0<<FE0) | (0<<DOR0) | (0<<UPE0) | (0<<U2X0) | (0<<MPCM0);
0011fd b9eb      	OUT  0xB,R30
                 ; 0000 0D01 UCSR0B=(0<<RXCIE0) | (0<<TXCIE0) | (0<<UDRIE0) | (1<<RXEN0) | (1<<TXEN0) | (0<<UCSZ02) | (0<<RXB80) | (0<<TXB80);
0011fe e1e8      	LDI  R30,LOW(24)
0011ff b9ea      	OUT  0xA,R30
                 ; 0000 0D02 UCSR0C=(0<<UMSEL0) | (0<<UPM01) | (0<<UPM00) | (0<<USBS0) | (1<<UCSZ01) | (1<<UCSZ00) | (0<<UCPOL0);
001200 e0e6      	LDI  R30,LOW(6)
001201 93e0 0095 	STS  149,R30
                 ; 0000 0D03 UBRR0H=0x00;
001203 e0e0      	LDI  R30,LOW(0)
001204 93e0 0090 	STS  144,R30
                 ; 0000 0D04 UBRR0L=0x67;
001206 e6e7      	LDI  R30,LOW(103)
001207 b9e9      	OUT  0x9,R30
                 ; 0000 0D05 
                 ; 0000 0D06 /*
                 ; 0000 0D07 // USART1 initialization
                 ; 0000 0D08 // Communication Parameters: 8 Data, 1 Stop, No Parity
                 ; 0000 0D09 // USART1 Receiver: On
                 ; 0000 0D0A // USART1 Transmitter: On
                 ; 0000 0D0B // USART1 Mode: Asynchronous
                 ; 0000 0D0C // USART1 Baud Rate: 2400
                 ; 0000 0D0D UCSR1A=(0<<RXC1) | (0<<TXC1) | (0<<UDRE1) | (0<<FE1) | (0<<DOR1) | (0<<UPE1) | (0<<U2X1) | (0<<MPCM1);
                 ; 0000 0D0E UCSR1B=(0<<RXCIE1) | (0<<TXCIE1) | (0<<UDRIE1) | (1<<RXEN1) | (1<<TXEN1) | (0<<UCSZ12) | (0<<RXB81) | (0<<TXB81);
                 ; 0000 0D0F UCSR1C=(0<<UMSEL1) | (0<<UPM11) | (0<<UPM10) | (0<<USBS1) | (1<<UCSZ11) | (1<<UCSZ10) | (0<<UCPOL1);
                 ; 0000 0D10 UBRR1H=0x01;
                 ; 0000 0D11 UBRR1L=0xA0;
                 ; 0000 0D12 
                 ; 0000 0D13 */
                 ; 0000 0D14 
                 ; 0000 0D15 // USART1 initialization
                 ; 0000 0D16 // USART1 disabled
                 ; 0000 0D17 UCSR1B=(0<<RXCIE1) | (0<<TXCIE1) | (0<<UDRIE1) | (0<<RXEN1) | (0<<TXEN1) | (0<<UCSZ12) | (0<<RXB81) | (0<<TXB81);
001208 e0e0      	LDI  R30,LOW(0)
001209 93e0 009a 	STS  154,R30
                 ; 0000 0D18 
                 ; 0000 0D19 
                 ; 0000 0D1A /*
                 ; 0000 0D1B 
                 ; 0000 0D1C // USART1 initialization
                 ; 0000 0D1D // Communication Parameters: 8 Data, 1 Stop, No Parity
                 ; 0000 0D1E // USART1 Receiver: On
                 ; 0000 0D1F // USART1 Transmitter: On
                 ; 0000 0D20 // USART1 Mode: Asynchronous
                 ; 0000 0D21 // USART1 Baud Rate: 9600
                 ; 0000 0D22 UCSR1A=(0<<RXC1) | (0<<TXC1) | (0<<UDRE1) | (0<<FE1) | (0<<DOR1) | (0<<UPE1) | (0<<U2X1) | (0<<MPCM1);
                 ; 0000 0D23 UCSR1B=(0<<RXCIE1) | (0<<TXCIE1) | (0<<UDRIE1) | (1<<RXEN1) | (1<<TXEN1) | (0<<UCSZ12) | (0<<RXB81) | (0<<TXB81);
                 ; 0000 0D24 UCSR1C=(0<<UMSEL1) | (0<<UPM11) | (0<<UPM10) | (0<<USBS1) | (1<<UCSZ11) | (1<<UCSZ10) | (0<<UCPOL1);
                 ; 0000 0D25 UBRR1H=0x00;
                 ; 0000 0D26 UBRR1L=0x67;
                 ; 0000 0D27 
                 ; 0000 0D28 */
                 ; 0000 0D29 
                 ; 0000 0D2A /*
                 ; 0000 0D2B 
                 ; 0000 0D2C // USART0 initialization
                 ; 0000 0D2D // Communication Parameters: 8 Data, 1 Stop, No Parity
                 ; 0000 0D2E // USART0 Receiver: On
                 ; 0000 0D2F // USART0 Transmitter: On
                 ; 0000 0D30 // USART0 Mode: Asynchronous
                 ; 0000 0D31 // USART0 Baud Rate: 115200
                 ; 0000 0D32 UCSR0A=(0<<RXC0) | (0<<TXC0) | (0<<UDRE0) | (0<<FE0) | (0<<DOR0) | (0<<UPE0) | (0<<U2X0) | (0<<MPCM0);
                 ; 0000 0D33 UCSR0B=(0<<RXCIE0) | (0<<TXCIE0) | (0<<UDRIE0) | (1<<RXEN0) | (1<<TXEN0) | (0<<UCSZ02) | (0<<RXB80) | (0<<TXB80);
                 ; 0000 0D34 UCSR0C=(0<<UMSEL0) | (0<<UPM01) | (0<<UPM00) | (0<<USBS0) | (1<<UCSZ01) | (1<<UCSZ00) | (0<<UCPOL0);
                 ; 0000 0D35 UBRR0H=0x00;
                 ; 0000 0D36 UBRR0L=0x08;
                 ; 0000 0D37 
                 ; 0000 0D38 // USART1 initialization
                 ; 0000 0D39 // Communication Parameters: 8 Data, 1 Stop, No Parity
                 ; 0000 0D3A // USART1 Receiver: On
                 ; 0000 0D3B // USART1 Transmitter: On
                 ; 0000 0D3C // USART1 Mode: Asynchronous
                 ; 0000 0D3D // USART1 Baud Rate: 115200
                 ; 0000 0D3E UCSR1A=(0<<RXC1) | (0<<TXC1) | (0<<UDRE1) | (0<<FE1) | (0<<DOR1) | (0<<UPE1) | (0<<U2X1) | (0<<MPCM1);
                 ; 0000 0D3F UCSR1B=(0<<RXCIE1) | (0<<TXCIE1) | (0<<UDRIE1) | (1<<RXEN1) | (1<<TXEN1) | (0<<UCSZ12) | (0<<RXB81) | (0<<TXB81);
                 ; 0000 0D40 UCSR1C=(0<<UMSEL1) | (0<<UPM11) | (0<<UPM10) | (0<<USBS1) | (1<<UCSZ11) | (1<<UCSZ10) | (0<<UCPOL1);
                 ; 0000 0D41 UBRR1H=0x00;
                 ; 0000 0D42 UBRR1L=0x08;
                 ; 0000 0D43 
                 ; 0000 0D44 */
                 ; 0000 0D45 
                 ; 0000 0D46 // Analog Comparator initialization
                 ; 0000 0D47 // Analog Comparator: Off
                 ; 0000 0D48 // Analog Comparator Input Capture by Timer/Counter 1: Off
                 ; 0000 0D49 ACSR=0x80;
00120b e8e0      	LDI  R30,LOW(128)
00120c b9e8      	OUT  0x8,R30
                 ; 0000 0D4A SFIOR=0x00;
00120d e0e0      	LDI  R30,LOW(0)
00120e bde0      	OUT  0x20,R30
                 ; 0000 0D4B 
                 ; 0000 0D4C // ADC initialization
                 ; 0000 0D4D // ADC disabled
                 ; 0000 0D4E ADCSRA=0x00;
00120f b9e6      	OUT  0x6,R30
                 ; 0000 0D4F 
                 ; 0000 0D50 // SPI initialization
                 ; 0000 0D51 // SPI disabled
                 ; 0000 0D52 SPCR=0x00;
001210 b9ed      	OUT  0xD,R30
                 ; 0000 0D53 
                 ; 0000 0D54 // TWI initialization
                 ; 0000 0D55 // TWI disabled
                 ; 0000 0D56 TWCR=0x00;
001211 93e0 0074 	STS  116,R30
                 ; 0000 0D57 
                 ; 0000 0D58 // Global enable interrupts
                 ; 0000 0D59 #asm("sei")
001213 9478      	sei
                 ; 0000 0D5A 
                 ; 0000 0D5B //WE
                 ; 0000 0D5C //PINA.0    czujnik cinienia
                 ; 0000 0D5D //PINA.1    czujnik widzenia grzybka
                 ; 0000 0D5E //PINA.2    czujnik 1 widzenia prêta gwintowanego na rynnie
                 ; 0000 0D5F //PINA.3    czujnik 2 widzenia prêta gwintowanego na rynnie
                 ; 0000 0D60 //PINA.4    czujnik od silnika grzebieni
                 ; 0000 0D61 //PINA.5    sygnal braku kleju - informacja z dozownika kleju - nie wykorzystuje, zmieniam na czujnik chwycenia preta
                 ; 0000 0D62 //PINA.6    sygnal gotowosci do pracy dozownika kleju - zmieniam na czujnik czy sa prety gorne
                 ; 0000 0D63 //PINA.7    guzik czy monter dokrecil grzybka, je¿eli by³a taka potrzeba
                 ; 0000 0D64 
                 ; 0000 0D65 //PINF.0    wlacznik tasmociagu monterow 1 dawnij, teraz: czujnik czy w³o¿y³ grzybek do lufy
                 ; 0000 0D66 //PINF.1    teraz czy si³ownik chwytaj¹cy wie¿e jest zamkniety  //znowu idzie out//teraz sygnal odpowiedzi od Slave
                 ; 0000 0D67 //PINF.2    monter 1 wykonal dawniej //tu teraz podpinamy czujnik czy jest grzybek
                 ; 0000 0D68 //PINF.3    monter 2 wykonal dawnij //teraz sygnal ze kurtyna jest aktywna
                 ; 0000 0D69 //PINF.4    monter 3 wykonal (dawniej czujnik indukcyjny widzacy wieze - ju¿ go nie ma)
                 ; 0000 0D6A //PINF.5    czujnik czy dokrecil grzybka
                 ; 0000 0D6B //PINF.6    czujnik ze jedzie lancuchowy
                 ; 0000 0D6C //PINF.7    sygnal ze kurtyna zadzialala - jak ktos wlozyl lape to bedzie 0
                 ; 0000 0D6D             //jak monterzy zresetuja to sama mi sie pojawi 1
                 ; 0000 0D6E 
                 ; 0000 0D6F //WY
                 ; 0000 0D70 //PORTB.0   zaciskanie grzybka w lancy
                 ; 0000 0D71 //PORTB.1   si³ownik chwytania lancy
                 ; 0000 0D72 //PORTB.2   wkladanie do lancy precika z grzybkiem
                 ; 0000 0D73 //PORTB.3   silownik przytrzymujacy grzybka od gory
                 ; 0000 0D74 //PORTB.4   silownik pozycjonujacy preta jeszcze na zjezdzalni
                 ; 0000 0D75 //PORTB.5   si³ownik ma³y chwytania prêcika
                 ; 0000 0D76 //PORTB.6   silownik obrotowy na ktorym jest maly chwytajacy precik
                 ; 0000 0D77 //PORTB.7   silownik dociskajacy pret na grzebieniach
                 ; 0000 0D78 
                 ; 0000 0D79 //PORTC.0   cisnienie na linijke - cinienie do dozownika kleju - dalem na stale ------------------TU EWENTUALNIE PSIKANIE NA GRZYBEK - chyba wolne
                 ; 0000 0D7A //PORTC.1   silownik pobierania grzybow duzy
                 ; 0000 0D7B //PORTC.2   silownik pobierania grzybow maly - droga DO grzebienie pod cinieniem
                 ; 0000 0D7C //PORTC.3   silownik na ktorym jest silnik dokrecajacy grzybki
                 ; 0000 0D7D //PORTC.4   dawniej silownik trzymajcy strzelanie klejem - zmieniam na silownik bramki precikow z grzybkiem
                 ; 0000 0D7E //PORTC.5   si³ownik 3 kolejkuj¹cy na rynnie
                 ; 0000 0D7F //PORTC.6   si³ownik 2 kolejkuj¹cy na rynnie
                 ; 0000 0D80 //PORTC.7   si³ownik 1 kolejkuj¹cy na rynnie
                 ; 0000 0D81 
                 ; 0000 0D82 //PORTD.0   silnik przenosnika pretow
                 ; 0000 0D83 //PORTD.1   silnik dokrecajacy grzybki
                 ; 0000 0D84 //PORTD.2   DAWNIEJ kana³ 1 RS232, TERAZ   zgoda na zacisniecie szczek w wersji komunikacja uproszczona
                 ; 0000 0D85 //PORTD.3   DAWNIEJ kana³ 1 RS232, TERAZ sygnal do przesylania informacji malych pucharach
                 ; 0000 0D86 //PORTD.4   orientator grzybkow
                 ; 0000 0D87 //PORTD.5   dozownik kleju zasilanie 220V
                 ; 0000 0D88 //PORTD.6   SPALONY DAWNIEJ, TERAZ DAJE TU SYGNAL JAKO PRZECINEK MIEDZY PACZKAMI DANYCH - informacja o malych puchyarach
                 ; 0000 0D89 //PORTD.7   LAMPA BRAK PRETOW
                 ; 0000 0D8A 
                 ; 0000 0D8B //PORTE.0   kana³ 0 RS232
                 ; 0000 0D8C //PORTE.1   kana³ 0 RS232
                 ; 0000 0D8D //PORTE.2   silownik pobierania grzybow maly - droga OD grzebienie pod cinieniem
                 ; 0000 0D8E //PORTE.3   podpiêty do listwy zaworowej ale nie podpiêty cinieniowo------TU EWENTUALNIE PSIKANIE NA GRZYBEK
                 ; 0000 0D8F //PORTE.4   wlaczenie lania kleju
                 ; 0000 0D90 //PORTE.5   sekwencja startowa pivexin
                 ; 0000 0D91 //PORTE.6   manipulator wykonal pivexin
                 ; 0000 0D92 //PORTE.7   sygnal synchronizacji dla procesora slave
                 ; 0000 0D93 
                 ; 0000 0D94 //PROCESY
                 ; 0000 0D95 //proces_0 - kolejkowanie prêta na zje¿d¿alni
                 ; 0000 0D96 //proces_1 - nak³adanie kleju
                 ; 0000 0D97 //proces_2 - nakrecanie grzybka
                 ; 0000 0D98 //proces_3 - pobieranie grzybka i wsadzanie do lancy
                 ; 0000 0D99 
                 ; 0000 0D9A 
                 ; 0000 0D9B 
                 ; 0000 0D9C //delay_ms(8000); //bo panel sie inicjalizuje
                 ; 0000 0D9D //delay_ms(2000); //bo panel sie inicjalizuje
                 ; 0000 0D9E delay_ms(2000); //bo panel sie inicjalizuje
001214 940e 1785 	CALL SUBOPT_0x71
                 ; 0000 0D9F delay_ms(2000); //bo panel sie inicjalizuje
001216 940e 1785 	CALL SUBOPT_0x71
                 ; 0000 0DA0 
                 ; 0000 0DA1 
                 ; 0000 0DA2 putchar(90);  //5A
001218 940e 14aa 	CALL SUBOPT_0xD
                 ; 0000 0DA3 putchar(165); //A5
                 ; 0000 0DA4 putchar(3);//03  //znak dzwiekowy ze jestem
00121a 940e 14ef 	CALL SUBOPT_0x15
                 ; 0000 0DA5 putchar(128);  //80
                 ; 0000 0DA6 putchar(2);    //02
                 ; 0000 0DA7 putchar(16);   //10
00121c 93ea      	ST   -Y,R30
00121d d0b7      	RCALL _putchar
                 ; 0000 0DA8 
                 ; 0000 0DA9 //PORTD.1 = 1;
                 ; 0000 0DAA //while(1)
                 ; 0000 0DAB //{
                 ; 0000 0DAC //}
                 ; 0000 0DAD 
                 ; 0000 0DAE 
                 ; 0000 0DAF komunikacja_startowa_male_puchary(3);//brak malych pucharow
00121e e0e3      	LDI  R30,LOW(3)
00121f e0f0      	LDI  R31,HIGH(3)
001220 93fa      	ST   -Y,R31
001221 93ea      	ST   -Y,R30
001222 940e 0999 	CALL _komunikacja_startowa_male_puchary
                 ; 0000 0DB0 //przeslanie danych do slave
                 ; 0000 0DB1 //wnioski do komunikacji - wcale nie trzeba czekac czy monter 3 nie nacisnal szczek
                 ; 0000 0DB2 //sygnalem aby tasmociag ruszyl ponownie jest nacisniecie pedala tego nowego przez montera
                 ; 0000 0DB3 
                 ; 0000 0DB4 
                 ; 0000 0DB5 //zmienne startowe
                 ; 0000 0DB6 start = 0;
001224 24cc      	CLR  R12
001225 24dd      	CLR  R13
                 ; 0000 0DB7 czas_monterow = 0;
001226 e0e0      	LDI  R30,LOW(0)
001227 93e0 0556 	STS  _czas_monterow,R30
001229 93e0 0557 	STS  _czas_monterow+1,R30
00122b 93e0 0558 	STS  _czas_monterow+2,R30
00122d 93e0 0559 	STS  _czas_monterow+3,R30
                 ; 0000 0DB8 monter_1_skonczyl = 0;
00122f 940e 1915 	CALL SUBOPT_0xA8
                 ; 0000 0DB9 monter_2_skonczyl = 0;
                 ; 0000 0DBA monter_3_skonczyl = 0;
                 ; 0000 0DBB monterzy_skonczyli = 0;
001231 24aa      	CLR  R10
001232 24bb      	CLR  R11
                 ; 0000 0DBC czas_na_transport_preta = 100;
                +
001233 e6e4     +LDI R30 , LOW ( 0x64 )
001234 e0f0     +LDI R31 , HIGH ( 0x64 )
001235 e060     +LDI R22 , BYTE3 ( 0x64 )
001236 e070     +LDI R23 , BYTE4 ( 0x64 )
                 	__GETD1N 0x64
001237 93e0 055a 	STS  _czas_na_transport_preta,R30
001239 93f0 055b 	STS  _czas_na_transport_preta+1,R31
00123b 9360 055c 	STS  _czas_na_transport_preta+2,R22
00123d 9370 055d 	STS  _czas_na_transport_preta+3,R23
                 ; 0000 0DBD jest_pret_pod_czujnikami = 0;
00123f 940e 1958 	CALL SUBOPT_0xB1
                 ; 0000 0DBE stala_czasowa = 62;
                +
001241 e3ee     +LDI R30 , LOW ( 0x3E )
001242 e0f0     +LDI R31 , HIGH ( 0x3E )
001243 e060     +LDI R22 , BYTE3 ( 0x3E )
001244 e070     +LDI R23 , BYTE4 ( 0x3E )
                 	__GETD1N 0x3E
001245 93e0 056a 	STS  _stala_czasowa,R30
001247 93f0 056b 	STS  _stala_czasowa+1,R31
001249 9360 056c 	STS  _stala_czasowa+2,R22
00124b 9370 056d 	STS  _stala_czasowa+3,R23
                 ; 0000 0DBF //il_pretow_gwintowanych = 5;  //minimum dac 5 w panelu
                 ; 0000 0DC0 zajechalem = 0;
00124d 940e 167c 	CALL SUBOPT_0x4E
                 ; 0000 0DC1 sekwencja = 0;
                 ; 0000 0DC2 czas_silnika_dokrecajacego_grzybki_stala = 220;
00124f edec      	LDI  R30,LOW(220)
001250 e0f0      	LDI  R31,HIGH(220)
001251 93e0 0530 	STS  _czas_silnika_dokrecajacego_grzybki_stala,R30
001253 93f0 0531 	STS  _czas_silnika_dokrecajacego_grzybki_stala+1,R31
                 ; 0000 0DC3 czas_silnika_dokrecajacego_grzybki = 40;  //zmianiam z 35 na 55 bo sie wyrobila guma
001255 e2e8      	LDI  R30,LOW(40)
001256 e0f0      	LDI  R31,HIGH(40)
001257 93e0 052e 	STS  _czas_silnika_dokrecajacego_grzybki,R30
001259 93f0 052f 	STS  _czas_silnika_dokrecajacego_grzybki+1,R31
                 ; 0000 0DC4 dlugosc_preta_gwintowanego = 80;
00125b e5e0      	LDI  R30,LOW(80)
00125c e0f0      	LDI  R31,HIGH(80)
00125d 940e 1527 	CALL SUBOPT_0x1C
                 ; 0000 0DC5 licznik = 0;
00125f e0e0      	LDI  R30,LOW(0)
001260 93e0 052a 	STS  _licznik,R30
001262 93e0 052b 	STS  _licznik+1,R30
                 ; 0000 0DC6 licznik_pucharow = 0;
001264 940e 19be 	CALL SUBOPT_0xBF
                 ; 0000 0DC7 licznik_spoznien_monter_1 = -1;
001266 940e 19c4 	CALL SUBOPT_0xC0
                 ; 0000 0DC8 licznik_spoznien_monter_2 = -1;
                 ; 0000 0DC9 licznik_spoznien_monter_3 = -1;
                 ; 0000 0DCA ff = 0;
001268 e0e0      	LDI  R30,LOW(0)
001269 93e0 0584 	STS  _ff,R30
00126b 93e0 0585 	STS  _ff+1,R30
                 ; 0000 0DCB pierwszy_raz = 0;
00126d 93e0 059b 	STS  _pierwszy_raz,R30
00126f 93e0 059c 	STS  _pierwszy_raz+1,R30
                 ; 0000 0DCC czas_monterow_stala = 0;
001271 93e0 059d 	STS  _czas_monterow_stala,R30
001273 93e0 059e 	STS  _czas_monterow_stala+1,R30
                 ; 0000 0DCD oczekiwanie_na_poprawienie = 0;
001275 93e0 05a1 	STS  _oczekiwanie_na_poprawienie,R30
001277 93e0 05a2 	STS  _oczekiwanie_na_poprawienie+1,R30
                 ; 0000 0DCE czekaj_komunikat = 0;
001279 940e 179a 	CALL SUBOPT_0x75
                 ; 0000 0DCF potw_zielonym_bo_pomyliles_pedal_z_potwierdz = 0;
00127b e0e0      	LDI  R30,LOW(0)
00127c 93e0 05a3 	STS  _potw_zielonym_bo_pomyliles_pedal_z_potwierdz,R30
00127e 93e0 05a4 	STS  _potw_zielonym_bo_pomyliles_pedal_z_potwierdz+1,R30
                 ; 0000 0DD0 przejechalem_czujnik_lub_jestem_na_nim = 0;
001280 93e0 05a7 	STS  _przejechalem_czujnik_lub_jestem_na_nim,R30
001282 93e0 05a8 	STS  _przejechalem_czujnik_lub_jestem_na_nim+1,R30
                 ; 0000 0DD1 licznik_niezakreconych_grzybkow = 0;
001284 93e0 05a9 	STS  _licznik_niezakreconych_grzybkow,R30
001286 93e0 05aa 	STS  _licznik_niezakreconych_grzybkow+1,R30
                 ; 0000 0DD2 licznik_wylatujacych_grzybkow = 0;
001288 93e0 05ad 	STS  _licznik_wylatujacych_grzybkow,R30
00128a 93e0 05ae 	STS  _licznik_wylatujacych_grzybkow+1,R30
                 ; 0000 0DD3 grzybek_jest_nakrecony_na_precie = 0;
00128c 940e 171c 	CALL SUBOPT_0x61
                 ; 0000 0DD4 licznik_wyzwolen_kurtyny = 0;
00128e 93e0 05af 	STS  _licznik_wyzwolen_kurtyny,R30
001290 93e0 05b0 	STS  _licznik_wyzwolen_kurtyny+1,R30
                 ; 0000 0DD5 licznik_pucharow_global = 0;
001292 e0e0      	LDI  R30,LOW(0)
001293 93e0 05b1 	STS  _licznik_pucharow_global,R30
001295 93e0 05b2 	STS  _licznik_pucharow_global+1,R30
                 ; 0000 0DD6 czas_zaloczonego_orientatora = 0;
001297 940e 1493 	CALL SUBOPT_0xA
                 ; 0000 0DD7 zaloczono_kurtyne = 0;
001299 940e 1641 	CALL SUBOPT_0x45
                 ; 0000 0DD8 anuluj_biezace_zlecenie_const = 0;
00129b e0e0      	LDI  R30,LOW(0)
00129c 93e0 05bd 	STS  _anuluj_biezace_zlecenie_const,R30
00129e 93e0 05be 	STS  _anuluj_biezace_zlecenie_const+1,R30
                 ; 0000 0DD9 wynik_wyboru_male_puchary = 0;
0012a0 93e0 05d1 	STS  _wynik_wyboru_male_puchary,R30
0012a2 93e0 05d2 	STS  _wynik_wyboru_male_puchary+1,R30
                 ; 0000 0DDA wielkosc_kamienia = 0;
0012a4 93e0 05d3 	STS  _wielkosc_kamienia,R30
0012a6 93e0 05d4 	STS  _wielkosc_kamienia+1,R30
                 ; 0000 0DDB 
                 ; 0000 0DDC 
                 ; 0000 0DDD 
                 ; 0000 0DDE z = 0; //do panela
0012a8 93e0 0586 	STS  _z,R30
                 ; 0000 0DDF d = 0;
0012aa 93e0 0578 	STS  _d,R30
0012ac 93e0 0579 	STS  _d+1,R30
                 ; 0000 0DE0 dd = 0;
0012ae 93e0 057a 	STS  _dd,R30
0012b0 93e0 057b 	STS  _dd+1,R30
                 ; 0000 0DE1 gg = 0;
0012b2 93e0 057c 	STS  _gg,R30
0012b4 93e0 057d 	STS  _gg+1,R30
                 ; 0000 0DE2 klej = 0;
0012b6 93e0 057e 	STS  _klej,R30
0012b8 93e0 057f 	STS  _klej+1,R30
                 ; 0000 0DE3 klej_slave = 0;
0012ba 93e0 0580 	STS  _klej_slave,R30
0012bc 93e0 0581 	STS  _klej_slave+1,R30
                 ; 0000 0DE4 monter_slave = 0;
0012be 940e 17a0 	CALL SUBOPT_0x76
                 ; 0000 0DE5 
                 ; 0000 0DE6 
                 ; 0000 0DE7 
                 ; 0000 0DE8 //while(1)
                 ; 0000 0DE9 //{
                 ; 0000 0DEA //wyswietl_czas_laczny_przezbrajan();
                 ; 0000 0DEB //wyswietl_czas_procesu();
                 ; 0000 0DEC //wyswietl_czas_przezbrojenia();
                 ; 0000 0DED //}
                 ; 0000 0DEE 
                 ; 0000 0DEF /////////////////////////////////////////sekwencja do testowania jak jada grzebienie
                 ; 0000 0DF0 
                 ; 0000 0DF1 
                 ; 0000 0DF2 //while(1)
                 ; 0000 0DF3 //{
                 ; 0000 0DF4 //if(PINA.7 == 0)
                 ; 0000 0DF5 //    PORTD.0 = 1;
                 ; 0000 0DF6 //else
                 ; 0000 0DF7 //    PORTD.0 = 0;
                 ; 0000 0DF8 //}
                 ; 0000 0DF9 
                 ; 0000 0DFA 
                 ; 0000 0DFB //jezeli dajemy z panelu dlugosc preta gwintowanego na 60 to wtedy tryb testowy
                 ; 0000 0DFC 
                 ; 0000 0DFD 
                 ; 0000 0DFE ///////////////////////////////////////////
                 ; 0000 0DFF while(start == 0)
                 _0x2B3:
0012c0 2c0c      	MOV  R0,R12
0012c1 280d      	OR   R0,R13
0012c2 f421      	BRNE _0x2B5
                 ; 0000 0E00     start = ustawienia_startowe();
0012c3 940e 09c8 	CALL _ustawienia_startowe
0012c5 016f      	MOVW R12,R30
0012c6 cff9      	RJMP _0x2B3
                 _0x2B5:
                 ; 0000 0E02 while (1)
                 _0x2B6:
                 ; 0000 0E03       {
                 ; 0000 0E04       orientator_grzybkow();
0012c7 940e 024f 	CALL _orientator_grzybkow
                 ; 0000 0E05       wznowienie_pracy_po_wykonaniu_zadania();
0012c9 dea3      	RCALL _wznowienie_pracy_po_wykonaniu_zadania
                 ; 0000 0E06       procesy();
0012ca dbfa      	RCALL _procesy
                 ; 0000 0E07       kontrola_monterow();
0012cb ddd1      	RCALL _kontrola_monterow
                 ; 0000 0E08       zerowanie_procesow();
0012cc dc4f      	RCALL _zerowanie_procesow
                 ; 0000 0E09       kontrola_lampki_brak_pretow();
0012cd 940e 02bf 	CALL _kontrola_lampki_brak_pretow
                 ; 0000 0E0A       }
0012cf cff7      	RJMP _0x2B6
                 ; 0000 0E0B }
                 _0x2B9:
0012d0 cfff      	RJMP _0x2B9
                 ;
                 ;
                 ;
                 ;
                 ;
                 ;
                 ;
                 ;
                 ;
                 	#ifndef __SLEEP_DEFINED__
                 	#endif
                 
                 	.CSEG
                 _getchar:
                 getchar0:
0012d1 9b5f           sbis usr,rxc
0012d2 cffe           rjmp getchar0
0012d3 b1ec           in   r30,udr
0012d4 9508      	RET
                 _putchar:
                 putchar0:
0012d5 9b5d           sbis usr,udre
0012d6 cffe           rjmp putchar0
0012d7 81e8           ld   r30,y
0012d8 b9ec           out  udr,r30
0012d9 9621      	ADIW R28,1
0012da 9508      	RET
                 _put_usart_G100:
0012db 81ea      	LDD  R30,Y+2
0012dc 93ea      	ST   -Y,R30
0012dd dff7      	RCALL _putchar
0012de 81a8      	LD   R26,Y
0012df 81b9      	LDD  R27,Y+1
0012e0 940e 1470 	CALL SUBOPT_0x4
0012e2 9623      	ADIW R28,3
0012e3 9508      	RET
                 __print_G100:
0012e4 9726      	SBIW R28,6
0012e5 940e 1aee 	CALL __SAVELOCR6
0012e7 e010      	LDI  R17,0
0012e8 85ac      	LDD  R26,Y+12
0012e9 85bd      	LDD  R27,Y+12+1
0012ea e0e0      	LDI  R30,LOW(0)
0012eb e0f0      	LDI  R31,HIGH(0)
0012ec 93ed      	ST   X+,R30
0012ed 93fc      	ST   X,R31
                 _0x2000016:
0012ee 89ea      	LDD  R30,Y+18
0012ef 89fb      	LDD  R31,Y+18+1
0012f0 9631      	ADIW R30,1
0012f1 8bea      	STD  Y+18,R30
0012f2 8bfb      	STD  Y+18+1,R31
0012f3 9731      	SBIW R30,1
0012f4 91e4      	LPM  R30,Z
0012f5 2f2e      	MOV  R18,R30
0012f6 30e0      	CPI  R30,0
0012f7 f411      	BRNE PC+3
0012f8 940c 1411 	JMP _0x2000018
0012fa 2fe1      	MOV  R30,R17
0012fb 30e0      	CPI  R30,0
0012fc f439      	BRNE _0x200001C
0012fd 3225      	CPI  R18,37
0012fe f411      	BRNE _0x200001D
0012ff e011      	LDI  R17,LOW(1)
001300 c002      	RJMP _0x200001E
                 _0x200001D:
001301 940e 19d3 	CALL SUBOPT_0xC1
                 _0x200001E:
001303 c10c      	RJMP _0x200001B
                 _0x200001C:
001304 30e1      	CPI  R30,LOW(0x1)
001305 f4a9      	BRNE _0x200001F
001306 3225      	CPI  R18,37
001307 f419      	BRNE _0x2000020
001308 940e 19d3 	CALL SUBOPT_0xC1
00130a c104      	RJMP _0x20000C9
                 _0x2000020:
00130b e012      	LDI  R17,LOW(2)
00130c e040      	LDI  R20,LOW(0)
00130d e000      	LDI  R16,LOW(0)
00130e 322d      	CPI  R18,45
00130f f411      	BRNE _0x2000021
001310 e001      	LDI  R16,LOW(1)
001311 c0fe      	RJMP _0x200001B
                 _0x2000021:
001312 322b      	CPI  R18,43
001313 f411      	BRNE _0x2000022
001314 e24b      	LDI  R20,LOW(43)
001315 c0fa      	RJMP _0x200001B
                 _0x2000022:
001316 3220      	CPI  R18,32
001317 f411      	BRNE _0x2000023
001318 e240      	LDI  R20,LOW(32)
001319 c0f6      	RJMP _0x200001B
                 _0x2000023:
00131a c002      	RJMP _0x2000024
                 _0x200001F:
00131b 30e2      	CPI  R30,LOW(0x2)
00131c f439      	BRNE _0x2000025
                 _0x2000024:
00131d e050      	LDI  R21,LOW(0)
00131e e013      	LDI  R17,LOW(3)
00131f 3320      	CPI  R18,48
001320 f411      	BRNE _0x2000026
001321 6800      	ORI  R16,LOW(128)
001322 c0ed      	RJMP _0x200001B
                 _0x2000026:
001323 c004      	RJMP _0x2000027
                 _0x2000025:
001324 30e3      	CPI  R30,LOW(0x3)
001325 f011      	BREQ PC+3
001326 940c 1410 	JMP _0x200001B
                 _0x2000027:
001328 3320      	CPI  R18,48
001329 f010      	BRLO _0x200002A
00132a 332a      	CPI  R18,58
00132b f008      	BRLO _0x200002B
                 _0x200002A:
00132c c007      	RJMP _0x2000029
                 _0x200002B:
00132d e0aa      	LDI  R26,LOW(10)
00132e 9f5a      	MUL  R21,R26
00132f 2d50      	MOV  R21,R0
001330 2fe2      	MOV  R30,R18
001331 53e0      	SUBI R30,LOW(48)
001332 0f5e      	ADD  R21,R30
001333 c0dc      	RJMP _0x200001B
                 _0x2000029:
001334 2fe2      	MOV  R30,R18
001335 36e3      	CPI  R30,LOW(0x63)
001336 f449      	BRNE _0x200002F
001337 940e 19dc 	CALL SUBOPT_0xC2
001339 89e8      	LDD  R30,Y+16
00133a 89f9      	LDD  R31,Y+16+1
00133b 81a4      	LDD  R26,Z+4
00133c 93aa      	ST   -Y,R26
00133d 940e 19e2 	CALL SUBOPT_0xC3
00133f c0cf      	RJMP _0x2000030
                 _0x200002F:
001340 37e3      	CPI  R30,LOW(0x73)
001341 f441      	BRNE _0x2000032
001342 940e 19dc 	CALL SUBOPT_0xC2
001344 940e 19ea 	CALL SUBOPT_0xC4
001346 940e 1440 	CALL _strlen
001348 2f1e      	MOV  R17,R30
001349 c00a      	RJMP _0x2000033
                 _0x2000032:
00134a 37e0      	CPI  R30,LOW(0x70)
00134b f461      	BRNE _0x2000035
00134c 940e 19dc 	CALL SUBOPT_0xC2
00134e 940e 19ea 	CALL SUBOPT_0xC4
001350 940e 144a 	CALL _strlenf
001352 2f1e      	MOV  R17,R30
001353 6008      	ORI  R16,LOW(8)
                 _0x2000033:
001354 6002      	ORI  R16,LOW(2)
001355 770f      	ANDI R16,LOW(127)
001356 e030      	LDI  R19,LOW(0)
001357 c035      	RJMP _0x2000036
                 _0x2000035:
001358 36e4      	CPI  R30,LOW(0x64)
001359 f011      	BREQ _0x2000039
00135a 36e9      	CPI  R30,LOW(0x69)
00135b f411      	BRNE _0x200003A
                 _0x2000039:
00135c 6004      	ORI  R16,LOW(4)
00135d c002      	RJMP _0x200003B
                 _0x200003A:
00135e 37e5      	CPI  R30,LOW(0x75)
00135f f431      	BRNE _0x200003C
                 _0x200003B:
001360 e8ec      	LDI  R30,LOW(_tbl10_G100*2)
001361 e0f0      	LDI  R31,HIGH(_tbl10_G100*2)
001362 83ee      	STD  Y+6,R30
001363 83ff      	STD  Y+6+1,R31
001364 e015      	LDI  R17,LOW(5)
001365 c00d      	RJMP _0x200003D
                 _0x200003C:
001366 35e8      	CPI  R30,LOW(0x58)
001367 f411      	BRNE _0x200003F
001368 6008      	ORI  R16,LOW(8)
001369 c004      	RJMP _0x2000040
                 _0x200003F:
00136a 37e8      	CPI  R30,LOW(0x78)
00136b f011      	BREQ PC+3
00136c 940c 140f 	JMP _0x2000071
                 _0x2000040:
00136e e9e6      	LDI  R30,LOW(_tbl16_G100*2)
00136f e0f0      	LDI  R31,HIGH(_tbl16_G100*2)
001370 83ee      	STD  Y+6,R30
001371 83ff      	STD  Y+6+1,R31
001372 e014      	LDI  R17,LOW(4)
                 _0x200003D:
001373 ff02      	SBRS R16,2
001374 c014      	RJMP _0x2000042
001375 940e 19dc 	CALL SUBOPT_0xC2
001377 940e 19f4 	CALL SUBOPT_0xC5
001379 85ab      	LDD  R26,Y+11
00137a 23aa      	TST  R26
00137b f43a      	BRPL _0x2000043
00137c 85ea      	LDD  R30,Y+10
00137d 85fb      	LDD  R31,Y+10+1
00137e 940e 1a0c 	CALL __ANEGW1
001380 87ea      	STD  Y+10,R30
001381 87fb      	STD  Y+10+1,R31
001382 e24d      	LDI  R20,LOW(45)
                 _0x2000043:
001383 3040      	CPI  R20,0
001384 f011      	BREQ _0x2000044
001385 5f1f      	SUBI R17,-LOW(1)
001386 c001      	RJMP _0x2000045
                 _0x2000044:
001387 7f0b      	ANDI R16,LOW(251)
                 _0x2000045:
001388 c004      	RJMP _0x2000046
                 _0x2000042:
001389 940e 19dc 	CALL SUBOPT_0xC2
00138b 940e 19f4 	CALL SUBOPT_0xC5
                 _0x2000046:
                 _0x2000036:
00138d fd00      	SBRC R16,0
00138e c011      	RJMP _0x2000047
                 _0x2000048:
00138f 1715      	CP   R17,R21
001390 f478      	BRSH _0x200004A
001391 ff07      	SBRS R16,7
001392 c008      	RJMP _0x200004B
001393 ff02      	SBRS R16,2
001394 c004      	RJMP _0x200004C
001395 7f0b      	ANDI R16,LOW(251)
001396 2f24      	MOV  R18,R20
001397 5011      	SUBI R17,LOW(1)
001398 c001      	RJMP _0x200004D
                 _0x200004C:
001399 e320      	LDI  R18,LOW(48)
                 _0x200004D:
00139a c001      	RJMP _0x200004E
                 _0x200004B:
00139b e220      	LDI  R18,LOW(32)
                 _0x200004E:
00139c 940e 19d3 	CALL SUBOPT_0xC1
00139e 5051      	SUBI R21,LOW(1)
00139f cfef      	RJMP _0x2000048
                 _0x200004A:
                 _0x2000047:
0013a0 2f31      	MOV  R19,R17
0013a1 ff01      	SBRS R16,1
0013a2 c017      	RJMP _0x200004F
                 _0x2000050:
0013a3 3030      	CPI  R19,0
0013a4 f0a1      	BREQ _0x2000052
0013a5 ff03      	SBRS R16,3
0013a6 c006      	RJMP _0x2000053
0013a7 81ee      	LDD  R30,Y+6
0013a8 81ff      	LDD  R31,Y+6+1
0013a9 9125      	LPM  R18,Z+
0013aa 83ee      	STD  Y+6,R30
0013ab 83ff      	STD  Y+6+1,R31
0013ac c005      	RJMP _0x2000054
                 _0x2000053:
0013ad 81ae      	LDD  R26,Y+6
0013ae 81bf      	LDD  R27,Y+6+1
0013af 912d      	LD   R18,X+
0013b0 83ae      	STD  Y+6,R26
0013b1 83bf      	STD  Y+6+1,R27
                 _0x2000054:
0013b2 940e 19d3 	CALL SUBOPT_0xC1
0013b4 3050      	CPI  R21,0
0013b5 f009      	BREQ _0x2000055
0013b6 5051      	SUBI R21,LOW(1)
                 _0x2000055:
0013b7 5031      	SUBI R19,LOW(1)
0013b8 cfea      	RJMP _0x2000050
                 _0x2000052:
0013b9 c04b      	RJMP _0x2000056
                 _0x200004F:
                 _0x2000058:
0013ba e320      	LDI  R18,LOW(48)
0013bb 81ee      	LDD  R30,Y+6
0013bc 81ff      	LDD  R31,Y+6+1
0013bd 940e 1adc 	CALL __GETW1PF
0013bf 87e8      	STD  Y+8,R30
0013c0 87f9      	STD  Y+8+1,R31
0013c1 81ee      	LDD  R30,Y+6
0013c2 81ff      	LDD  R31,Y+6+1
0013c3 9632      	ADIW R30,2
0013c4 83ee      	STD  Y+6,R30
0013c5 83ff      	STD  Y+6+1,R31
                 _0x200005A:
0013c6 85e8      	LDD  R30,Y+8
0013c7 85f9      	LDD  R31,Y+8+1
0013c8 85aa      	LDD  R26,Y+10
0013c9 85bb      	LDD  R27,Y+10+1
0013ca 17ae      	CP   R26,R30
0013cb 07bf      	CPC  R27,R31
0013cc f050      	BRLO _0x200005C
0013cd 5f2f      	SUBI R18,-LOW(1)
0013ce 85a8      	LDD  R26,Y+8
0013cf 85b9      	LDD  R27,Y+8+1
0013d0 85ea      	LDD  R30,Y+10
0013d1 85fb      	LDD  R31,Y+10+1
0013d2 1bea      	SUB  R30,R26
0013d3 0bfb      	SBC  R31,R27
0013d4 87ea      	STD  Y+10,R30
0013d5 87fb      	STD  Y+10+1,R31
0013d6 cfef      	RJMP _0x200005A
                 _0x200005C:
0013d7 332a      	CPI  R18,58
0013d8 f028      	BRLO _0x200005D
0013d9 ff03      	SBRS R16,3
0013da c002      	RJMP _0x200005E
0013db 5f29      	SUBI R18,-LOW(7)
0013dc c001      	RJMP _0x200005F
                 _0x200005E:
0013dd 5d29      	SUBI R18,-LOW(39)
                 _0x200005F:
                 _0x200005D:
0013de fd04      	SBRC R16,4
0013df c01a      	RJMP _0x2000061
0013e0 3321      	CPI  R18,49
0013e1 f420      	BRSH _0x2000063
0013e2 85a8      	LDD  R26,Y+8
0013e3 85b9      	LDD  R27,Y+8+1
0013e4 9711      	SBIW R26,1
0013e5 f409      	BRNE _0x2000062
                 _0x2000063:
0013e6 c009      	RJMP _0x20000CA
                 _0x2000062:
0013e7 1753      	CP   R21,R19
0013e8 f010      	BRLO _0x2000067
0013e9 ff00      	SBRS R16,0
0013ea c001      	RJMP _0x2000068
                 _0x2000067:
0013eb c013      	RJMP _0x2000066
                 _0x2000068:
0013ec e220      	LDI  R18,LOW(32)
0013ed ff07      	SBRS R16,7
0013ee c00b      	RJMP _0x2000069
0013ef e320      	LDI  R18,LOW(48)
                 _0x20000CA:
0013f0 6100      	ORI  R16,LOW(16)
0013f1 ff02      	SBRS R16,2
0013f2 c007      	RJMP _0x200006A
0013f3 7f0b      	ANDI R16,LOW(251)
0013f4 934a      	ST   -Y,R20
0013f5 940e 19e2 	CALL SUBOPT_0xC3
0013f7 3050      	CPI  R21,0
0013f8 f009      	BREQ _0x200006B
0013f9 5051      	SUBI R21,LOW(1)
                 _0x200006B:
                 _0x200006A:
                 _0x2000069:
                 _0x2000061:
0013fa 940e 19d3 	CALL SUBOPT_0xC1
0013fc 3050      	CPI  R21,0
0013fd f009      	BREQ _0x200006C
0013fe 5051      	SUBI R21,LOW(1)
                 _0x200006C:
                 _0x2000066:
0013ff 5031      	SUBI R19,LOW(1)
001400 85a8      	LDD  R26,Y+8
001401 85b9      	LDD  R27,Y+8+1
001402 9712      	SBIW R26,2
001403 f008      	BRLO _0x2000059
001404 cfb5      	RJMP _0x2000058
                 _0x2000059:
                 _0x2000056:
001405 ff00      	SBRS R16,0
001406 c008      	RJMP _0x200006D
                 _0x200006E:
001407 3050      	CPI  R21,0
001408 f031      	BREQ _0x2000070
001409 5051      	SUBI R21,LOW(1)
00140a e2e0      	LDI  R30,LOW(32)
00140b 93ea      	ST   -Y,R30
00140c 940e 19e2 	CALL SUBOPT_0xC3
00140e cff8      	RJMP _0x200006E
                 _0x2000070:
                 _0x200006D:
                 _0x2000071:
                 _0x2000030:
                 _0x20000C9:
00140f e010      	LDI  R17,LOW(0)
                 _0x200001B:
001410 cedd      	RJMP _0x2000016
                 _0x2000018:
001411 85ac      	LDD  R26,Y+12
001412 85bd      	LDD  R27,Y+12+1
001413 940e 1ace 	CALL __GETW1P
001415 940e 1af5 	CALL __LOADLOCR6
001417 9664      	ADIW R28,20
001418 9508      	RET
                 _printf:
001419 92ff      	PUSH R15
00141a 2ef8      	MOV  R15,R24
00141b 9726      	SBIW R28,6
00141c 931a      	ST   -Y,R17
00141d 930a      	ST   -Y,R16
00141e 01de      	MOVW R26,R28
00141f 9614      	ADIW R26,4
001420 940e 1a08 	CALL __ADDW2R15
001422 018d      	MOVW R16,R26
001423 e0e0      	LDI  R30,LOW(0)
001424 83ec      	STD  Y+4,R30
001425 83ed      	STD  Y+4+1,R30
001426 83ee      	STD  Y+6,R30
001427 83ef      	STD  Y+6+1,R30
001428 01de      	MOVW R26,R28
001429 9618      	ADIW R26,8
00142a 940e 1a08 	CALL __ADDW2R15
00142c 940e 1ace 	CALL __GETW1P
00142e 93fa      	ST   -Y,R31
00142f 93ea      	ST   -Y,R30
001430 931a      	ST   -Y,R17
001431 930a      	ST   -Y,R16
001432 edeb      	LDI  R30,LOW(_put_usart_G100)
001433 e1f2      	LDI  R31,HIGH(_put_usart_G100)
001434 93fa      	ST   -Y,R31
001435 93ea      	ST   -Y,R30
001436 01fe      	MOVW R30,R28
001437 9638      	ADIW R30,8
001438 93fa      	ST   -Y,R31
001439 93ea      	ST   -Y,R30
00143a dea9      	RCALL __print_G100
00143b 8119      	LDD  R17,Y+1
00143c 8108      	LDD  R16,Y+0
00143d 9628      	ADIW R28,8
00143e 90ff      	POP  R15
00143f 9508      	RET
                 
                 	.CSEG
                 _strlen:
001440 91a9          ld   r26,y+
001441 91b9          ld   r27,y+
001442 27ee          clr  r30
001443 27ff          clr  r31
                 strlen0:
001444 916d          ld   r22,x+
001445 2366          tst  r22
001446 f011          breq strlen1
001447 9631          adiw r30,1
001448 cffb          rjmp strlen0
                 strlen1:
001449 9508          ret
                 _strlenf:
00144a 27aa          clr  r26
00144b 27bb          clr  r27
00144c 91e9          ld   r30,y+
00144d 91f9          ld   r31,y+
                 strlenf0:
00144e 9005      	lpm  r0,z+
00144f 2000          tst  r0
001450 f011          breq strlenf1
001451 9611          adiw r26,1
001452 cffb          rjmp strlenf0
                 strlenf1:
001453 01fd          movw r30,r26
001454 9508          ret
                 
                 	.CSEG
                 
                 	.DSEG
                 
                 	.CSEG
                 
                 	.CSEG
                 
                 	.CSEG
                 
                 	.DSEG
                 _skonczony_proces:
000500           	.BYTE 0x14
                 _proces:
000514           	.BYTE 0x14
                 _licznik_pucharow:
000528           	.BYTE 0x2
                 _licznik:
00052a           	.BYTE 0x2
                 _jest_pret_pod_czujnikami:
00052c           	.BYTE 0x2
                 _czas_silnika_dokrecajacego_grzybki:
00052e           	.BYTE 0x2
                 _czas_silnika_dokrecajacego_grzybki_stala:
000530           	.BYTE 0x2
                 _il_pretow_gwintowanych:
000532           	.BYTE 0x2
                 _dlugosc_preta_gwintowanego:
000534           	.BYTE 0x2
                 _sek0:
000536           	.BYTE 0x4
                 _sek1:
00053a           	.BYTE 0x4
                 _sek2:
00053e           	.BYTE 0x4
                 _sek3:
000542           	.BYTE 0x4
                 _sek0_7s:
000546           	.BYTE 0x4
                 _sek1_7s:
00054a           	.BYTE 0x4
                 _sek2_7s:
00054e           	.BYTE 0x4
                 _sek3_7s:
000552           	.BYTE 0x4
                 _czas_monterow:
000556           	.BYTE 0x4
                 _czas_na_transport_preta:
00055a           	.BYTE 0x4
                 _monter_1_time:
00055e           	.BYTE 0x4
                 _monter_2_time:
000562           	.BYTE 0x4
                 _monter_3_time:
000566           	.BYTE 0x4
                 _stala_czasowa:
00056a           	.BYTE 0x4
                 _licznik_spoznien_monter_1:
00056e           	.BYTE 0x2
                 _licznik_spoznien_monter_2:
000570           	.BYTE 0x2
                 _licznik_spoznien_monter_3:
000572           	.BYTE 0x2
                 _licznik_spoznien_monter_1_2:
000574           	.BYTE 0x2
                 _licznik_spoznien_monter_3_nowy:
000576           	.BYTE 0x2
                 _d:
000578           	.BYTE 0x2
                 _dd:
00057a           	.BYTE 0x2
                 _gg:
00057c           	.BYTE 0x2
                 _klej:
00057e           	.BYTE 0x2
                 _klej_slave:
000580           	.BYTE 0x2
                 _monter_slave:
000582           	.BYTE 0x2
                 _ff:
000584           	.BYTE 0x2
                 _z:
000586           	.BYTE 0x1
                 _grzybek:
000587           	.BYTE 0x2
                 _il_grzybkow:
000589           	.BYTE 0x2
                 _kontrola_grzybkow:
00058b           	.BYTE 0x2
                 _licz:
00058d           	.BYTE 0x2
                 _grzybek_biezacy_dokrecony:
00058f           	.BYTE 0x2
                 _grzybek_dokrecony:
000591           	.BYTE 0x2
                 _oproznij_podajnik:
000593           	.BYTE 0x2
                 _metalowe_grzybki:
000595           	.BYTE 0x2
                 _zajechalem:
000597           	.BYTE 0x2
                 _sekwencja:
000599           	.BYTE 0x2
                 _pierwszy_raz:
00059b           	.BYTE 0x2
                 _czas_monterow_stala:
00059d           	.BYTE 0x2
                 _il_pretow_gwintowanych_stala:
00059f           	.BYTE 0x2
                 _oczekiwanie_na_poprawienie:
0005a1           	.BYTE 0x2
                 _potw_zielonym_bo_pomyliles_pedal_z_potwierdz:
0005a3           	.BYTE 0x2
                 _czekaj_komunikat:
0005a5           	.BYTE 0x2
                 _przejechalem_czujnik_lub_jestem_na_nim:
0005a7           	.BYTE 0x2
                 _licznik_niezakreconych_grzybkow:
0005a9           	.BYTE 0x2
                 _grzybek_jest_nakrecony_na_precie:
0005ab           	.BYTE 0x2
                 _licznik_wylatujacych_grzybkow:
0005ad           	.BYTE 0x2
                 _licznik_wyzwolen_kurtyny:
0005af           	.BYTE 0x2
                 _licznik_pucharow_global:
0005b1           	.BYTE 0x2
                 _czas_zaloczonego_orientatora:
0005b3           	.BYTE 0x4
                 _zaloczono_kurtyne:
0005b7           	.BYTE 0x2
                 _anuluj_biezace_zlecenie:
0005b9           	.BYTE 0x2
                 _licznik_niewlozonych_pretow_z_grzybkiem:
0005bb           	.BYTE 0x2
                 _anuluj_biezace_zlecenie_const:
0005bd           	.BYTE 0x2
                 _msek_clock:
0005bf           	.BYTE 0x2
                 _sek_clock:
0005c1           	.BYTE 0x2
                 _min_clock:
0005c3           	.BYTE 0x2
                 _godz_clock:
0005c5           	.BYTE 0x2
                 _przez_sek_clock:
0005c7           	.BYTE 0x2
                 _przez_min_clock:
0005c9           	.BYTE 0x2
                 _przez_godz_clock:
0005cb           	.BYTE 0x2
                 _tryb_male_puchary:
0005cd           	.BYTE 0x2
                 _predkosc_wiezyczek_male_puchary:
0005cf           	.BYTE 0x2
                 _wynik_wyboru_male_puchary:
0005d1           	.BYTE 0x2
                 _wielkosc_kamienia:
0005d3           	.BYTE 0x2
                 __seed_G102:
0005d5           	.BYTE 0x4
                 
                 	.CSEG
                 ;OPTIMIZER ADDED SUBROUTINE, CALLED 3 TIMES, CODE SIZE REDUCTION:3 WORDS
                 SUBOPT_0x0:
001455 e0e0      	LDI  R30,LOW(0)
001456 93e0 05bf 	STS  _msek_clock,R30
001458 93e0 05c0 	STS  _msek_clock+1,R30
00145a 9508      	RET
                 
                 ;OPTIMIZER ADDED SUBROUTINE, CALLED 3 TIMES, CODE SIZE REDUCTION:3 WORDS
                 SUBOPT_0x1:
00145b e0e0      	LDI  R30,LOW(0)
00145c 93e0 05c1 	STS  _sek_clock,R30
00145e 93e0 05c2 	STS  _sek_clock+1,R30
001460 9508      	RET
                 
                 ;OPTIMIZER ADDED SUBROUTINE, CALLED 3 TIMES, CODE SIZE REDUCTION:3 WORDS
                 SUBOPT_0x2:
001461 e0e0      	LDI  R30,LOW(0)
001462 93e0 05c3 	STS  _min_clock,R30
001464 93e0 05c4 	STS  _min_clock+1,R30
001466 9508      	RET
                 
                 ;OPTIMIZER ADDED SUBROUTINE, CALLED 5 TIMES, CODE SIZE REDUCTION:21 WORDS
                 SUBOPT_0x3:
001467 940e 1ad2 	CALL __GETD1P_INC
                +
001469 5fef     +SUBI R30 , LOW ( - 1 )
00146a 4fff     +SBCI R31 , HIGH ( - 1 )
00146b 4f6f     +SBCI R22 , BYTE3 ( - 1 )
00146c 4f7f     +SBCI R23 , BYTE4 ( - 1 )
                 	__SUBD1N -1
00146d 940e 1ad7 	CALL __PUTDP1_DEC
00146f 9508      	RET
                 
                 ;OPTIMIZER ADDED SUBROUTINE, CALLED 27 TIMES, CODE SIZE REDUCTION:75 WORDS
                 SUBOPT_0x4:
001470 91ed      	LD   R30,X+
001471 91fd      	LD   R31,X+
001472 9631      	ADIW R30,1
001473 93fe      	ST   -X,R31
001474 93ee      	ST   -X,R30
001475 9508      	RET
                 
                 ;OPTIMIZER ADDED SUBROUTINE, CALLED 3 TIMES, CODE SIZE REDUCTION:1 WORDS
                 SUBOPT_0x5:
001476 91a0 05c1 	LDS  R26,_sek_clock
001478 91b0 05c2 	LDS  R27,_sek_clock+1
00147a 9508      	RET
                 
                 ;OPTIMIZER ADDED SUBROUTINE, CALLED 3 TIMES, CODE SIZE REDUCTION:1 WORDS
                 SUBOPT_0x6:
00147b 91a0 05c3 	LDS  R26,_min_clock
00147d 91b0 05c4 	LDS  R27,_min_clock+1
00147f 9508      	RET
                 
                 ;OPTIMIZER ADDED SUBROUTINE, CALLED 9 TIMES, CODE SIZE REDUCTION:13 WORDS
                 SUBOPT_0x7:
001480 e0e1      	LDI  R30,LOW(1)
001481 940e 1a22 	CALL __EQB12
001483 2e0e      	MOV  R0,R30
001484 9508      	RET
                 
                 ;OPTIMIZER ADDED SUBROUTINE, CALLED 2 TIMES, CODE SIZE REDUCTION:1 WORDS
                 SUBOPT_0x8:
001485 e0a0      	LDI  R26,0
001486 99c9      	SBIC 0x19,1
001487 e0a1      	LDI  R26,1
001488 e0e0      	LDI  R30,LOW(0)
001489 940e 1a22 	CALL __EQB12
00148b 9508      	RET
                 
                 ;OPTIMIZER ADDED SUBROUTINE, CALLED 3 TIMES, CODE SIZE REDUCTION:5 WORDS
                 SUBOPT_0x9:
                +
00148c eae0     +LDI R30 , LOW ( 0x186A0 )
00148d e8f6     +LDI R31 , HIGH ( 0x186A0 )
00148e e061     +LDI R22 , BYTE3 ( 0x186A0 )
00148f e070     +LDI R23 , BYTE4 ( 0x186A0 )
                 	__GETD1N 0x186A0
001490 940e 1a4d 	CALL __GTD12
001492 9508      	RET
                 
                 ;OPTIMIZER ADDED SUBROUTINE, CALLED 2 TIMES, CODE SIZE REDUCTION:4 WORDS
                 SUBOPT_0xA:
001493 e0e0      	LDI  R30,LOW(0)
001494 93e0 05b3 	STS  _czas_zaloczonego_orientatora,R30
001496 93e0 05b4 	STS  _czas_zaloczonego_orientatora+1,R30
001498 93e0 05b5 	STS  _czas_zaloczonego_orientatora+2,R30
00149a 93e0 05b6 	STS  _czas_zaloczonego_orientatora+3,R30
00149c 9508      	RET
                 
                 ;OPTIMIZER ADDED SUBROUTINE, CALLED 5 TIMES, CODE SIZE REDUCTION:5 WORDS
                 SUBOPT_0xB:
00149d 931a      	ST   -Y,R17
00149e 930a      	ST   -Y,R16
                +
00149f e000     +LDI R16 , LOW ( 0 )
0014a0 e010     +LDI R17 , HIGH ( 0 )
                 	__GETWRN 16,17,0
0014a1 9508      	RET
                 
                 ;OPTIMIZER ADDED SUBROUTINE, CALLED 2 TIMES, CODE SIZE REDUCTION:2 WORDS
                 SUBOPT_0xC:
0014a2 ede0      	LDI  R30,LOW(2000)
0014a3 e0f7      	LDI  R31,HIGH(2000)
0014a4 93fa      	ST   -Y,R31
0014a5 93ea      	ST   -Y,R30
0014a6 940e 19fc 	CALL _delay_ms
0014a8 9894      	CBI  0x12,4
0014a9 9508      	RET
                 
                 ;OPTIMIZER ADDED SUBROUTINE, CALLED 52 TIMES, CODE SIZE REDUCTION:303 WORDS
                 SUBOPT_0xD:
0014aa e5ea      	LDI  R30,LOW(90)
0014ab 93ea      	ST   -Y,R30
0014ac 940e 12d5 	CALL _putchar
0014ae eae5      	LDI  R30,LOW(165)
0014af 93ea      	ST   -Y,R30
0014b0 940c 12d5 	JMP  _putchar
                 
                 ;OPTIMIZER ADDED SUBROUTINE, CALLED 9 TIMES, CODE SIZE REDUCTION:77 WORDS
                 SUBOPT_0xE:
0014b2 e0e5      	LDI  R30,LOW(5)
0014b3 93ea      	ST   -Y,R30
0014b4 940e 12d5 	CALL _putchar
0014b6 e8e2      	LDI  R30,LOW(130)
0014b7 93ea      	ST   -Y,R30
0014b8 940e 12d5 	CALL _putchar
0014ba e0e0      	LDI  R30,LOW(0)
0014bb 93ea      	ST   -Y,R30
0014bc 940c 12d5 	JMP  _putchar
                 
                 ;OPTIMIZER ADDED SUBROUTINE, CALLED 5 TIMES, CODE SIZE REDUCTION:5 WORDS
                 SUBOPT_0xF:
0014be e3e0      	LDI  R30,LOW(48)
0014bf 93ea      	ST   -Y,R30
0014c0 940c 12d5 	JMP  _putchar
                 
                 ;OPTIMIZER ADDED SUBROUTINE, CALLED 39 TIMES, CODE SIZE REDUCTION:73 WORDS
                 SUBOPT_0x10:
0014c2 e0e0      	LDI  R30,LOW(0)
0014c3 93ea      	ST   -Y,R30
0014c4 940c 12d5 	JMP  _putchar
                 
                 ;OPTIMIZER ADDED SUBROUTINE, CALLED 5 TIMES, CODE SIZE REDUCTION:29 WORDS
                 SUBOPT_0x11:
0014c6 e0e4      	LDI  R30,LOW(4)
0014c7 93ea      	ST   -Y,R30
0014c8 940e 12d5 	CALL _putchar
0014ca e8e3      	LDI  R30,LOW(131)
0014cb 93ea      	ST   -Y,R30
0014cc 940e 12d5 	CALL _putchar
0014ce cff3      	RJMP SUBOPT_0x10
                 
                 ;OPTIMIZER ADDED SUBROUTINE, CALLED 9 TIMES, CODE SIZE REDUCTION:157 WORDS
                 SUBOPT_0x12:
0014cf e0e1      	LDI  R30,LOW(1)
0014d0 93ea      	ST   -Y,R30
0014d1 940e 12d5 	CALL _putchar
0014d3 940e 12d1 	CALL _getchar
0014d5 940e 12d1 	CALL _getchar
0014d7 940e 12d1 	CALL _getchar
0014d9 940e 12d1 	CALL _getchar
0014db 940e 12d1 	CALL _getchar
0014dd 940e 12d1 	CALL _getchar
0014df 940e 12d1 	CALL _getchar
0014e1 940e 12d1 	CALL _getchar
0014e3 940c 12d1 	JMP  _getchar
                 
                 ;OPTIMIZER ADDED SUBROUTINE, CALLED 4 TIMES, CODE SIZE REDUCTION:3 WORDS
                 SUBOPT_0x13:
0014e5 e6e0      	LDI  R30,LOW(96)
0014e6 93ea      	ST   -Y,R30
0014e7 940c 12d5 	JMP  _putchar
                 
                 ;OPTIMIZER ADDED SUBROUTINE, CALLED 3 TIMES, CODE SIZE REDUCTION:3 WORDS
                 SUBOPT_0x14:
0014e9 e0e0      	LDI  R30,LOW(0)
0014ea 93e0 058d 	STS  _licz,R30
0014ec 93e0 058e 	STS  _licz+1,R30
0014ee 9508      	RET
                 
                 ;OPTIMIZER ADDED SUBROUTINE, CALLED 2 TIMES, CODE SIZE REDUCTION:8 WORDS
                 SUBOPT_0x15:
0014ef e0e3      	LDI  R30,LOW(3)
0014f0 93ea      	ST   -Y,R30
0014f1 940e 12d5 	CALL _putchar
0014f3 e8e0      	LDI  R30,LOW(128)
0014f4 93ea      	ST   -Y,R30
0014f5 940e 12d5 	CALL _putchar
0014f7 e0e2      	LDI  R30,LOW(2)
0014f8 93ea      	ST   -Y,R30
0014f9 940e 12d5 	CALL _putchar
0014fb e1e0      	LDI  R30,LOW(16)
0014fc 9508      	RET
                 
                 ;OPTIMIZER ADDED SUBROUTINE, CALLED 2 TIMES, CODE SIZE REDUCTION:5 WORDS
                 SUBOPT_0x16:
0014fd e2e3      	LDI  R30,LOW(35)
0014fe 93ea      	ST   -Y,R30
0014ff 940e 12d5 	CALL _putchar
001501 e8e2      	LDI  R30,LOW(130)
001502 93ea      	ST   -Y,R30
001503 940e 12d5 	CALL _putchar
001505 cfbc      	RJMP SUBOPT_0x10
                 
                 ;OPTIMIZER ADDED SUBROUTINE, CALLED 18 TIMES, CODE SIZE REDUCTION:31 WORDS
                 SUBOPT_0x17:
001506 e9e0      	LDI  R30,LOW(144)
001507 93ea      	ST   -Y,R30
001508 940c 12d5 	JMP  _putchar
                 
                 ;OPTIMIZER ADDED SUBROUTINE, CALLED 2 TIMES, CODE SIZE REDUCTION:5 WORDS
                 SUBOPT_0x18:
                +
00150a e9ee     +LDI R30 , LOW ( 2 * _0x0 + ( 0 ) )
00150b e0f0     +LDI R31 , HIGH ( 2 * _0x0 + ( 0 ) )
                 	__POINTW1FN _0x0,0
00150c 93fa      	ST   -Y,R31
00150d 93ea      	ST   -Y,R30
00150e e080      	LDI  R24,0
00150f 940e 1419 	CALL _printf
001511 9622      	ADIW R28,2
001512 cf97      	RJMP SUBOPT_0xD
                 
                 ;OPTIMIZER ADDED SUBROUTINE, CALLED 15 TIMES, CODE SIZE REDUCTION:95 WORDS
                 SUBOPT_0x19:
001513 93ea      	ST   -Y,R30
001514 940e 12d5 	CALL _putchar
001516 e8e2      	LDI  R30,LOW(130)
001517 93ea      	ST   -Y,R30
001518 940e 12d5 	CALL _putchar
00151a cfa7      	RJMP SUBOPT_0x10
                 
                 ;OPTIMIZER ADDED SUBROUTINE, CALLED 7 TIMES, CODE SIZE REDUCTION:21 WORDS
                 SUBOPT_0x1A:
00151b 93fa      	ST   -Y,R31
00151c 93ea      	ST   -Y,R30
00151d e080      	LDI  R24,0
00151e 940e 1419 	CALL _printf
001520 9622      	ADIW R28,2
001521 9508      	RET
                 
                 ;OPTIMIZER ADDED SUBROUTINE, CALLED 2 TIMES, CODE SIZE REDUCTION:1 WORDS
                 SUBOPT_0x1B:
001522 e4e0      	LDI  R30,LOW(64)
001523 93ea      	ST   -Y,R30
001524 940e 12d5 	CALL _putchar
001526 cfa8      	RJMP SUBOPT_0x12
                 
                 ;OPTIMIZER ADDED SUBROUTINE, CALLED 3 TIMES, CODE SIZE REDUCTION:1 WORDS
                 SUBOPT_0x1C:
001527 93e0 0534 	STS  _dlugosc_preta_gwintowanego,R30
001529 93f0 0535 	STS  _dlugosc_preta_gwintowanego+1,R31
00152b 9508      	RET
                 
                 ;OPTIMIZER ADDED SUBROUTINE, CALLED 7 TIMES, CODE SIZE REDUCTION:9 WORDS
                 SUBOPT_0x1D:
00152c 91a0 0534 	LDS  R26,_dlugosc_preta_gwintowanego
00152e 91b0 0535 	LDS  R27,_dlugosc_preta_gwintowanego+1
001530 9508      	RET
                 
                 ;OPTIMIZER ADDED SUBROUTINE, CALLED 2 TIMES, CODE SIZE REDUCTION:7 WORDS
                 SUBOPT_0x1E:
001531 e0e4      	LDI  R30,LOW(4)
001532 93ea      	ST   -Y,R30
001533 940e 12d5 	CALL _putchar
001535 e8e3      	LDI  R30,LOW(131)
001536 93ea      	ST   -Y,R30
001537 940e 12d5 	CALL _putchar
001539 e1e0      	LDI  R30,LOW(16)
00153a 93ea      	ST   -Y,R30
00153b 940c 12d5 	JMP  _putchar
                 
                 ;OPTIMIZER ADDED SUBROUTINE, CALLED 13 TIMES, CODE SIZE REDUCTION:21 WORDS
                 SUBOPT_0x1F:
00153d e1e0      	LDI  R30,LOW(16)
00153e 93ea      	ST   -Y,R30
00153f 940c 12d5 	JMP  _putchar
                 
                 ;OPTIMIZER ADDED SUBROUTINE, CALLED 4 TIMES, CODE SIZE REDUCTION:3 WORDS
                 SUBOPT_0x20:
001541 2f2e      	MOV  R18,R30
001542 2733      	CLR  R19
001543 2e02      	MOV  R0,R18
001544 2a03      	OR   R0,R19
001545 9508      	RET
                 
                 ;OPTIMIZER ADDED SUBROUTINE, CALLED 11 TIMES, CODE SIZE REDUCTION:17 WORDS
                 SUBOPT_0x21:
001546 e2e0      	LDI  R30,LOW(32)
001547 93ea      	ST   -Y,R30
001548 940c 12d5 	JMP  _putchar
                 
                 ;OPTIMIZER ADDED SUBROUTINE, CALLED 2 TIMES, CODE SIZE REDUCTION:1 WORDS
                 SUBOPT_0x22:
00154a e5e0      	LDI  R30,LOW(80)
00154b 93ea      	ST   -Y,R30
00154c 940e 12d5 	CALL _putchar
00154e cf80      	RJMP SUBOPT_0x12
                 
                 ;OPTIMIZER ADDED SUBROUTINE, CALLED 2 TIMES, CODE SIZE REDUCTION:1 WORDS
                 SUBOPT_0x23:
00154f 81ae      	LDD  R26,Y+6
001550 81bf      	LDD  R27,Y+6+1
001551 e0e1      	LDI  R30,LOW(1)
001552 e0f0      	LDI  R31,HIGH(1)
001553 940e 1a27 	CALL __EQW12
001555 9508      	RET
                 
                 ;OPTIMIZER ADDED SUBROUTINE, CALLED 8 TIMES, CODE SIZE REDUCTION:18 WORDS
                 SUBOPT_0x24:
001556 e0e0      	LDI  R30,LOW(0)
001557 e0f0      	LDI  R31,HIGH(0)
001558 940e 1a27 	CALL __EQW12
00155a 2e0e      	MOV  R0,R30
00155b 9508      	RET
                 
                 ;OPTIMIZER ADDED SUBROUTINE, CALLED 6 TIMES, CODE SIZE REDUCTION:7 WORDS
                 SUBOPT_0x25:
00155c 91a0 0532 	LDS  R26,_il_pretow_gwintowanych
00155e 91b0 0533 	LDS  R27,_il_pretow_gwintowanych+1
001560 9508      	RET
                 
                 ;OPTIMIZER ADDED SUBROUTINE, CALLED 6 TIMES, CODE SIZE REDUCTION:27 WORDS
                 SUBOPT_0x26:
001561 91e0 0556 	LDS  R30,_czas_monterow
001563 91f0 0557 	LDS  R31,_czas_monterow+1
001565 9160 0558 	LDS  R22,_czas_monterow+2
001567 9170 0559 	LDS  R23,_czas_monterow+3
001569 9508      	RET
                 
                 ;OPTIMIZER ADDED SUBROUTINE, CALLED 3 TIMES, CODE SIZE REDUCTION:1 WORDS
                 SUBOPT_0x27:
00156a e7e0      	LDI  R30,LOW(112)
00156b 93ea      	ST   -Y,R30
00156c 940c 12d5 	JMP  _putchar
                 
                 ;OPTIMIZER ADDED SUBROUTINE, CALLED 6 TIMES, CODE SIZE REDUCTION:7 WORDS
                 SUBOPT_0x28:
00156e e0e1      	LDI  R30,LOW(1)
00156f 93ea      	ST   -Y,R30
001570 940c 12d5 	JMP  _putchar
                 
                 ;OPTIMIZER ADDED SUBROUTINE, CALLED 2 TIMES, CODE SIZE REDUCTION:1 WORDS
                 SUBOPT_0x29:
001572 940e 12d1 	CALL _getchar
001574 940e 12d1 	CALL _getchar
001576 940c 12d1 	JMP  _getchar
                 
                 ;OPTIMIZER ADDED SUBROUTINE, CALLED 3 TIMES, CODE SIZE REDUCTION:1 WORDS
                 SUBOPT_0x2A:
001578 93e0 0532 	STS  _il_pretow_gwintowanych,R30
00157a 93f0 0533 	STS  _il_pretow_gwintowanych+1,R31
00157c 9508      	RET
                 
                 ;OPTIMIZER ADDED SUBROUTINE, CALLED 2 TIMES, CODE SIZE REDUCTION:3 WORDS
                 SUBOPT_0x2B:
00157d 91e0 0532 	LDS  R30,_il_pretow_gwintowanych
00157f 91f0 0533 	LDS  R31,_il_pretow_gwintowanych+1
001581 93e0 059f 	STS  _il_pretow_gwintowanych_stala,R30
001583 93f0 05a0 	STS  _il_pretow_gwintowanych_stala+1,R31
001585 9508      	RET
                 
                 ;OPTIMIZER ADDED SUBROUTINE, CALLED 3 TIMES, CODE SIZE REDUCTION:13 WORDS
                 SUBOPT_0x2C:
001586 e0e4      	LDI  R30,LOW(4)
001587 93ea      	ST   -Y,R30
001588 940e 12d5 	CALL _putchar
00158a e8e3      	LDI  R30,LOW(131)
00158b 93ea      	ST   -Y,R30
00158c 940e 12d5 	CALL _putchar
00158e cfb7      	RJMP SUBOPT_0x21
                 
                 ;OPTIMIZER ADDED SUBROUTINE, CALLED 6 TIMES, CODE SIZE REDUCTION:52 WORDS
                 SUBOPT_0x2D:
00158f 91a0 05cf 	LDS  R26,_predkosc_wiezyczek_male_puchary
001591 91b0 05d0 	LDS  R27,_predkosc_wiezyczek_male_puchary+1
001593 e0e1      	LDI  R30,LOW(1)
001594 e0f0      	LDI  R31,HIGH(1)
001595 940e 1a27 	CALL __EQW12
001597 2e0e      	MOV  R0,R30
001598 91a0 05d3 	LDS  R26,_wielkosc_kamienia
00159a 91b0 05d4 	LDS  R27,_wielkosc_kamienia+1
00159c 9508      	RET
                 
                 ;OPTIMIZER ADDED SUBROUTINE, CALLED 11 TIMES, CODE SIZE REDUCTION:17 WORDS
                 SUBOPT_0x2E:
00159d 93e0 05d1 	STS  _wynik_wyboru_male_puchary,R30
00159f 93f0 05d2 	STS  _wynik_wyboru_male_puchary+1,R31
0015a1 9508      	RET
                 
                 ;OPTIMIZER ADDED SUBROUTINE, CALLED 6 TIMES, CODE SIZE REDUCTION:52 WORDS
                 SUBOPT_0x2F:
0015a2 91a0 05cf 	LDS  R26,_predkosc_wiezyczek_male_puchary
0015a4 91b0 05d0 	LDS  R27,_predkosc_wiezyczek_male_puchary+1
0015a6 e0e2      	LDI  R30,LOW(2)
0015a7 e0f0      	LDI  R31,HIGH(2)
0015a8 940e 1a27 	CALL __EQW12
0015aa 2e0e      	MOV  R0,R30
0015ab 91a0 05d3 	LDS  R26,_wielkosc_kamienia
0015ad 91b0 05d4 	LDS  R27,_wielkosc_kamienia+1
0015af 9508      	RET
                 
                 ;OPTIMIZER ADDED SUBROUTINE, CALLED 2 TIMES, CODE SIZE REDUCTION:1 WORDS
                 SUBOPT_0x30:
0015b0 e4e0      	LDI  R30,LOW(64)
0015b1 93ea      	ST   -Y,R30
0015b2 940e 12d5 	CALL _putchar
0015b4 cf0d      	RJMP SUBOPT_0x10
                 
                 ;OPTIMIZER ADDED SUBROUTINE, CALLED 7 TIMES, CODE SIZE REDUCTION:15 WORDS
                 SUBOPT_0x31:
0015b5 93ea      	ST   -Y,R30
0015b6 940e 12d5 	CALL _putchar
0015b8 cef1      	RJMP SUBOPT_0xD
                 
                 ;OPTIMIZER ADDED SUBROUTINE, CALLED 3 TIMES, CODE SIZE REDUCTION:5 WORDS
                 SUBOPT_0x32:
0015b9 e5e0      	LDI  R30,LOW(80)
0015ba 93ea      	ST   -Y,R30
0015bb 940e 12d5 	CALL _putchar
0015bd cf04      	RJMP SUBOPT_0x10
                 
                 ;OPTIMIZER ADDED SUBROUTINE, CALLED 8 TIMES, CODE SIZE REDUCTION:53 WORDS
                 SUBOPT_0x33:
0015be e0e5      	LDI  R30,LOW(5)
0015bf 93ea      	ST   -Y,R30
0015c0 940e 12d5 	CALL _putchar
0015c2 e8e2      	LDI  R30,LOW(130)
0015c3 93ea      	ST   -Y,R30
0015c4 940e 12d5 	CALL _putchar
0015c6 cf76      	RJMP SUBOPT_0x1F
                 
                 ;OPTIMIZER ADDED SUBROUTINE, CALLED 3 TIMES, CODE SIZE REDUCTION:13 WORDS
                 SUBOPT_0x34:
0015c7 e0e5      	LDI  R30,LOW(5)
0015c8 93ea      	ST   -Y,R30
0015c9 940e 12d5 	CALL _putchar
0015cb e8e2      	LDI  R30,LOW(130)
0015cc 93ea      	ST   -Y,R30
0015cd 940e 12d5 	CALL _putchar
0015cf cf76      	RJMP SUBOPT_0x21
                 
                 ;OPTIMIZER ADDED SUBROUTINE, CALLED 4 TIMES, CODE SIZE REDUCTION:6 WORDS
                 SUBOPT_0x35:
0015d0 81ae      	LDD  R26,Y+6
0015d1 81bf      	LDD  R27,Y+6+1
0015d2 30a0      	CPI  R26,LOW(0x100)
0015d3 e0e1      	LDI  R30,HIGH(0x100)
0015d4 07be      	CPC  R27,R30
0015d5 9508      	RET
                 
                 ;OPTIMIZER ADDED SUBROUTINE, CALLED 4 TIMES, CODE SIZE REDUCTION:3 WORDS
                 SUBOPT_0x36:
0015d6 81ae      	LDD  R26,Y+6
0015d7 81bf      	LDD  R27,Y+6+1
0015d8 efef      	LDI  R30,LOW(255)
0015d9 e0f0      	LDI  R31,HIGH(255)
0015da 9508      	RET
                 
                 ;OPTIMIZER ADDED SUBROUTINE, CALLED 5 TIMES, CODE SIZE REDUCTION:5 WORDS
                 SUBOPT_0x37:
                +
0015db e000     +LDI R16 , LOW ( 0 )
0015dc e010     +LDI R17 , HIGH ( 0 )
                 	__GETWRN 16,17,0
                +
0015dd e020     +LDI R18 , LOW ( 0 )
0015de e030     +LDI R19 , HIGH ( 0 )
                 	__GETWRN 18,19,0
0015df 9508      	RET
                 
                 ;OPTIMIZER ADDED SUBROUTINE, CALLED 2 TIMES, CODE SIZE REDUCTION:1 WORDS
                 SUBOPT_0x38:
0015e0 93ea      	ST   -Y,R30
0015e1 940e 12d5 	CALL _putchar
0015e3 930a      	ST   -Y,R16
0015e4 940c 12d5 	JMP  _putchar
                 
                 ;OPTIMIZER ADDED SUBROUTINE, CALLED 4 TIMES, CODE SIZE REDUCTION:3 WORDS
                 SUBOPT_0x39:
0015e6 efaf      	LDI  R26,LOW(255)
0015e7 020a      	MULS R16,R26
0015e8 01f0      	MOVW R30,R0
0015e9 0fe2      	ADD  R30,R18
0015ea 9508      	RET
                 
                 ;OPTIMIZER ADDED SUBROUTINE, CALLED 4 TIMES, CODE SIZE REDUCTION:6 WORDS
                 SUBOPT_0x3A:
0015eb 81ac      	LDD  R26,Y+4
0015ec 81bd      	LDD  R27,Y+4+1
0015ed 30a0      	CPI  R26,LOW(0x100)
0015ee e0e1      	LDI  R30,HIGH(0x100)
0015ef 07be      	CPC  R27,R30
0015f0 9508      	RET
                 
                 ;OPTIMIZER ADDED SUBROUTINE, CALLED 4 TIMES, CODE SIZE REDUCTION:3 WORDS
                 SUBOPT_0x3B:
0015f1 81ac      	LDD  R26,Y+4
0015f2 81bd      	LDD  R27,Y+4+1
0015f3 efef      	LDI  R30,LOW(255)
0015f4 e0f0      	LDI  R31,HIGH(255)
0015f5 9508      	RET
                 
                 ;OPTIMIZER ADDED SUBROUTINE, CALLED 2 TIMES, CODE SIZE REDUCTION:5 WORDS
                 SUBOPT_0x3C:
0015f6 e0eb      	LDI  R30,LOW(11)
0015f7 93ea      	ST   -Y,R30
0015f8 940e 12d5 	CALL _putchar
0015fa e8e2      	LDI  R30,LOW(130)
0015fb 93ea      	ST   -Y,R30
0015fc 940e 12d5 	CALL _putchar
0015fe cf47      	RJMP SUBOPT_0x21
                 
                 ;OPTIMIZER ADDED SUBROUTINE, CALLED 2 TIMES, CODE SIZE REDUCTION:7 WORDS
                 SUBOPT_0x3D:
0015ff 91e0 05c1 	LDS  R30,_sek_clock
001601 91f0 05c2 	LDS  R31,_sek_clock+1
001603 940e 1a18 	CALL __CWD1
001605 940e 1ae0 	CALL __PUTPARD1
001607 e084      	LDI  R24,4
001608 940e 1419 	CALL _printf
00160a 9626      	ADIW R28,6
00160b 9508      	RET
                 
                 ;OPTIMIZER ADDED SUBROUTINE, CALLED 6 TIMES, CODE SIZE REDUCTION:7 WORDS
                 SUBOPT_0x3E:
                +
00160c e8e0     +LDI R30 , LOW ( 2 * _0x0 + ( 738 ) )
00160d e0f3     +LDI R31 , HIGH ( 2 * _0x0 + ( 738 ) )
                 	__POINTW1FN _0x0,738
00160e cf0c      	RJMP SUBOPT_0x1A
                 
                 ;OPTIMIZER ADDED SUBROUTINE, CALLED 2 TIMES, CODE SIZE REDUCTION:7 WORDS
                 SUBOPT_0x3F:
00160f 91e0 05c3 	LDS  R30,_min_clock
001611 91f0 05c4 	LDS  R31,_min_clock+1
001613 940e 1a18 	CALL __CWD1
001615 940e 1ae0 	CALL __PUTPARD1
001617 e084      	LDI  R24,4
001618 940e 1419 	CALL _printf
00161a 9626      	ADIW R28,6
00161b 9508      	RET
                 
                 ;OPTIMIZER ADDED SUBROUTINE, CALLED 2 TIMES, CODE SIZE REDUCTION:7 WORDS
                 SUBOPT_0x40:
00161c 91e0 05c5 	LDS  R30,_godz_clock
00161e 91f0 05c6 	LDS  R31,_godz_clock+1
001620 940e 1a18 	CALL __CWD1
001622 940e 1ae0 	CALL __PUTPARD1
001624 e084      	LDI  R24,4
001625 940e 1419 	CALL _printf
001627 9626      	ADIW R28,6
001628 9508      	RET
                 
                 ;OPTIMIZER ADDED SUBROUTINE, CALLED 3 TIMES, CODE SIZE REDUCTION:1 WORDS
                 SUBOPT_0x41:
001629 91a0 05c7 	LDS  R26,_przez_sek_clock
00162b 91b0 05c8 	LDS  R27,_przez_sek_clock+1
00162d 9508      	RET
                 
                 ;OPTIMIZER ADDED SUBROUTINE, CALLED 3 TIMES, CODE SIZE REDUCTION:1 WORDS
                 SUBOPT_0x42:
00162e 91a0 05c9 	LDS  R26,_przez_min_clock
001630 91b0 05ca 	LDS  R27,_przez_min_clock+1
001632 9508      	RET
                 
                 ;OPTIMIZER ADDED SUBROUTINE, CALLED 3 TIMES, CODE SIZE REDUCTION:1 WORDS
                 SUBOPT_0x43:
001633 91a0 05cb 	LDS  R26,_przez_godz_clock
001635 91b0 05cc 	LDS  R27,_przez_godz_clock+1
001637 9508      	RET
                 
                 ;OPTIMIZER ADDED SUBROUTINE, CALLED 3 TIMES, CODE SIZE REDUCTION:9 WORDS
                 SUBOPT_0x44:
001638 940e 1a18 	CALL __CWD1
00163a 940e 1ae0 	CALL __PUTPARD1
00163c e084      	LDI  R24,4
00163d 940e 1419 	CALL _printf
00163f 9626      	ADIW R28,6
001640 9508      	RET
                 
                 ;OPTIMIZER ADDED SUBROUTINE, CALLED 3 TIMES, CODE SIZE REDUCTION:3 WORDS
                 SUBOPT_0x45:
001641 e0e0      	LDI  R30,LOW(0)
001642 93e0 05b7 	STS  _zaloczono_kurtyne,R30
001644 93e0 05b8 	STS  _zaloczono_kurtyne+1,R30
001646 9508      	RET
                 
                 ;OPTIMIZER ADDED SUBROUTINE, CALLED 3 TIMES, CODE SIZE REDUCTION:5 WORDS
                 SUBOPT_0x46:
001647 e9e0      	LDI  R30,LOW(400)
001648 e0f1      	LDI  R31,HIGH(400)
001649 93fa      	ST   -Y,R31
00164a 93ea      	ST   -Y,R30
00164b 940c 19fc 	JMP  _delay_ms
                 
                 ;OPTIMIZER ADDED SUBROUTINE, CALLED 2 TIMES, CODE SIZE REDUCTION:1 WORDS
                 SUBOPT_0x47:
00164d e0e1      	LDI  R30,LOW(1)
00164e e0f0      	LDI  R31,HIGH(1)
00164f 93e0 0599 	STS  _sekwencja,R30
001651 93f0 059a 	STS  _sekwencja+1,R31
001653 9508      	RET
                 
                 ;OPTIMIZER ADDED SUBROUTINE, CALLED 3 TIMES, CODE SIZE REDUCTION:5 WORDS
                 SUBOPT_0x48:
001654 e0e2      	LDI  R30,LOW(2)
001655 e0f0      	LDI  R31,HIGH(2)
001656 93e0 0599 	STS  _sekwencja,R30
001658 93f0 059a 	STS  _sekwencja+1,R31
00165a 9508      	RET
                 
                 ;OPTIMIZER ADDED SUBROUTINE, CALLED 2 TIMES, CODE SIZE REDUCTION:4 WORDS
                 SUBOPT_0x49:
00165b 940e 0369 	CALL _komunikat_czysc_na_panel
00165d e0e3      	LDI  R30,LOW(3)
00165e e0f0      	LDI  R31,HIGH(3)
00165f 93e0 0599 	STS  _sekwencja,R30
001661 93f0 059a 	STS  _sekwencja+1,R31
001663 981e      	CBI  0x3,6
001664 9508      	RET
                 
                 ;OPTIMIZER ADDED SUBROUTINE, CALLED 4 TIMES, CODE SIZE REDUCTION:3 WORDS
                 SUBOPT_0x4A:
001665 93e0 0597 	STS  _zajechalem,R30
001667 93f0 0598 	STS  _zajechalem+1,R31
001669 9508      	RET
                 
                 ;OPTIMIZER ADDED SUBROUTINE, CALLED 2 TIMES, CODE SIZE REDUCTION:1 WORDS
                 SUBOPT_0x4B:
00166a e0e4      	LDI  R30,LOW(4)
00166b e0f0      	LDI  R31,HIGH(4)
00166c 93e0 0599 	STS  _sekwencja,R30
00166e 93f0 059a 	STS  _sekwencja+1,R31
001670 9508      	RET
                 
                 ;OPTIMIZER ADDED SUBROUTINE, CALLED 4 TIMES, CODE SIZE REDUCTION:3 WORDS
                 SUBOPT_0x4C:
001671 91a0 0597 	LDS  R26,_zajechalem
001673 91b0 0598 	LDS  R27,_zajechalem+1
001675 9508      	RET
                 
                 ;OPTIMIZER ADDED SUBROUTINE, CALLED 8 TIMES, CODE SIZE REDUCTION:18 WORDS
                 SUBOPT_0x4D:
001676 e0e0      	LDI  R30,LOW(0)
001677 93e0 0599 	STS  _sekwencja,R30
001679 93e0 059a 	STS  _sekwencja+1,R30
00167b 9508      	RET
                 
                 ;OPTIMIZER ADDED SUBROUTINE, CALLED 3 TIMES, CODE SIZE REDUCTION:7 WORDS
                 SUBOPT_0x4E:
00167c e0e0      	LDI  R30,LOW(0)
00167d 93e0 0597 	STS  _zajechalem,R30
00167f 93e0 0598 	STS  _zajechalem+1,R30
001681 cff4      	RJMP SUBOPT_0x4D
                 
                 ;OPTIMIZER ADDED SUBROUTINE, CALLED 2 TIMES, CODE SIZE REDUCTION:5 WORDS
                 SUBOPT_0x4F:
001682 e0e1      	LDI  R30,LOW(1)
001683 e0f0      	LDI  R31,HIGH(1)
001684 93e0 05b7 	STS  _zaloczono_kurtyne,R30
001686 93f0 05b8 	STS  _zaloczono_kurtyne+1,R31
001688 eaaf      	LDI  R26,LOW(_licznik_wyzwolen_kurtyny)
001689 e0b5      	LDI  R27,HIGH(_licznik_wyzwolen_kurtyny)
00168a cde5      	RJMP SUBOPT_0x4
                 
                 ;OPTIMIZER ADDED SUBROUTINE, CALLED 4 TIMES, CODE SIZE REDUCTION:105 WORDS
                 SUBOPT_0x50:
00168b 91e0 05ad 	LDS  R30,_licznik_wylatujacych_grzybkow
00168d 91f0 05ae 	LDS  R31,_licznik_wylatujacych_grzybkow+1
00168f 93fa      	ST   -Y,R31
001690 93ea      	ST   -Y,R30
001691 91e0 05a9 	LDS  R30,_licznik_niezakreconych_grzybkow
001693 91f0 05aa 	LDS  R31,_licznik_niezakreconych_grzybkow+1
001695 93fa      	ST   -Y,R31
001696 93ea      	ST   -Y,R30
001697 91e0 05af 	LDS  R30,_licznik_wyzwolen_kurtyny
001699 91f0 05b0 	LDS  R31,_licznik_wyzwolen_kurtyny+1
00169b 93fa      	ST   -Y,R31
00169c 93ea      	ST   -Y,R30
00169d 91e0 05bb 	LDS  R30,_licznik_niewlozonych_pretow_z_grzybkiem
00169f 91f0 05bc 	LDS  R31,_licznik_niewlozonych_pretow_z_grzybkiem+1
0016a1 93fa      	ST   -Y,R31
0016a2 93ea      	ST   -Y,R30
0016a3 91e0 0574 	LDS  R30,_licznik_spoznien_monter_1_2
0016a5 91f0 0575 	LDS  R31,_licznik_spoznien_monter_1_2+1
0016a7 93fa      	ST   -Y,R31
0016a8 93ea      	ST   -Y,R30
0016a9 91e0 0576 	LDS  R30,_licznik_spoznien_monter_3_nowy
0016ab 91f0 0577 	LDS  R31,_licznik_spoznien_monter_3_nowy+1
0016ad 93fa      	ST   -Y,R31
0016ae 93ea      	ST   -Y,R30
0016af 940c 06e4 	JMP  _wyswietl_parametry
                 
                 ;OPTIMIZER ADDED SUBROUTINE, CALLED 6 TIMES, CODE SIZE REDUCTION:17 WORDS
                 SUBOPT_0x51:
0016b1 eee8      	LDI  R30,LOW(1000)
0016b2 e0f3      	LDI  R31,HIGH(1000)
0016b3 93fa      	ST   -Y,R31
0016b4 93ea      	ST   -Y,R30
0016b5 940c 19fc 	JMP  _delay_ms
                 
                 ;OPTIMIZER ADDED SUBROUTINE, CALLED 5 TIMES, CODE SIZE REDUCTION:9 WORDS
                 SUBOPT_0x52:
0016b7 e0e0      	LDI  R30,LOW(0)
                +
0016b8 87ea     +STD Y + 10 , R30
0016b9 87eb     +STD Y + 10 + 1 , R30
0016ba 87ec     +STD Y + 10 + 2 , R30
0016bb 87ed     +STD Y + 10 + 3 , R30
                 	__CLRD1S 10
0016bc 9508      	RET
                 
                 ;OPTIMIZER ADDED SUBROUTINE, CALLED 4 TIMES, CODE SIZE REDUCTION:6 WORDS
                 SUBOPT_0x53:
0016bd e0e0      	LDI  R30,LOW(0)
                +
0016be 83ee     +STD Y + 6 , R30
0016bf 83ef     +STD Y + 6 + 1 , R30
0016c0 87e8     +STD Y + 6 + 2 , R30
0016c1 87e9     +STD Y + 6 + 3 , R30
                 	__CLRD1S 6
0016c2 9508      	RET
                 
                 ;OPTIMIZER ADDED SUBROUTINE, CALLED 2 TIMES, CODE SIZE REDUCTION:1 WORDS
                 SUBOPT_0x54:
0016c3 e0e5      	LDI  R30,LOW(5)
0016c4 e0f0      	LDI  R31,HIGH(5)
0016c5 93e0 0599 	STS  _sekwencja,R30
0016c7 93f0 059a 	STS  _sekwencja+1,R31
0016c9 9508      	RET
                 
                 ;OPTIMIZER ADDED SUBROUTINE, CALLED 2 TIMES, CODE SIZE REDUCTION:18 WORDS
                 SUBOPT_0x55:
0016ca 01d8      	MOVW R26,R16
0016cb e0e1      	LDI  R30,LOW(1)
0016cc e0f0      	LDI  R31,HIGH(1)
0016cd 940e 1a27 	CALL __EQW12
0016cf 2e0e      	MOV  R0,R30
0016d0 e0e2      	LDI  R30,LOW(2)
0016d1 e0f0      	LDI  R31,HIGH(2)
0016d2 940e 1a27 	CALL __EQW12
0016d4 2a0e      	OR   R0,R30
0016d5 e0e3      	LDI  R30,LOW(3)
0016d6 e0f0      	LDI  R31,HIGH(3)
0016d7 940e 1a27 	CALL __EQW12
0016d9 2a0e      	OR   R0,R30
0016da e0e4      	LDI  R30,LOW(4)
0016db e0f0      	LDI  R31,HIGH(4)
0016dc 940e 1a27 	CALL __EQW12
0016de 9508      	RET
                 
                 ;OPTIMIZER ADDED SUBROUTINE, CALLED 5 TIMES, CODE SIZE REDUCTION:9 WORDS
                 SUBOPT_0x56:
0016df 2a0e      	OR   R0,R30
0016e0 91a0 0599 	LDS  R26,_sekwencja
0016e2 91b0 059a 	LDS  R27,_sekwencja+1
0016e4 9508      	RET
                 
                 ;OPTIMIZER ADDED SUBROUTINE, CALLED 21 TIMES, CODE SIZE REDUCTION:37 WORDS
                 SUBOPT_0x57:
0016e5 e0e0      	LDI  R30,LOW(0)
0016e6 e0f0      	LDI  R31,HIGH(0)
0016e7 940e 1a27 	CALL __EQW12
0016e9 9508      	RET
                 
                 ;OPTIMIZER ADDED SUBROUTINE, CALLED 38 TIMES, CODE SIZE REDUCTION:71 WORDS
                 SUBOPT_0x58:
0016ea e0e1      	LDI  R30,LOW(1)
0016eb e0f0      	LDI  R31,HIGH(1)
0016ec 940e 1a27 	CALL __EQW12
0016ee 9508      	RET
                 
                 ;OPTIMIZER ADDED SUBROUTINE, CALLED 3 TIMES, CODE SIZE REDUCTION:1 WORDS
                 SUBOPT_0x59:
0016ef e0e2      	LDI  R30,LOW(2)
0016f0 e0f0      	LDI  R31,HIGH(2)
0016f1 940e 1a27 	CALL __EQW12
0016f3 9508      	RET
                 
                 ;OPTIMIZER ADDED SUBROUTINE, CALLED 3 TIMES, CODE SIZE REDUCTION:3 WORDS
                 SUBOPT_0x5A:
0016f4 01d6      	MOVW R26,R12
0016f5 e0e8      	LDI  R30,LOW(8)
0016f6 e0f0      	LDI  R31,HIGH(8)
0016f7 940e 1a33 	CALL __GEW12
0016f9 9508      	RET
                 
                 ;OPTIMIZER ADDED SUBROUTINE, CALLED 4 TIMES, CODE SIZE REDUCTION:3 WORDS
                 SUBOPT_0x5B:
                +
0016fa 81ae     +LDD R26 , Y + 6
0016fb 81bf     +LDD R27 , Y + 6 + 1
0016fc 8588     +LDD R24 , Y + 6 + 2
0016fd 8599     +LDD R25 , Y + 6 + 3
                 	__GETD2S 6
0016fe 9508      	RET
                 
                 ;OPTIMIZER ADDED SUBROUTINE, CALLED 2 TIMES, CODE SIZE REDUCTION:1 WORDS
                 SUBOPT_0x5C:
0016ff e0a0      	LDI  R26,0
001700 99cd      	SBIC 0x19,5
001701 e0a1      	LDI  R26,1
001702 e0e0      	LDI  R30,LOW(0)
001703 940e 1a22 	CALL __EQB12
001705 9508      	RET
                 
                 ;OPTIMIZER ADDED SUBROUTINE, CALLED 4 TIMES, CODE SIZE REDUCTION:3 WORDS
                 SUBOPT_0x5D:
001706 2e0e      	MOV  R0,R30
001707 e0a0      	LDI  R26,0
001708 99cf      	SBIC 0x19,7
001709 e0a1      	LDI  R26,1
00170a 9508      	RET
                 
                 ;OPTIMIZER ADDED SUBROUTINE, CALLED 4 TIMES, CODE SIZE REDUCTION:3 WORDS
                 SUBOPT_0x5E:
00170b e0e1      	LDI  R30,LOW(1)
00170c 940e 1a22 	CALL __EQB12
00170e 21e0      	AND  R30,R0
00170f 9508      	RET
                 
                 ;OPTIMIZER ADDED SUBROUTINE, CALLED 8 TIMES, CODE SIZE REDUCTION:11 WORDS
                 SUBOPT_0x5F:
001710 e0e0      	LDI  R30,LOW(0)
001711 940e 1a22 	CALL __EQB12
001713 21e0      	AND  R30,R0
001714 9508      	RET
                 
                 ;OPTIMIZER ADDED SUBROUTINE, CALLED 2 TIMES, CODE SIZE REDUCTION:1 WORDS
                 SUBOPT_0x60:
001715 e0e1      	LDI  R30,LOW(1)
001716 e0f0      	LDI  R31,HIGH(1)
001717 93e0 05a7 	STS  _przejechalem_czujnik_lub_jestem_na_nim,R30
001719 93f0 05a8 	STS  _przejechalem_czujnik_lub_jestem_na_nim+1,R31
00171b 9508      	RET
                 
                 ;OPTIMIZER ADDED SUBROUTINE, CALLED 2 TIMES, CODE SIZE REDUCTION:1 WORDS
                 SUBOPT_0x61:
00171c e0e0      	LDI  R30,LOW(0)
00171d 93e0 05ab 	STS  _grzybek_jest_nakrecony_na_precie,R30
00171f 93e0 05ac 	STS  _grzybek_jest_nakrecony_na_precie+1,R30
001721 9508      	RET
                 
                 ;OPTIMIZER ADDED SUBROUTINE, CALLED 8 TIMES, CODE SIZE REDUCTION:39 WORDS
                 SUBOPT_0x62:
001722 93e0 053a 	STS  _sek1,R30
001724 93e0 053b 	STS  _sek1+1,R30
001726 93e0 053c 	STS  _sek1+2,R30
001728 93e0 053d 	STS  _sek1+3,R30
00172a 9508      	RET
                 
                 ;OPTIMIZER ADDED SUBROUTINE, CALLED 5 TIMES, CODE SIZE REDUCTION:21 WORDS
                 SUBOPT_0x63:
00172b 91a0 053a 	LDS  R26,_sek1
00172d 91b0 053b 	LDS  R27,_sek1+1
00172f 9180 053c 	LDS  R24,_sek1+2
001731 9190 053d 	LDS  R25,_sek1+3
001733 9508      	RET
                 
                 ;OPTIMIZER ADDED SUBROUTINE, CALLED 3 TIMES, CODE SIZE REDUCTION:5 WORDS
                 SUBOPT_0x64:
                +
001734 e0e5     +LDI R30 , LOW ( 0x5 )
001735 e0f0     +LDI R31 , HIGH ( 0x5 )
001736 e060     +LDI R22 , BYTE3 ( 0x5 )
001737 e070     +LDI R23 , BYTE4 ( 0x5 )
                 	__GETD1N 0x5
001738 940e 1a4d 	CALL __GTD12
00173a 9508      	RET
                 
                 ;OPTIMIZER ADDED SUBROUTINE, CALLED 2 TIMES, CODE SIZE REDUCTION:2 WORDS
                 SUBOPT_0x65:
00173b e0a0      	LDI  R26,0
00173c 9907      	SBIC 0x0,7
00173d e0a1      	LDI  R26,1
00173e e0e0      	LDI  R30,LOW(0)
00173f 940e 1a22 	CALL __EQB12
001741 2e0e      	MOV  R0,R30
001742 9508      	RET
                 
                 ;OPTIMIZER ADDED SUBROUTINE, CALLED 2 TIMES, CODE SIZE REDUCTION:6 WORDS
                 SUBOPT_0x66:
                +
001743 85aa     +LDD R26 , Y + 10
001744 85bb     +LDD R27 , Y + 10 + 1
001745 858c     +LDD R24 , Y + 10 + 2
001746 859d     +LDD R25 , Y + 10 + 3
                 	__GETD2S 10
                +
001747 3ea9     +CPI R26 , LOW ( 0x3E9 )
001748 e0e3     +LDI R30 , HIGH ( 0x3E9 )
001749 07be     +CPC R27 , R30
00174a e0e0     +LDI R30 , BYTE3 ( 0x3E9 )
00174b 078e     +CPC R24 , R30
00174c e0e0     +LDI R30 , BYTE4 ( 0x3E9 )
00174d 079e     +CPC R25 , R30
                 	__CPD2N 0x3E9
00174e 9508      	RET
                 
                 ;OPTIMIZER ADDED SUBROUTINE, CALLED 8 TIMES, CODE SIZE REDUCTION:18 WORDS
                 SUBOPT_0x67:
00174f 01d6      	MOVW R26,R12
001750 e0ea      	LDI  R30,LOW(10)
001751 e0f0      	LDI  R31,HIGH(10)
001752 940e 1a33 	CALL __GEW12
001754 9508      	RET
                 
                 ;OPTIMIZER ADDED SUBROUTINE, CALLED 9 TIMES, CODE SIZE REDUCTION:13 WORDS
                 SUBOPT_0x68:
001755 91a0 05cd 	LDS  R26,_tryb_male_puchary
001757 91b0 05ce 	LDS  R27,_tryb_male_puchary+1
001759 9508      	RET
                 
                 ;OPTIMIZER ADDED SUBROUTINE, CALLED 2 TIMES, CODE SIZE REDUCTION:1 WORDS
                 SUBOPT_0x69:
00175a 01d6      	MOVW R26,R12
00175b e0e9      	LDI  R30,LOW(9)
00175c e0f0      	LDI  R31,HIGH(9)
00175d 940e 1a33 	CALL __GEW12
00175f 2e0e      	MOV  R0,R30
001760 9508      	RET
                 
                 ;OPTIMIZER ADDED SUBROUTINE, CALLED 4 TIMES, CODE SIZE REDUCTION:3 WORDS
                 SUBOPT_0x6A:
001761 dff3      	RCALL SUBOPT_0x68
001762 cf87      	RJMP SUBOPT_0x58
                 
                 ;OPTIMIZER ADDED SUBROUTINE, CALLED 4 TIMES, CODE SIZE REDUCTION:3 WORDS
                 SUBOPT_0x6B:
                +
001763 5fef     +SUBI R30 , LOW ( - 1 )
001764 4fff     +SBCI R31 , HIGH ( - 1 )
001765 4f6f     +SBCI R22 , BYTE3 ( - 1 )
001766 4f7f     +SBCI R23 , BYTE4 ( - 1 )
                 	__SUBD1N -1
001767 9508      	RET
                 
                 ;OPTIMIZER ADDED SUBROUTINE, CALLED 2 TIMES, CODE SIZE REDUCTION:1 WORDS
                 SUBOPT_0x6C:
001768 efe4      	LDI  R30,LOW(500)
001769 e0f1      	LDI  R31,HIGH(500)
00176a 93fa      	ST   -Y,R31
00176b 93ea      	ST   -Y,R30
00176c 940c 19fc 	JMP  _delay_ms
                 
                 ;OPTIMIZER ADDED SUBROUTINE, CALLED 9 TIMES, CODE SIZE REDUCTION:13 WORDS
                 SUBOPT_0x6D:
00176e e0e0      	LDI  R30,LOW(0)
00176f 940e 1a22 	CALL __EQB12
001771 2e0e      	MOV  R0,R30
001772 9508      	RET
                 
                 ;OPTIMIZER ADDED SUBROUTINE, CALLED 3 TIMES, CODE SIZE REDUCTION:5 WORDS
                 SUBOPT_0x6E:
001773 e0e1      	LDI  R30,LOW(1)
001774 e0f0      	LDI  R31,HIGH(1)
001775 93fa      	ST   -Y,R31
001776 93ea      	ST   -Y,R30
001777 940c 0379 	JMP  _odpytaj_parametry_z_panelu
                 
                 ;OPTIMIZER ADDED SUBROUTINE, CALLED 2 TIMES, CODE SIZE REDUCTION:3 WORDS
                 SUBOPT_0x6F:
001779 98aa      	CBI  0x15,2
00177a 9a1a      	SBI  0x3,2
00177b ebe8      	LDI  R30,LOW(3000)
00177c e0fb      	LDI  R31,HIGH(3000)
00177d 93fa      	ST   -Y,R31
00177e 93ea      	ST   -Y,R30
00177f 940c 19fc 	JMP  _delay_ms
                 
                 ;OPTIMIZER ADDED SUBROUTINE, CALLED 4 TIMES, CODE SIZE REDUCTION:3 WORDS
                 SUBOPT_0x70:
001781 93fa      	ST   -Y,R31
001782 93ea      	ST   -Y,R30
001783 940c 19fc 	JMP  _delay_ms
                 
                 ;OPTIMIZER ADDED SUBROUTINE, CALLED 3 TIMES, CODE SIZE REDUCTION:1 WORDS
                 SUBOPT_0x71:
001785 ede0      	LDI  R30,LOW(2000)
001786 e0f7      	LDI  R31,HIGH(2000)
001787 cff9      	RJMP SUBOPT_0x70
                 
                 ;OPTIMIZER ADDED SUBROUTINE, CALLED 6 TIMES, CODE SIZE REDUCTION:7 WORDS
                 SUBOPT_0x72:
001788 940e 02a6 	CALL _czekaj_na_guzik_start
00178a 93e0 0586 	STS  _z,R30
00178c 9508      	RET
                 
                 ;OPTIMIZER ADDED SUBROUTINE, CALLED 2 TIMES, CODE SIZE REDUCTION:3 WORDS
                 SUBOPT_0x73:
00178d 91e0 05d1 	LDS  R30,_wynik_wyboru_male_puchary
00178f 91f0 05d2 	LDS  R31,_wynik_wyboru_male_puchary+1
001791 93fa      	ST   -Y,R31
001792 93ea      	ST   -Y,R30
001793 940c 0999 	JMP  _komunikacja_startowa_male_puchary
                 
                 ;OPTIMIZER ADDED SUBROUTINE, CALLED 5 TIMES, CODE SIZE REDUCTION:5 WORDS
                 SUBOPT_0x74:
001795 93e0 057e 	STS  _klej,R30
001797 93f0 057f 	STS  _klej+1,R31
001799 9508      	RET
                 
                 ;OPTIMIZER ADDED SUBROUTINE, CALLED 3 TIMES, CODE SIZE REDUCTION:3 WORDS
                 SUBOPT_0x75:
00179a e0e0      	LDI  R30,LOW(0)
00179b 93e0 05a5 	STS  _czekaj_komunikat,R30
00179d 93e0 05a6 	STS  _czekaj_komunikat+1,R30
00179f 9508      	RET
                 
                 ;OPTIMIZER ADDED SUBROUTINE, CALLED 3 TIMES, CODE SIZE REDUCTION:3 WORDS
                 SUBOPT_0x76:
0017a0 e0e0      	LDI  R30,LOW(0)
0017a1 93e0 0582 	STS  _monter_slave,R30
0017a3 93e0 0583 	STS  _monter_slave+1,R30
0017a5 9508      	RET
                 
                 ;OPTIMIZER ADDED SUBROUTINE, CALLED 3 TIMES, CODE SIZE REDUCTION:1 WORDS
                 SUBOPT_0x77:
0017a6 93e0 0582 	STS  _monter_slave,R30
0017a8 93f0 0583 	STS  _monter_slave+1,R31
0017aa 9508      	RET
                 
                 ;OPTIMIZER ADDED SUBROUTINE, CALLED 3 TIMES, CODE SIZE REDUCTION:5 WORDS
                 SUBOPT_0x78:
0017ab e0e1      	LDI  R30,LOW(1)
0017ac e0f0      	LDI  R31,HIGH(1)
0017ad 93e0 0514 	STS  _proces,R30
0017af 93f0 0515 	STS  _proces+1,R31
0017b1 9508      	RET
                 
                 ;OPTIMIZER ADDED SUBROUTINE, CALLED 3 TIMES, CODE SIZE REDUCTION:3 WORDS
                 SUBOPT_0x79:
0017b2 e0a0      	LDI  R26,0
0017b3 99ca      	SBIC 0x19,2
0017b4 e0a1      	LDI  R26,1
0017b5 cfb8      	RJMP SUBOPT_0x6D
                 
                 ;OPTIMIZER ADDED SUBROUTINE, CALLED 3 TIMES, CODE SIZE REDUCTION:3 WORDS
                 SUBOPT_0x7A:
0017b6 e0a0      	LDI  R26,0
0017b7 99cb      	SBIC 0x19,3
0017b8 e0a1      	LDI  R26,1
0017b9 cf56      	RJMP SUBOPT_0x5F
                 
                 ;OPTIMIZER ADDED SUBROUTINE, CALLED 8 TIMES, CODE SIZE REDUCTION:46 WORDS
                 SUBOPT_0x7B:
0017ba e0e0      	LDI  R30,LOW(0)
0017bb 93e0 0536 	STS  _sek0,R30
0017bd 93e0 0537 	STS  _sek0+1,R30
0017bf 93e0 0538 	STS  _sek0+2,R30
0017c1 93e0 0539 	STS  _sek0+3,R30
0017c3 9508      	RET
                 
                 ;OPTIMIZER ADDED SUBROUTINE, CALLED 10 TIMES, CODE SIZE REDUCTION:15 WORDS
                 SUBOPT_0x7C:
0017c4 93e0 0514 	STS  _proces,R30
0017c6 93f0 0515 	STS  _proces+1,R31
0017c8 9508      	RET
                 
                 ;OPTIMIZER ADDED SUBROUTINE, CALLED 4 TIMES, CODE SIZE REDUCTION:9 WORDS
                 SUBOPT_0x7D:
0017c9 e0e1      	LDI  R30,LOW(1)
0017ca e0f0      	LDI  R31,HIGH(1)
0017cb 93e0 052c 	STS  _jest_pret_pod_czujnikami,R30
0017cd 93f0 052d 	STS  _jest_pret_pod_czujnikami+1,R31
0017cf 9508      	RET
                 
                 ;OPTIMIZER ADDED SUBROUTINE, CALLED 7 TIMES, CODE SIZE REDUCTION:33 WORDS
                 SUBOPT_0x7E:
0017d0 91a0 0536 	LDS  R26,_sek0
0017d2 91b0 0537 	LDS  R27,_sek0+1
0017d4 9180 0538 	LDS  R24,_sek0+2
0017d6 9190 0539 	LDS  R25,_sek0+3
0017d8 9508      	RET
                 
                 ;OPTIMIZER ADDED SUBROUTINE, CALLED 3 TIMES, CODE SIZE REDUCTION:7 WORDS
                 SUBOPT_0x7F:
                +
0017d9 32a9     +CPI R26 , LOW ( 0x29 )
0017da e0e0     +LDI R30 , HIGH ( 0x29 )
0017db 07be     +CPC R27 , R30
0017dc e0e0     +LDI R30 , BYTE3 ( 0x29 )
0017dd 078e     +CPC R24 , R30
0017de e0e0     +LDI R30 , BYTE4 ( 0x29 )
0017df 079e     +CPC R25 , R30
                 	__CPD2N 0x29
0017e0 9508      	RET
                 
                 ;OPTIMIZER ADDED SUBROUTINE, CALLED 4 TIMES, CODE SIZE REDUCTION:18 WORDS
                 SUBOPT_0x80:
0017e1 dfee      	RCALL SUBOPT_0x7E
                +
0017e2 31a5     +CPI R26 , LOW ( 0x15 )
0017e3 e0e0     +LDI R30 , HIGH ( 0x15 )
0017e4 07be     +CPC R27 , R30
0017e5 e0e0     +LDI R30 , BYTE3 ( 0x15 )
0017e6 078e     +CPC R24 , R30
0017e7 e0e0     +LDI R30 , BYTE4 ( 0x15 )
0017e8 079e     +CPC R25 , R30
                 	__CPD2N 0x15
0017e9 9508      	RET
                 
                 ;OPTIMIZER ADDED SUBROUTINE, CALLED 3 TIMES, CODE SIZE REDUCTION:17 WORDS
                 SUBOPT_0x81:
                +
0017ea e1e5     +LDI R30 , LOW ( 0x15 )
0017eb e0f0     +LDI R31 , HIGH ( 0x15 )
0017ec e060     +LDI R22 , BYTE3 ( 0x15 )
0017ed e070     +LDI R23 , BYTE4 ( 0x15 )
                 	__GETD1N 0x15
0017ee 93e0 0536 	STS  _sek0,R30
0017f0 93f0 0537 	STS  _sek0+1,R31
0017f2 9360 0538 	STS  _sek0+2,R22
0017f4 9370 0539 	STS  _sek0+3,R23
0017f6 9508      	RET
                 
                 ;OPTIMIZER ADDED SUBROUTINE, CALLED 5 TIMES, CODE SIZE REDUCTION:17 WORDS
                 SUBOPT_0x82:
                +
0017f7 33a3     +CPI R26 , LOW ( 0x33 )
0017f8 e0e0     +LDI R30 , HIGH ( 0x33 )
0017f9 07be     +CPC R27 , R30
0017fa e0e0     +LDI R30 , BYTE3 ( 0x33 )
0017fb 078e     +CPC R24 , R30
0017fc e0e0     +LDI R30 , BYTE4 ( 0x33 )
0017fd 079e     +CPC R25 , R30
                 	__CPD2N 0x33
0017fe 9508      	RET
                 
                 ;OPTIMIZER ADDED SUBROUTINE, CALLED 5 TIMES, CODE SIZE REDUCTION:9 WORDS
                 SUBOPT_0x83:
0017ff e0e0      	LDI  R30,LOW(0)
001800 df21      	RCALL SUBOPT_0x62
                +
001801 e1e6     +LDI R30 , LOW ( _proces + ( 2 ) )
001802 e0f5     +LDI R31 , HIGH ( _proces + ( 2 ) )
                 	__POINTW1MN _proces,2
001803 9508      	RET
                 
                 ;OPTIMIZER ADDED SUBROUTINE, CALLED 3 TIMES, CODE SIZE REDUCTION:1 WORDS
                 SUBOPT_0x84:
001804 e0a1      	LDI  R26,LOW(1)
001805 e0b0      	LDI  R27,HIGH(1)
001806 83a0      	STD  Z+0,R26
001807 83b1      	STD  Z+1,R27
001808 9508      	RET
                 
                 ;OPTIMIZER ADDED SUBROUTINE, CALLED 2 TIMES, CODE SIZE REDUCTION:2 WORDS
                 SUBOPT_0x85:
                +
001809 33ad     +CPI R26 , LOW ( 0x3D )
00180a e0e0     +LDI R30 , HIGH ( 0x3D )
00180b 07be     +CPC R27 , R30
00180c e0e0     +LDI R30 , BYTE3 ( 0x3D )
00180d 078e     +CPC R24 , R30
00180e e0e0     +LDI R30 , BYTE4 ( 0x3D )
00180f 079e     +CPC R25 , R30
                 	__CPD2N 0x3D
001810 9508      	RET
                 
                 ;OPTIMIZER ADDED SUBROUTINE, CALLED 3 TIMES, CODE SIZE REDUCTION:1 WORDS
                 SUBOPT_0x86:
001811 e0a2      	LDI  R26,LOW(2)
001812 e0b0      	LDI  R27,HIGH(2)
001813 83a0      	STD  Z+0,R26
001814 83b1      	STD  Z+1,R27
001815 9508      	RET
                 
                 ;OPTIMIZER ADDED SUBROUTINE, CALLED 3 TIMES, CODE SIZE REDUCTION:7 WORDS
                 SUBOPT_0x87:
                +
001816 31af     +CPI R26 , LOW ( 0x1F )
001817 e0e0     +LDI R30 , HIGH ( 0x1F )
001818 07be     +CPC R27 , R30
001819 e0e0     +LDI R30 , BYTE3 ( 0x1F )
00181a 078e     +CPC R24 , R30
00181b e0e0     +LDI R30 , BYTE4 ( 0x1F )
00181c 079e     +CPC R25 , R30
                 	__CPD2N 0x1F
00181d 9508      	RET
                 
                 ;OPTIMIZER ADDED SUBROUTINE, CALLED 3 TIMES, CODE SIZE REDUCTION:1 WORDS
                 SUBOPT_0x88:
00181e e0a3      	LDI  R26,LOW(3)
00181f e0b0      	LDI  R27,HIGH(3)
001820 83a0      	STD  Z+0,R26
001821 83b1      	STD  Z+1,R27
001822 9508      	RET
                 
                 ;OPTIMIZER ADDED SUBROUTINE, CALLED 4 TIMES, CODE SIZE REDUCTION:3 WORDS
                 SUBOPT_0x89:
001823 e0a4      	LDI  R26,LOW(4)
001824 e0b0      	LDI  R27,HIGH(4)
001825 83a0      	STD  Z+0,R26
001826 83b1      	STD  Z+1,R27
001827 9508      	RET
                 
                 ;OPTIMIZER ADDED SUBROUTINE, CALLED 3 TIMES, CODE SIZE REDUCTION:1 WORDS
                 SUBOPT_0x8A:
001828 e0a5      	LDI  R26,LOW(5)
001829 e0b0      	LDI  R27,HIGH(5)
00182a 83a0      	STD  Z+0,R26
00182b 83b1      	STD  Z+1,R27
00182c 9508      	RET
                 
                 ;OPTIMIZER ADDED SUBROUTINE, CALLED 3 TIMES, CODE SIZE REDUCTION:5 WORDS
                 SUBOPT_0x8B:
00182d e0a0      	LDI  R26,LOW(0)
00182e e0b0      	LDI  R27,HIGH(0)
00182f 83a0      	STD  Z+0,R26
001830 83b1      	STD  Z+1,R27
                +
001831 e001     +LDI R16 , LOW ( 1 )
001832 e010     +LDI R17 , HIGH ( 1 )
                 	__GETWRN 16,17,1
001833 9508      	RET
                 
                 ;OPTIMIZER ADDED SUBROUTINE, CALLED 15 TIMES, CODE SIZE REDUCTION:95 WORDS
                 SUBOPT_0x8C:
001834 e0e0      	LDI  R30,LOW(0)
001835 93e0 053e 	STS  _sek2,R30
001837 93e0 053f 	STS  _sek2+1,R30
001839 93e0 0540 	STS  _sek2+2,R30
00183b 93e0 0541 	STS  _sek2+3,R30
00183d 9508      	RET
                 
                 ;OPTIMIZER ADDED SUBROUTINE, CALLED 15 TIMES, CODE SIZE REDUCTION:81 WORDS
                 SUBOPT_0x8D:
00183e 91a0 053e 	LDS  R26,_sek2
001840 91b0 053f 	LDS  R27,_sek2+1
001842 9180 0540 	LDS  R24,_sek2+2
001844 9190 0541 	LDS  R25,_sek2+3
001846 9508      	RET
                 
                 ;OPTIMIZER ADDED SUBROUTINE, CALLED 2 TIMES, CODE SIZE REDUCTION:3 WORDS
                 SUBOPT_0x8E:
001847 e0e1      	LDI  R30,LOW(1)
001848 e0f0      	LDI  R31,HIGH(1)
001849 93e0 058f 	STS  _grzybek_biezacy_dokrecony,R30
00184b 93f0 0590 	STS  _grzybek_biezacy_dokrecony+1,R31
00184d cfe6      	RJMP SUBOPT_0x8C
                 
                 ;OPTIMIZER ADDED SUBROUTINE, CALLED 3 TIMES, CODE SIZE REDUCTION:5 WORDS
                 SUBOPT_0x8F:
                +
00184e e1e8     +LDI R30 , LOW ( _proces + ( 4 ) )
00184f e0f5     +LDI R31 , HIGH ( _proces + ( 4 ) )
                 	__POINTW1MN _proces,4
001850 e0a9      	LDI  R26,LOW(9)
001851 e0b0      	LDI  R27,HIGH(9)
001852 83a0      	STD  Z+0,R26
001853 83b1      	STD  Z+1,R27
001854 9508      	RET
                 
                 ;OPTIMIZER ADDED SUBROUTINE, CALLED 3 TIMES, CODE SIZE REDUCTION:7 WORDS
                 SUBOPT_0x90:
                +
001855 30ab     +CPI R26 , LOW ( 0xB )
001856 e0e0     +LDI R30 , HIGH ( 0xB )
001857 07be     +CPC R27 , R30
001858 e0e0     +LDI R30 , BYTE3 ( 0xB )
001859 078e     +CPC R24 , R30
00185a e0e0     +LDI R30 , BYTE4 ( 0xB )
00185b 079e     +CPC R25 , R30
                 	__CPD2N 0xB
00185c 9508      	RET
                 
                 ;OPTIMIZER ADDED SUBROUTINE, CALLED 2 TIMES, CODE SIZE REDUCTION:2 WORDS
                 SUBOPT_0x91:
                +
00185d 31a5     +CPI R26 , LOW ( 0x15 )
00185e e0e0     +LDI R30 , HIGH ( 0x15 )
00185f 07be     +CPC R27 , R30
001860 e0e0     +LDI R30 , BYTE3 ( 0x15 )
001861 078e     +CPC R24 , R30
001862 e0e0     +LDI R30 , BYTE4 ( 0x15 )
001863 079e     +CPC R25 , R30
                 	__CPD2N 0x15
001864 9508      	RET
                 
                 ;OPTIMIZER ADDED SUBROUTINE, CALLED 2 TIMES, CODE SIZE REDUCTION:2 WORDS
                 SUBOPT_0x92:
001865 e0e0      	LDI  R30,LOW(0)
001866 93e0 058f 	STS  _grzybek_biezacy_dokrecony,R30
001868 93e0 0590 	STS  _grzybek_biezacy_dokrecony+1,R30
00186a cfc9      	RJMP SUBOPT_0x8C
                 
                 ;OPTIMIZER ADDED SUBROUTINE, CALLED 6 TIMES, CODE SIZE REDUCTION:7 WORDS
                 SUBOPT_0x93:
00186b 91a0 058f 	LDS  R26,_grzybek_biezacy_dokrecony
00186d 91b0 0590 	LDS  R27,_grzybek_biezacy_dokrecony+1
00186f 9508      	RET
                 
                 ;OPTIMIZER ADDED SUBROUTINE, CALLED 3 TIMES, CODE SIZE REDUCTION:1 WORDS
                 SUBOPT_0x94:
001870 dffa      	RCALL SUBOPT_0x93
001871 ce78      	RJMP SUBOPT_0x58
                 
                 ;OPTIMIZER ADDED SUBROUTINE, CALLED 2 TIMES, CODE SIZE REDUCTION:1 WORDS
                 SUBOPT_0x95:
                +
001872 e1e8     +LDI R30 , LOW ( _proces + ( 4 ) )
001873 e0f5     +LDI R31 , HIGH ( _proces + ( 4 ) )
                 	__POINTW1MN _proces,4
001874 e0a8      	LDI  R26,LOW(8)
001875 e0b0      	LDI  R27,HIGH(8)
001876 83a0      	STD  Z+0,R26
001877 83b1      	STD  Z+1,R27
001878 9508      	RET
                 
                 ;OPTIMIZER ADDED SUBROUTINE, CALLED 2 TIMES, CODE SIZE REDUCTION:4 WORDS
                 SUBOPT_0x96:
001879 dfc4      	RCALL SUBOPT_0x8D
                +
00187a e0e0     +LDI R30 , LOW ( 0x0 )
00187b e0f0     +LDI R31 , HIGH ( 0x0 )
00187c e060     +LDI R22 , BYTE3 ( 0x0 )
00187d e070     +LDI R23 , BYTE4 ( 0x0 )
                 	__GETD1N 0x0
00187e 940e 1a4d 	CALL __GTD12
001880 2e0e      	MOV  R0,R30
001881 9508      	RET
                 
                 ;OPTIMIZER ADDED SUBROUTINE, CALLED 2 TIMES, CODE SIZE REDUCTION:5 WORDS
                 SUBOPT_0x97:
001882 98c7      	CBI  0x18,7
001883 dfba      	RCALL SUBOPT_0x8D
                +
001884 30ae     +CPI R26 , LOW ( 0xE )
001885 e0e0     +LDI R30 , HIGH ( 0xE )
001886 07be     +CPC R27 , R30
001887 e0e0     +LDI R30 , BYTE3 ( 0xE )
001888 078e     +CPC R24 , R30
001889 e0e0     +LDI R30 , BYTE4 ( 0xE )
00188a 079e     +CPC R25 , R30
                 	__CPD2N 0xE
00188b 9508      	RET
                 
                 ;OPTIMIZER ADDED SUBROUTINE, CALLED 13 TIMES, CODE SIZE REDUCTION:81 WORDS
                 SUBOPT_0x98:
00188c e0e0      	LDI  R30,LOW(0)
00188d 93e0 0542 	STS  _sek3,R30
00188f 93e0 0543 	STS  _sek3+1,R30
001891 93e0 0544 	STS  _sek3+2,R30
001893 93e0 0545 	STS  _sek3+3,R30
001895 9508      	RET
                 
                 ;OPTIMIZER ADDED SUBROUTINE, CALLED 10 TIMES, CODE SIZE REDUCTION:51 WORDS
                 SUBOPT_0x99:
001896 91a0 0542 	LDS  R26,_sek3
001898 91b0 0543 	LDS  R27,_sek3+1
00189a 9180 0544 	LDS  R24,_sek3+2
00189c 9190 0545 	LDS  R25,_sek3+3
00189e 9508      	RET
                 
                 ;OPTIMIZER ADDED SUBROUTINE, CALLED 6 TIMES, CODE SIZE REDUCTION:12 WORDS
                 SUBOPT_0x9A:
00189f e0e0      	LDI  R30,LOW(0)
0018a0 93e0 0500 	STS  _skonczony_proces,R30
0018a2 93e0 0501 	STS  _skonczony_proces+1,R30
0018a4 9508      	RET
                 
                 ;OPTIMIZER ADDED SUBROUTINE, CALLED 6 TIMES, CODE SIZE REDUCTION:17 WORDS
                 SUBOPT_0x9B:
                +
0018a5 e0e2     +LDI R30 , LOW ( _skonczony_proces + ( 2 ) )
0018a6 e0f5     +LDI R31 , HIGH ( _skonczony_proces + ( 2 ) )
                 	__POINTW1MN _skonczony_proces,2
0018a7 e0a0      	LDI  R26,LOW(0)
0018a8 e0b0      	LDI  R27,HIGH(0)
0018a9 83a0      	STD  Z+0,R26
0018aa 83b1      	STD  Z+1,R27
0018ab 9508      	RET
                 
                 ;OPTIMIZER ADDED SUBROUTINE, CALLED 6 TIMES, CODE SIZE REDUCTION:17 WORDS
                 SUBOPT_0x9C:
                +
0018ac e0e4     +LDI R30 , LOW ( _skonczony_proces + ( 4 ) )
0018ad e0f5     +LDI R31 , HIGH ( _skonczony_proces + ( 4 ) )
                 	__POINTW1MN _skonczony_proces,4
0018ae e0a0      	LDI  R26,LOW(0)
0018af e0b0      	LDI  R27,HIGH(0)
0018b0 83a0      	STD  Z+0,R26
0018b1 83b1      	STD  Z+1,R27
0018b2 9508      	RET
                 
                 ;OPTIMIZER ADDED SUBROUTINE, CALLED 6 TIMES, CODE SIZE REDUCTION:17 WORDS
                 SUBOPT_0x9D:
                +
0018b3 e0e6     +LDI R30 , LOW ( _skonczony_proces + ( 6 ) )
0018b4 e0f5     +LDI R31 , HIGH ( _skonczony_proces + ( 6 ) )
                 	__POINTW1MN _skonczony_proces,6
0018b5 e0a0      	LDI  R26,LOW(0)
0018b6 e0b0      	LDI  R27,HIGH(0)
0018b7 83a0      	STD  Z+0,R26
0018b8 83b1      	STD  Z+1,R27
0018b9 9508      	RET
                 
                 ;OPTIMIZER ADDED SUBROUTINE, CALLED 3 TIMES, CODE SIZE REDUCTION:7 WORDS
                 SUBOPT_0x9E:
0018ba 940e 01fe 	CALL _zerowanie_czasu
0018bc e0e0      	LDI  R30,LOW(0)
0018bd 93e0 052c 	STS  _jest_pret_pod_czujnikami,R30
0018bf 93e0 052d 	STS  _jest_pret_pod_czujnikami+1,R30
0018c1 9508      	RET
                 
                 ;OPTIMIZER ADDED SUBROUTINE, CALLED 2 TIMES, CODE SIZE REDUCTION:22 WORDS
                 SUBOPT_0x9F:
0018c2 e0e0      	LDI  R30,LOW(0)
0018c3 93e0 055e 	STS  _monter_1_time,R30
0018c5 93e0 055f 	STS  _monter_1_time+1,R30
0018c7 93e0 0560 	STS  _monter_1_time+2,R30
0018c9 93e0 0561 	STS  _monter_1_time+3,R30
0018cb 93e0 0562 	STS  _monter_2_time,R30
0018cd 93e0 0563 	STS  _monter_2_time+1,R30
0018cf 93e0 0564 	STS  _monter_2_time+2,R30
0018d1 93e0 0565 	STS  _monter_2_time+3,R30
0018d3 93e0 0566 	STS  _monter_3_time,R30
0018d5 93e0 0567 	STS  _monter_3_time+1,R30
0018d7 93e0 0568 	STS  _monter_3_time+2,R30
0018d9 93e0 0569 	STS  _monter_3_time+3,R30
0018db 9508      	RET
                 
                 ;OPTIMIZER ADDED SUBROUTINE, CALLED 5 TIMES, CODE SIZE REDUCTION:5 WORDS
                 SUBOPT_0xA0:
0018dc 91a0 0500 	LDS  R26,_skonczony_proces
0018de 91b0 0501 	LDS  R27,_skonczony_proces+1
0018e0 9508      	RET
                 
                 ;OPTIMIZER ADDED SUBROUTINE, CALLED 4 TIMES, CODE SIZE REDUCTION:6 WORDS
                 SUBOPT_0xA1:
0018e1 01d6      	MOVW R26,R12
0018e2 e0e0      	LDI  R30,LOW(0)
0018e3 e0f0      	LDI  R31,HIGH(0)
0018e4 940e 1a2d 	CALL __NEW12
0018e6 9508      	RET
                 
                 ;OPTIMIZER ADDED SUBROUTINE, CALLED 4 TIMES, CODE SIZE REDUCTION:3 WORDS
                 SUBOPT_0xA2:
                +
0018e7 91e0 0502+LDS R30 , _skonczony_proces + ( 2 )
0018e9 91f0 0503+LDS R31 , _skonczony_proces + ( 2 ) + 1
                 	__GETW1MN _skonczony_proces,2
0018eb 9508      	RET
                 
                 ;OPTIMIZER ADDED SUBROUTINE, CALLED 3 TIMES, CODE SIZE REDUCTION:7 WORDS
                 SUBOPT_0xA3:
0018ec e0a0      	LDI  R26,LOW(0)
0018ed e0b0      	LDI  R27,HIGH(0)
0018ee 940e 1a27 	CALL __EQW12
0018f0 2e0e      	MOV  R0,R30
0018f1 cfef      	RJMP SUBOPT_0xA1
                 
                 ;OPTIMIZER ADDED SUBROUTINE, CALLED 3 TIMES, CODE SIZE REDUCTION:7 WORDS
                 SUBOPT_0xA4:
0018f2 220e      	AND  R0,R30
0018f3 01d6      	MOVW R26,R12
0018f4 e0e1      	LDI  R30,LOW(1)
0018f5 e0f0      	LDI  R31,HIGH(1)
0018f6 940e 1a2d 	CALL __NEW12
0018f8 220e      	AND  R0,R30
0018f9 9508      	RET
                 
                 ;OPTIMIZER ADDED SUBROUTINE, CALLED 4 TIMES, CODE SIZE REDUCTION:9 WORDS
                 SUBOPT_0xA5:
0018fa 91a0 052c 	LDS  R26,_jest_pret_pod_czujnikami
0018fc 91b0 052d 	LDS  R27,_jest_pret_pod_czujnikami+1
0018fe cdeb      	RJMP SUBOPT_0x58
                 
                 ;OPTIMIZER ADDED SUBROUTINE, CALLED 3 TIMES, CODE SIZE REDUCTION:1 WORDS
                 SUBOPT_0xA6:
                +
0018ff 91e0 0504+LDS R30 , _skonczony_proces + ( 4 )
001901 91f0 0505+LDS R31 , _skonczony_proces + ( 4 ) + 1
                 	__GETW1MN _skonczony_proces,4
001903 9508      	RET
                 
                 ;OPTIMIZER ADDED SUBROUTINE, CALLED 2 TIMES, CODE SIZE REDUCTION:13 WORDS
                 SUBOPT_0xA7:
001904 01d6      	MOVW R26,R12
001905 e0e2      	LDI  R30,LOW(2)
001906 e0f0      	LDI  R31,HIGH(2)
001907 940e 1a2d 	CALL __NEW12
001909 220e      	AND  R0,R30
00190a e0e3      	LDI  R30,LOW(3)
00190b e0f0      	LDI  R31,HIGH(3)
00190c 940e 1a2d 	CALL __NEW12
00190e 220e      	AND  R0,R30
00190f e0e4      	LDI  R30,LOW(4)
001910 e0f0      	LDI  R31,HIGH(4)
001911 940e 1a2d 	CALL __NEW12
001913 220e      	AND  R0,R30
001914 9508      	RET
                 
                 ;OPTIMIZER ADDED SUBROUTINE, CALLED 2 TIMES, CODE SIZE REDUCTION:1 WORDS
                 SUBOPT_0xA8:
001915 2444      	CLR  R4
001916 2455      	CLR  R5
001917 2466      	CLR  R6
001918 2477      	CLR  R7
001919 2488      	CLR  R8
00191a 2499      	CLR  R9
00191b 9508      	RET
                 
                 ;OPTIMIZER ADDED SUBROUTINE, CALLED 4 TIMES, CODE SIZE REDUCTION:6 WORDS
                 SUBOPT_0xA9:
00191c e0e0      	LDI  R30,LOW(0)
                +
00191d 83ea     +STD Y + 2 , R30
00191e 83eb     +STD Y + 2 + 1 , R30
00191f 83ec     +STD Y + 2 + 2 , R30
001920 83ed     +STD Y + 2 + 3 , R30
                 	__CLRD1S 2
001921 9508      	RET
                 
                 ;OPTIMIZER ADDED SUBROUTINE, CALLED 4 TIMES, CODE SIZE REDUCTION:3 WORDS
                 SUBOPT_0xAA:
001922 dfb9      	RCALL SUBOPT_0xA0
001923 cdc6      	RJMP SUBOPT_0x58
                 
                 ;OPTIMIZER ADDED SUBROUTINE, CALLED 3 TIMES, CODE SIZE REDUCTION:33 WORDS
                 SUBOPT_0xAB:
001924 940e 0a3b 	CALL _czekaj_na_klej
001926 de6e      	RCALL SUBOPT_0x74
001927 e0e1      	LDI  R30,LOW(1)
001928 e0f0      	LDI  R31,HIGH(1)
001929 93e0 0580 	STS  _klej_slave,R30
00192b 93f0 0581 	STS  _klej_slave+1,R31
00192d 940e 0276 	CALL _kontrola_grzyb
00192f 93e0 058b 	STS  _kontrola_grzybkow,R30
001931 93f0 058c 	STS  _kontrola_grzybkow+1,R31
001933 91a0 0586 	LDS  R26,_z
001935 cb4a      	RJMP SUBOPT_0x7
                 
                 ;OPTIMIZER ADDED SUBROUTINE, CALLED 4 TIMES, CODE SIZE REDUCTION:9 WORDS
                 SUBOPT_0xAC:
001936 91a0 057e 	LDS  R26,_klej
001938 91b0 057f 	LDS  R27,_klej+1
00193a cdaf      	RJMP SUBOPT_0x58
                 
                 ;OPTIMIZER ADDED SUBROUTINE, CALLED 4 TIMES, CODE SIZE REDUCTION:12 WORDS
                 SUBOPT_0xAD:
00193b 220e      	AND  R0,R30
00193c 91a0 0580 	LDS  R26,_klej_slave
00193e 91b0 0581 	LDS  R27,_klej_slave+1
001940 cda9      	RJMP SUBOPT_0x58
                 
                 ;OPTIMIZER ADDED SUBROUTINE, CALLED 4 TIMES, CODE SIZE REDUCTION:12 WORDS
                 SUBOPT_0xAE:
001941 220e      	AND  R0,R30
001942 91a0 058b 	LDS  R26,_kontrola_grzybkow
001944 91b0 058c 	LDS  R27,_kontrola_grzybkow+1
001946 cda3      	RJMP SUBOPT_0x58
                 
                 ;OPTIMIZER ADDED SUBROUTINE, CALLED 3 TIMES, CODE SIZE REDUCTION:17 WORDS
                 SUBOPT_0xAF:
001947 940e 07d6 	CALL _przenies_pret_gwintowany
001949 940e 05de 	CALL _wyswietl_czas_procesu
00194b e0e0      	LDI  R30,LOW(0)
00194c e0f0      	LDI  R31,HIGH(0)
00194d 93fa      	ST   -Y,R31
00194e 93ea      	ST   -Y,R30
00194f 940e 0379 	CALL _odpytaj_parametry_z_panelu
001951 cf4d      	RJMP SUBOPT_0x9A
                 
                 ;OPTIMIZER ADDED SUBROUTINE, CALLED 6 TIMES, CODE SIZE REDUCTION:12 WORDS
                 SUBOPT_0xB0:
001952 e0a1      	LDI  R26,LOW(1)
001953 e0b0      	LDI  R27,HIGH(1)
001954 940e 1a27 	CALL __EQW12
001956 220e      	AND  R0,R30
001957 9508      	RET
                 
                 ;OPTIMIZER ADDED SUBROUTINE, CALLED 3 TIMES, CODE SIZE REDUCTION:3 WORDS
                 SUBOPT_0xB1:
001958 e0e0      	LDI  R30,LOW(0)
001959 93e0 052c 	STS  _jest_pret_pod_czujnikami,R30
00195b 93e0 052d 	STS  _jest_pret_pod_czujnikami+1,R30
00195d 9508      	RET
                 
                 ;OPTIMIZER ADDED SUBROUTINE, CALLED 3 TIMES, CODE SIZE REDUCTION:5 WORDS
                 SUBOPT_0xB2:
00195e 91a0 0582 	LDS  R26,_monter_slave
001960 91b0 0583 	LDS  R27,_monter_slave+1
001962 cbf3      	RJMP SUBOPT_0x24
                 
                 ;OPTIMIZER ADDED SUBROUTINE, CALLED 2 TIMES, CODE SIZE REDUCTION:5 WORDS
                 SUBOPT_0xB3:
001963 01d6      	MOVW R26,R12
001964 e0eb      	LDI  R30,LOW(11)
001965 e0f0      	LDI  R31,HIGH(11)
001966 940e 1a33 	CALL __GEW12
001968 220e      	AND  R0,R30
001969 ddeb      	RCALL SUBOPT_0x68
00196a cd7a      	RJMP SUBOPT_0x57
                 
                 ;OPTIMIZER ADDED SUBROUTINE, CALLED 2 TIMES, CODE SIZE REDUCTION:16 WORDS
                 SUBOPT_0xB4:
                +
00196b 81ea     +LDD R30 , Y + 2
00196c 81fb     +LDD R31 , Y + 2 + 1
00196d 816c     +LDD R22 , Y + 2 + 2
00196e 817d     +LDD R23 , Y + 2 + 3
                 	__GETD1S 2
00196f ddf3      	RCALL SUBOPT_0x6B
                +
001970 83ea     +STD Y + 2 , R30
001971 83fb     +STD Y + 2 + 1 , R31
001972 836c     +STD Y + 2 + 2 , R22
001973 837d     +STD Y + 2 + 3 , R23
                 	__PUTD1S 2
                +
001974 81aa     +LDD R26 , Y + 2
001975 81bb     +LDD R27 , Y + 2 + 1
001976 818c     +LDD R24 , Y + 2 + 2
001977 819d     +LDD R25 , Y + 2 + 3
                 	__GETD2S 2
                +
001978 30a1     +CPI R26 , LOW ( 0x1 )
001979 e0e0     +LDI R30 , HIGH ( 0x1 )
00197a 07be     +CPC R27 , R30
00197b e0e0     +LDI R30 , BYTE3 ( 0x1 )
00197c 078e     +CPC R24 , R30
00197d e0e0     +LDI R30 , BYTE4 ( 0x1 )
00197e 079e     +CPC R25 , R30
                 	__CPD2N 0x1
00197f 9508      	RET
                 
                 ;OPTIMIZER ADDED SUBROUTINE, CALLED 2 TIMES, CODE SIZE REDUCTION:6 WORDS
                 SUBOPT_0xB5:
                +
001980 81aa     +LDD R26 , Y + 2
001981 81bb     +LDD R27 , Y + 2 + 1
001982 818c     +LDD R24 , Y + 2 + 2
001983 819d     +LDD R25 , Y + 2 + 3
                 	__GETD2S 2
                +
001984 36a5     +CPI R26 , LOW ( 0x65 )
001985 e0e0     +LDI R30 , HIGH ( 0x65 )
001986 07be     +CPC R27 , R30
001987 e0e0     +LDI R30 , BYTE3 ( 0x65 )
001988 078e     +CPC R24 , R30
001989 e0e0     +LDI R30 , BYTE4 ( 0x65 )
00198a 079e     +CPC R25 , R30
                 	__CPD2N 0x65
00198b 9508      	RET
                 
                 ;OPTIMIZER ADDED SUBROUTINE, CALLED 4 TIMES, CODE SIZE REDUCTION:6 WORDS
                 SUBOPT_0xB6:
00198c 91e0 0528 	LDS  R30,_licznik_pucharow
00198e 91f0 0529 	LDS  R31,_licznik_pucharow+1
001990 9731      	SBIW R30,1
001991 9508      	RET
                 
                 ;OPTIMIZER ADDED SUBROUTINE, CALLED 5 TIMES, CODE SIZE REDUCTION:9 WORDS
                 SUBOPT_0xB7:
001992 940e 1a4d 	CALL __GTD12
001994 2e0e      	MOV  R0,R30
001995 cdb9      	RJMP SUBOPT_0x67
                 
                 ;OPTIMIZER ADDED SUBROUTINE, CALLED 4 TIMES, CODE SIZE REDUCTION:6 WORDS
                 SUBOPT_0xB8:
001996 e0a0      	LDI  R26,0
001997 9904      	SBIC 0x0,4
001998 e0a1      	LDI  R26,1
001999 cdd4      	RJMP SUBOPT_0x6D
                 
                 ;OPTIMIZER ADDED SUBROUTINE, CALLED 3 TIMES, CODE SIZE REDUCTION:17 WORDS
                 SUBOPT_0xB9:
00199a dbc6      	RCALL SUBOPT_0x26
00199b 91a0 0566 	LDS  R26,_monter_3_time
00199d 91b0 0567 	LDS  R27,_monter_3_time+1
00199f 9180 0568 	LDS  R24,_monter_3_time+2
0019a1 9190 0569 	LDS  R25,_monter_3_time+3
0019a3 cfee      	RJMP SUBOPT_0xB7
                 
                 ;OPTIMIZER ADDED SUBROUTINE, CALLED 3 TIMES, CODE SIZE REDUCTION:1 WORDS
                 SUBOPT_0xBA:
0019a4 e7a2      	LDI  R26,LOW(_licznik_spoznien_monter_3)
0019a5 e0b5      	LDI  R27,HIGH(_licznik_spoznien_monter_3)
0019a6 cac9      	RJMP SUBOPT_0x4
                 
                 ;OPTIMIZER ADDED SUBROUTINE, CALLED 3 TIMES, CODE SIZE REDUCTION:1 WORDS
                 SUBOPT_0xBB:
0019a7 e0ea      	LDI  R30,LOW(10)
0019a8 e0f0      	LDI  R31,HIGH(10)
0019a9 16ce      	CP   R12,R30
0019aa 06df      	CPC  R13,R31
0019ab 9508      	RET
                 
                 ;OPTIMIZER ADDED SUBROUTINE, CALLED 3 TIMES, CODE SIZE REDUCTION:1 WORDS
                 SUBOPT_0xBC:
0019ac e2a8      	LDI  R26,LOW(_licznik_pucharow)
0019ad e0b5      	LDI  R27,HIGH(_licznik_pucharow)
0019ae cac1      	RJMP SUBOPT_0x4
                 
                 ;OPTIMIZER ADDED SUBROUTINE, CALLED 3 TIMES, CODE SIZE REDUCTION:1 WORDS
                 SUBOPT_0xBD:
0019af eba1      	LDI  R26,LOW(_licznik_pucharow_global)
0019b0 e0b5      	LDI  R27,HIGH(_licznik_pucharow_global)
0019b1 cabe      	RJMP SUBOPT_0x4
                 
                 ;OPTIMIZER ADDED SUBROUTINE, CALLED 3 TIMES, CODE SIZE REDUCTION:19 WORDS
                 SUBOPT_0xBE:
0019b2 93fa      	ST   -Y,R31
0019b3 93ea      	ST   -Y,R30
0019b4 91e0 05b1 	LDS  R30,_licznik_pucharow_global
0019b6 91f0 05b2 	LDS  R31,_licznik_pucharow_global+1
0019b8 9731      	SBIW R30,1
0019b9 93fa      	ST   -Y,R31
0019ba 93ea      	ST   -Y,R30
0019bb 940e 0591 	CALL _wyswietl_ilosc_zmontowanych_pucharow
0019bd cccd      	RJMP SUBOPT_0x50
                 
                 ;OPTIMIZER ADDED SUBROUTINE, CALLED 3 TIMES, CODE SIZE REDUCTION:3 WORDS
                 SUBOPT_0xBF:
0019be e0e0      	LDI  R30,LOW(0)
0019bf 93e0 0528 	STS  _licznik_pucharow,R30
0019c1 93e0 0529 	STS  _licznik_pucharow+1,R30
0019c3 9508      	RET
                 
                 ;OPTIMIZER ADDED SUBROUTINE, CALLED 2 TIMES, CODE SIZE REDUCTION:13 WORDS
                 SUBOPT_0xC0:
0019c4 efef      	LDI  R30,LOW(65535)
0019c5 efff      	LDI  R31,HIGH(65535)
0019c6 93e0 056e 	STS  _licznik_spoznien_monter_1,R30
0019c8 93f0 056f 	STS  _licznik_spoznien_monter_1+1,R31
0019ca 93e0 0570 	STS  _licznik_spoznien_monter_2,R30
0019cc 93f0 0571 	STS  _licznik_spoznien_monter_2+1,R31
0019ce 93e0 0572 	STS  _licznik_spoznien_monter_3,R30
0019d0 93f0 0573 	STS  _licznik_spoznien_monter_3+1,R31
0019d2 9508      	RET
                 
                 ;OPTIMIZER ADDED SUBROUTINE, CALLED 5 TIMES, CODE SIZE REDUCTION:21 WORDS
                 SUBOPT_0xC1:
0019d3 932a      	ST   -Y,R18
0019d4 85ed      	LDD  R30,Y+13
0019d5 85fe      	LDD  R31,Y+13+1
0019d6 93fa      	ST   -Y,R31
0019d7 93ea      	ST   -Y,R30
0019d8 89e9      	LDD  R30,Y+17
0019d9 89fa      	LDD  R31,Y+17+1
0019da 9509      	ICALL
0019db 9508      	RET
                 
                 ;OPTIMIZER ADDED SUBROUTINE, CALLED 5 TIMES, CODE SIZE REDUCTION:9 WORDS
                 SUBOPT_0xC2:
0019dc 89e8      	LDD  R30,Y+16
0019dd 89f9      	LDD  R31,Y+16+1
0019de 9734      	SBIW R30,4
0019df 8be8      	STD  Y+16,R30
0019e0 8bf9      	STD  Y+16+1,R31
0019e1 9508      	RET
                 
                 ;OPTIMIZER ADDED SUBROUTINE, CALLED 3 TIMES, CODE SIZE REDUCTION:7 WORDS
                 SUBOPT_0xC3:
0019e2 85ed      	LDD  R30,Y+13
0019e3 85fe      	LDD  R31,Y+13+1
0019e4 93fa      	ST   -Y,R31
0019e5 93ea      	ST   -Y,R30
0019e6 89e9      	LDD  R30,Y+17
0019e7 89fa      	LDD  R31,Y+17+1
0019e8 9509      	ICALL
0019e9 9508      	RET
                 
                 ;OPTIMIZER ADDED SUBROUTINE, CALLED 2 TIMES, CODE SIZE REDUCTION:6 WORDS
                 SUBOPT_0xC4:
0019ea 89a8      	LDD  R26,Y+16
0019eb 89b9      	LDD  R27,Y+16+1
0019ec 9614      	ADIW R26,4
0019ed 940e 1ace 	CALL __GETW1P
0019ef 83ee      	STD  Y+6,R30
0019f0 83ff      	STD  Y+6+1,R31
0019f1 93fa      	ST   -Y,R31
0019f2 93ea      	ST   -Y,R30
0019f3 9508      	RET
                 
                 ;OPTIMIZER ADDED SUBROUTINE, CALLED 2 TIMES, CODE SIZE REDUCTION:2 WORDS
                 SUBOPT_0xC5:
0019f4 89a8      	LDD  R26,Y+16
0019f5 89b9      	LDD  R27,Y+16+1
0019f6 9614      	ADIW R26,4
0019f7 940e 1ace 	CALL __GETW1P
0019f9 87ea      	STD  Y+10,R30
0019fa 87fb      	STD  Y+10+1,R31
0019fb 9508      	RET
                 
                 
                 	.CSEG
                 _delay_ms:
0019fc 91e9      	ld   r30,y+
0019fd 91f9      	ld   r31,y+
0019fe 9630      	adiw r30,0
0019ff f039      	breq __delay_ms1
                 __delay_ms0:
                +
001a00 ea80     +LDI R24 , LOW ( 0xFA0 )
001a01 e09f     +LDI R25 , HIGH ( 0xFA0 )
                +__DELAY_USW_LOOP :
001a02 9701     +SBIW R24 , 1
001a03 f7f1     +BRNE __DELAY_USW_LOOP
                 	__DELAY_USW 0xFA0
001a04 95a8      	wdr
001a05 9731      	sbiw r30,1
001a06 f7c9      	brne __delay_ms0
                 __delay_ms1:
001a07 9508      	ret
                 
                 __ADDW2R15:
001a08 2400      	CLR  R0
001a09 0daf      	ADD  R26,R15
001a0a 1db0      	ADC  R27,R0
001a0b 9508      	RET
                 
                 __ANEGW1:
001a0c 95f1      	NEG  R31
001a0d 95e1      	NEG  R30
001a0e 40f0      	SBCI R31,0
001a0f 9508      	RET
                 
                 __ANEGD1:
001a10 95f0      	COM  R31
001a11 9560      	COM  R22
001a12 9570      	COM  R23
001a13 95e1      	NEG  R30
001a14 4fff      	SBCI R31,-1
001a15 4f6f      	SBCI R22,-1
001a16 4f7f      	SBCI R23,-1
001a17 9508      	RET
                 
                 __CWD1:
001a18 2f6f      	MOV  R22,R31
001a19 0f66      	ADD  R22,R22
001a1a 0b66      	SBC  R22,R22
001a1b 2f76      	MOV  R23,R22
001a1c 9508      	RET
                 
                 __CWD2:
001a1d 2f8b      	MOV  R24,R27
001a1e 0f88      	ADD  R24,R24
001a1f 0b88      	SBC  R24,R24
001a20 2f98      	MOV  R25,R24
001a21 9508      	RET
                 
                 __EQB12:
001a22 17ea      	CP   R30,R26
001a23 e0e1      	LDI  R30,1
001a24 f009      	BREQ __EQB12T
001a25 27ee      	CLR  R30
                 __EQB12T:
001a26 9508      	RET
                 
                 __EQW12:
001a27 17ea      	CP   R30,R26
001a28 07fb      	CPC  R31,R27
001a29 e0e1      	LDI  R30,1
001a2a f009      	BREQ __EQW12T
001a2b 27ee      	CLR  R30
                 __EQW12T:
001a2c 9508      	RET
                 
                 __NEW12:
001a2d 17ea      	CP   R30,R26
001a2e 07fb      	CPC  R31,R27
001a2f e0e1      	LDI  R30,1
001a30 f409      	BRNE __NEW12T
001a31 27ee      	CLR  R30
                 __NEW12T:
001a32 9508      	RET
                 
                 __GEW12:
001a33 17ae      	CP   R26,R30
001a34 07bf      	CPC  R27,R31
001a35 e0e1      	LDI  R30,1
001a36 f40c      	BRGE __GEW12T
001a37 27ee      	CLR  R30
                 __GEW12T:
001a38 9508      	RET
                 
                 __LTW12:
001a39 17ae      	CP   R26,R30
001a3a 07bf      	CPC  R27,R31
001a3b e0e1      	LDI  R30,1
001a3c f00c      	BRLT __LTW12T
001a3d 27ee      	CLR  R30
                 __LTW12T:
001a3e 9508      	RET
                 
                 __GTW12:
001a3f 17ea      	CP   R30,R26
001a40 07fb      	CPC  R31,R27
001a41 e0e1      	LDI  R30,1
001a42 f00c      	BRLT __GTW12T
001a43 27ee      	CLR  R30
                 __GTW12T:
001a44 9508      	RET
                 
                 __GED12:
001a45 17ae      	CP   R26,R30
001a46 07bf      	CPC  R27,R31
001a47 0786      	CPC  R24,R22
001a48 0797      	CPC  R25,R23
001a49 e0e1      	LDI  R30,1
001a4a f40c      	BRGE __GED12T
001a4b 27ee      	CLR  R30
                 __GED12T:
001a4c 9508      	RET
                 
                 __GTD12:
001a4d 17ea      	CP   R30,R26
001a4e 07fb      	CPC  R31,R27
001a4f 0768      	CPC  R22,R24
001a50 0779      	CPC  R23,R25
001a51 e0e1      	LDI  R30,1
001a52 f00c      	BRLT __GTD12T
001a53 27ee      	CLR  R30
                 __GTD12T:
001a54 9508      	RET
                 
                 __MULW12U:
001a55 9ffa      	MUL  R31,R26
001a56 2df0      	MOV  R31,R0
001a57 9feb      	MUL  R30,R27
001a58 0df0      	ADD  R31,R0
001a59 9fea      	MUL  R30,R26
001a5a 2de0      	MOV  R30,R0
001a5b 0df1      	ADD  R31,R1
001a5c 9508      	RET
                 
                 __MULD12U:
001a5d 9f7a      	MUL  R23,R26
001a5e 2d70      	MOV  R23,R0
001a5f 9f6b      	MUL  R22,R27
001a60 0d70      	ADD  R23,R0
001a61 9ff8      	MUL  R31,R24
001a62 0d70      	ADD  R23,R0
001a63 9fe9      	MUL  R30,R25
001a64 0d70      	ADD  R23,R0
001a65 9f6a      	MUL  R22,R26
001a66 2d60      	MOV  R22,R0
001a67 0d71      	ADD  R23,R1
001a68 9ffb      	MUL  R31,R27
001a69 0d60      	ADD  R22,R0
001a6a 1d71      	ADC  R23,R1
001a6b 9fe8      	MUL  R30,R24
001a6c 0d60      	ADD  R22,R0
001a6d 1d71      	ADC  R23,R1
001a6e 2788      	CLR  R24
001a6f 9ffa      	MUL  R31,R26
001a70 2df0      	MOV  R31,R0
001a71 0d61      	ADD  R22,R1
001a72 1f78      	ADC  R23,R24
001a73 9feb      	MUL  R30,R27
001a74 0df0      	ADD  R31,R0
001a75 1d61      	ADC  R22,R1
001a76 1f78      	ADC  R23,R24
001a77 9fea      	MUL  R30,R26
001a78 2de0      	MOV  R30,R0
001a79 0df1      	ADD  R31,R1
001a7a 1f68      	ADC  R22,R24
001a7b 1f78      	ADC  R23,R24
001a7c 9508      	RET
                 
                 __MULW12:
001a7d d02f      	RCALL __CHKSIGNW
001a7e dfd6      	RCALL __MULW12U
001a7f f40e      	BRTC __MULW121
001a80 df8b      	RCALL __ANEGW1
                 __MULW121:
001a81 9508      	RET
                 
                 __MULD12:
001a82 d038      	RCALL __CHKSIGND
001a83 dfd9      	RCALL __MULD12U
001a84 f40e      	BRTC __MULD121
001a85 df8a      	RCALL __ANEGD1
                 __MULD121:
001a86 9508      	RET
                 
                 __DIVW21U:
001a87 2400      	CLR  R0
001a88 2411      	CLR  R1
001a89 e190      	LDI  R25,16
                 __DIVW21U1:
001a8a 0faa      	LSL  R26
001a8b 1fbb      	ROL  R27
001a8c 1c00      	ROL  R0
001a8d 1c11      	ROL  R1
001a8e 1a0e      	SUB  R0,R30
001a8f 0a1f      	SBC  R1,R31
001a90 f418      	BRCC __DIVW21U2
001a91 0e0e      	ADD  R0,R30
001a92 1e1f      	ADC  R1,R31
001a93 c001      	RJMP __DIVW21U3
                 __DIVW21U2:
001a94 60a1      	SBR  R26,1
                 __DIVW21U3:
001a95 959a      	DEC  R25
001a96 f799      	BRNE __DIVW21U1
001a97 01fd      	MOVW R30,R26
001a98 01d0      	MOVW R26,R0
001a99 9508      	RET
                 
                 __DIVW21:
001a9a d012      	RCALL __CHKSIGNW
001a9b dfeb      	RCALL __DIVW21U
001a9c f40e      	BRTC __DIVW211
001a9d df6e      	RCALL __ANEGW1
                 __DIVW211:
001a9e 9508      	RET
                 
                 __MODW21:
001a9f 94e8      	CLT
001aa0 ffb7      	SBRS R27,7
001aa1 c004      	RJMP __MODW211
001aa2 95a0      	COM  R26
001aa3 95b0      	COM  R27
001aa4 9611      	ADIW R26,1
001aa5 9468      	SET
                 __MODW211:
001aa6 fdf7      	SBRC R31,7
001aa7 df64      	RCALL __ANEGW1
001aa8 dfde      	RCALL __DIVW21U
001aa9 01fd      	MOVW R30,R26
001aaa f40e      	BRTC __MODW212
001aab df60      	RCALL __ANEGW1
                 __MODW212:
001aac 9508      	RET
                 
                 __CHKSIGNW:
001aad 94e8      	CLT
001aae fff7      	SBRS R31,7
001aaf c002      	RJMP __CHKSW1
001ab0 df5b      	RCALL __ANEGW1
001ab1 9468      	SET
                 __CHKSW1:
001ab2 ffb7      	SBRS R27,7
001ab3 c006      	RJMP __CHKSW2
001ab4 95a0      	COM  R26
001ab5 95b0      	COM  R27
001ab6 9611      	ADIW R26,1
001ab7 f800      	BLD  R0,0
001ab8 9403      	INC  R0
001ab9 fa00      	BST  R0,0
                 __CHKSW2:
001aba 9508      	RET
                 
                 __CHKSIGND:
001abb 94e8      	CLT
001abc ff77      	SBRS R23,7
001abd c002      	RJMP __CHKSD1
001abe df51      	RCALL __ANEGD1
001abf 9468      	SET
                 __CHKSD1:
001ac0 ff97      	SBRS R25,7
001ac1 c00b      	RJMP __CHKSD2
001ac2 2400      	CLR  R0
001ac3 95a0      	COM  R26
001ac4 95b0      	COM  R27
001ac5 9580      	COM  R24
001ac6 9590      	COM  R25
001ac7 9611      	ADIW R26,1
001ac8 1d80      	ADC  R24,R0
001ac9 1d90      	ADC  R25,R0
001aca f800      	BLD  R0,0
001acb 9403      	INC  R0
001acc fa00      	BST  R0,0
                 __CHKSD2:
001acd 9508      	RET
                 
                 __GETW1P:
001ace 91ed      	LD   R30,X+
001acf 91fc      	LD   R31,X
001ad0 9711      	SBIW R26,1
001ad1 9508      	RET
                 
                 __GETD1P_INC:
001ad2 91ed      	LD   R30,X+
001ad3 91fd      	LD   R31,X+
001ad4 916d      	LD   R22,X+
001ad5 917d      	LD   R23,X+
001ad6 9508      	RET
                 
                 __PUTDP1_DEC:
001ad7 937e      	ST   -X,R23
001ad8 936e      	ST   -X,R22
001ad9 93fe      	ST   -X,R31
001ada 93ee      	ST   -X,R30
001adb 9508      	RET
                 
                 __GETW1PF:
001adc 9005      	LPM  R0,Z+
001add 91f4      	LPM  R31,Z
001ade 2de0      	MOV  R30,R0
001adf 9508      	RET
                 
                 __PUTPARD1:
001ae0 937a      	ST   -Y,R23
001ae1 936a      	ST   -Y,R22
001ae2 93fa      	ST   -Y,R31
001ae3 93ea      	ST   -Y,R30
001ae4 9508      	RET
                 
                 __CPW02:
001ae5 2400      	CLR  R0
001ae6 160a      	CP   R0,R26
001ae7 060b      	CPC  R0,R27
001ae8 9508      	RET
                 
                 __CPD12:
001ae9 17ea      	CP   R30,R26
001aea 07fb      	CPC  R31,R27
001aeb 0768      	CPC  R22,R24
001aec 0779      	CPC  R23,R25
001aed 9508      	RET
                 
                 __SAVELOCR6:
001aee 935a      	ST   -Y,R21
                 __SAVELOCR5:
001aef 934a      	ST   -Y,R20
                 __SAVELOCR4:
001af0 933a      	ST   -Y,R19
                 __SAVELOCR3:
001af1 932a      	ST   -Y,R18
                 __SAVELOCR2:
001af2 931a      	ST   -Y,R17
001af3 930a      	ST   -Y,R16
001af4 9508      	RET
                 
                 __LOADLOCR6:
001af5 815d      	LDD  R21,Y+5
                 __LOADLOCR5:
001af6 814c      	LDD  R20,Y+4
                 __LOADLOCR4:
001af7 813b      	LDD  R19,Y+3
                 __LOADLOCR3:
001af8 812a      	LDD  R18,Y+2
                 __LOADLOCR2:
001af9 8119      	LDD  R17,Y+1
001afa 8108      	LD   R16,Y
001afb 9508      	RET
                 
                 ;END OF CODE MARKER
                 __END_OF_CODE:


RESOURCE USE INFORMATION
------------------------

Notice:
The register and instruction counts are symbol table hit counts,
and hence implicitly used resources are not counted, eg, the
'lpm' instruction without operands implicitly uses r0 and z,
none of which are counted.

x,y,z are separate entities in the symbol table and are
counted separately from r26..r31 here.

.dseg memory usage only counts static data declared with .byte

ATmega128 register use summary:
r0 : 190 r1 :  18 r2 :   0 r3 :   0 r4 :   4 r5 :   2 r6 :   4 r7 :   2 
r8 :  10 r9 :   1 r10:   7 r11:   2 r12:  43 r13:  12 r14:   0 r15:   4 
r16:  71 r17:  48 r18:  43 r19:  17 r20:  17 r21:  23 r22:  54 r23:  49 
r24:  66 r25:  43 r26: 439 r27: 200 r28:  23 r29:   1 r30:1360 r31: 529 
x  :  29 y  : 368 z  :  55 
Registers used: 32 out of 35 (91.4%)

ATmega128 instruction use summary:
.lds  :   0 .lds.l:   0 .sts  :   0 .sts.l:   0 adc   :  16 add   :  22 
adiw  :  30 and   :  90 andi  :   4 asr   :   0 bclr  :   0 bld   :   2 
brbc  :   0 brbs  :   0 brcc  :   1 brcs  :   0 break :   0 breq  :  96 
brge  :  20 brhc  :   0 brhs  :   0 brid  :   0 brie  :   0 brlo  :   6 
brlt  :  53 brmi  :   3 brne  : 121 brpl  :   1 brsh  :   2 brtc  :   4 
brts  :   0 brvc  :   0 brvs  :   0 bset  :   0 bst   :   2 call  :1025 
cbi   :  60 cbr   :   0 clc   :   0 clh   :   0 cli   :   1 cln   :   0 
clr   :  37 cls   :   0 clt   :   3 clv   :   0 clz   :   0 com   :  11 
cp    :  25 cpc   : 129 cpi   : 104 cpse  :   0 dec   :   2 des   :   0 
elpm  :   0 eor   :   0 fmul  :   0 fmuls :   0 fmulsu:   0 icall :   2 
ijmp  :   0 in    :   2 inc   :   2 jmp   :  71 ld    :  36 ldd   : 120 
ldi   : 996 lds   : 220 lpm   :  14 lsl   :   1 lsr   :   0 mov   :  66 
movw  :  78 mul   :  14 muls  :   1 mulsu :   0 neg   :   3 nop   :   0 
or    :  18 ori   :   6 out   :  47 pop   :   1 push  :   1 rcall :  73 
ret   : 199 reti  :   1 rjmp  : 239 rol   :   3 ror   :   0 sbc   :   4 
sbci  :  12 sbi   :  48 sbic  :  34 sbis  :  10 sbiw  :  64 sbr   :   1 
sbrc  :   3 sbrs  :  15 sec   :   0 seh   :   0 sei   :   1 sen   :   0 
ser   :   0 ses   :   0 set   :   3 sev   :   0 sez   :   0 sleep :   0 
spm   :   0 st    : 180 std   : 104 sts   : 308 sub   :   2 subi  :  17 
swap  :   0 tst   :   6 wdr   :   1 
Instructions used: 70 out of 117 (59.8%)

ATmega128 memory use summary [bytes]:
Segment   Begin    End      Code   Data   Used    Size   Use%
---------------------------------------------------------------
[.cseg] 0x000000 0x0035f8  13038    778  13816  131072  10.5%
[.dseg] 0x000100 0x0005d9      0    217    217    4351   5.0%
[.eseg] 0x000000 0x000000      0      0      0    4096   0.0%

Assembly complete, 0 errors, 7 warnings
