
AVRASM ver. 2.1.30  C:\cvavreval\Tryumf4.0\List\Tryumf_modul_2.asm Thu Jan 16 13:07:42 2020

C:\cvavreval\Tryumf4.0\List\Tryumf_modul_2.asm(1061): warning: Register r4 already defined by the .DEF directive
C:\cvavreval\Tryumf4.0\List\Tryumf_modul_2.asm(1062): warning: Register r6 already defined by the .DEF directive
C:\cvavreval\Tryumf4.0\List\Tryumf_modul_2.asm(1063): warning: Register r8 already defined by the .DEF directive
C:\cvavreval\Tryumf4.0\List\Tryumf_modul_2.asm(1064): warning: Register r10 already defined by the .DEF directive
C:\cvavreval\Tryumf4.0\List\Tryumf_modul_2.asm(1065): warning: Register r12 already defined by the .DEF directive
                 
                 
                 ;CodeVisionAVR C Compiler V2.05.0 Professional
                 ;(C) Copyright 1998-2010 Pavel Haiduc, HP InfoTech s.r.l.
                 ;http://www.hpinfotech.com
                 
                 ;Chip type                : ATmega128
                 ;Program type             : Application
                 ;Clock frequency          : 16.000000 MHz
                 ;Memory model             : Small
                 ;Optimize for             : Size
                 ;(s)printf features       : int, width
                 ;(s)scanf features        : int, width
                 ;External RAM size        : 0
                 ;Data Stack size          : 1024 byte(s)
                 ;Heap size                : 0 byte(s)
                 ;Promote 'char' to 'int'  : Yes
                 ;'char' is unsigned       : Yes
                 ;8 bit enums              : Yes
                 ;global 'const' stored in FLASH: No
                 ;Enhanced core instructions    : On
                 ;Smart register allocation     : On
                 ;Automatic register allocation : On
                 
                 	#pragma AVRPART ADMIN PART_NAME ATmega128
                 	#pragma AVRPART MEMORY PROG_FLASH 131072
                 	#pragma AVRPART MEMORY EEPROM 4096
                 	#pragma AVRPART MEMORY INT_SRAM SIZE 4351
                 	#pragma AVRPART MEMORY INT_SRAM START_ADDR 0x100
                 
                 	#define CALL_SUPPORTED 1
                 
                 	.LISTMAC
                 	.EQU UDRE=0x5
                 	.EQU RXC=0x7
                 	.EQU USR=0xB
                 	.EQU UDR=0xC
                 	.EQU SPSR=0xE
                 	.EQU SPDR=0xF
                 	.EQU EERE=0x0
                 	.EQU EEWE=0x1
                 	.EQU EEMWE=0x2
                 	.EQU EECR=0x1C
                 	.EQU EEDR=0x1D
                 	.EQU EEARL=0x1E
                 	.EQU EEARH=0x1F
                 	.EQU WDTCR=0x21
                 	.EQU MCUCR=0x35
                 	.EQU RAMPZ=0x3B
                 	.EQU SPL=0x3D
                 	.EQU SPH=0x3E
                 	.EQU SREG=0x3F
                 	.EQU XMCRA=0x6D
                 	.EQU XMCRB=0x6C
                 
                 	.DEF R0X0=R0
                 	.DEF R0X1=R1
                 	.DEF R0X2=R2
                 	.DEF R0X3=R3
                 	.DEF R0X4=R4
                 	.DEF R0X5=R5
                 	.DEF R0X6=R6
                 	.DEF R0X7=R7
                 	.DEF R0X8=R8
                 	.DEF R0X9=R9
                 	.DEF R0XA=R10
                 	.DEF R0XB=R11
                 	.DEF R0XC=R12
                 	.DEF R0XD=R13
                 	.DEF R0XE=R14
                 	.DEF R0XF=R15
                 	.DEF R0X10=R16
                 	.DEF R0X11=R17
                 	.DEF R0X12=R18
                 	.DEF R0X13=R19
                 	.DEF R0X14=R20
                 	.DEF R0X15=R21
                 	.DEF R0X16=R22
                 	.DEF R0X17=R23
                 	.DEF R0X18=R24
                 	.DEF R0X19=R25
                 	.DEF R0X1A=R26
                 	.DEF R0X1B=R27
                 	.DEF R0X1C=R28
                 	.DEF R0X1D=R29
                 	.DEF R0X1E=R30
                 	.DEF R0X1F=R31
                 
                 	.EQU __SRAM_START=0x0100
                 	.EQU __SRAM_END=0x10FF
                 	.EQU __DSTACK_SIZE=0x0400
                 	.EQU __HEAP_SIZE=0x0000
                 	.EQU __CLEAR_SRAM_SIZE=__SRAM_END-__SRAM_START+1
                 
                 	.MACRO __CPD1N
                 	CPI  R30,LOW(@0)
                 	LDI  R26,HIGH(@0)
                 	CPC  R31,R26
                 	LDI  R26,BYTE3(@0)
                 	CPC  R22,R26
                 	LDI  R26,BYTE4(@0)
                 	CPC  R23,R26
                 	.ENDM
                 
                 	.MACRO __CPD2N
                 	CPI  R26,LOW(@0)
                 	LDI  R30,HIGH(@0)
                 	CPC  R27,R30
                 	LDI  R30,BYTE3(@0)
                 	CPC  R24,R30
                 	LDI  R30,BYTE4(@0)
                 	CPC  R25,R30
                 	.ENDM
                 
                 	.MACRO __CPWRR
                 	CP   R@0,R@2
                 	CPC  R@1,R@3
                 	.ENDM
                 
                 	.MACRO __CPWRN
                 	CPI  R@0,LOW(@2)
                 	LDI  R30,HIGH(@2)
                 	CPC  R@1,R30
                 	.ENDM
                 
                 	.MACRO __ADDB1MN
                 	SUBI R30,LOW(-@0-(@1))
                 	.ENDM
                 
                 	.MACRO __ADDB2MN
                 	SUBI R26,LOW(-@0-(@1))
                 	.ENDM
                 
                 	.MACRO __ADDW1MN
                 	SUBI R30,LOW(-@0-(@1))
                 	SBCI R31,HIGH(-@0-(@1))
                 	.ENDM
                 
                 	.MACRO __ADDW2MN
                 	SUBI R26,LOW(-@0-(@1))
                 	SBCI R27,HIGH(-@0-(@1))
                 	.ENDM
                 
                 	.MACRO __ADDW1FN
                 	SUBI R30,LOW(-2*@0-(@1))
                 	SBCI R31,HIGH(-2*@0-(@1))
                 	.ENDM
                 
                 	.MACRO __ADDD1FN
                 	SUBI R30,LOW(-2*@0-(@1))
                 	SBCI R31,HIGH(-2*@0-(@1))
                 	SBCI R22,BYTE3(-2*@0-(@1))
                 	.ENDM
                 
                 	.MACRO __ADDD1N
                 	SUBI R30,LOW(-@0)
                 	SBCI R31,HIGH(-@0)
                 	SBCI R22,BYTE3(-@0)
                 	SBCI R23,BYTE4(-@0)
                 	.ENDM
                 
                 	.MACRO __ADDD2N
                 	SUBI R26,LOW(-@0)
                 	SBCI R27,HIGH(-@0)
                 	SBCI R24,BYTE3(-@0)
                 	SBCI R25,BYTE4(-@0)
                 	.ENDM
                 
                 	.MACRO __SUBD1N
                 	SUBI R30,LOW(@0)
                 	SBCI R31,HIGH(@0)
                 	SBCI R22,BYTE3(@0)
                 	SBCI R23,BYTE4(@0)
                 	.ENDM
                 
                 	.MACRO __SUBD2N
                 	SUBI R26,LOW(@0)
                 	SBCI R27,HIGH(@0)
                 	SBCI R24,BYTE3(@0)
                 	SBCI R25,BYTE4(@0)
                 	.ENDM
                 
                 	.MACRO __ANDBMNN
                 	LDS  R30,@0+(@1)
                 	ANDI R30,LOW(@2)
                 	STS  @0+(@1),R30
                 	.ENDM
                 
                 	.MACRO __ANDWMNN
                 	LDS  R30,@0+(@1)
                 	ANDI R30,LOW(@2)
                 	STS  @0+(@1),R30
                 	LDS  R30,@0+(@1)+1
                 	ANDI R30,HIGH(@2)
                 	STS  @0+(@1)+1,R30
                 	.ENDM
                 
                 	.MACRO __ANDD1N
                 	ANDI R30,LOW(@0)
                 	ANDI R31,HIGH(@0)
                 	ANDI R22,BYTE3(@0)
                 	ANDI R23,BYTE4(@0)
                 	.ENDM
                 
                 	.MACRO __ANDD2N
                 	ANDI R26,LOW(@0)
                 	ANDI R27,HIGH(@0)
                 	ANDI R24,BYTE3(@0)
                 	ANDI R25,BYTE4(@0)
                 	.ENDM
                 
                 	.MACRO __ORBMNN
                 	LDS  R30,@0+(@1)
                 	ORI  R30,LOW(@2)
                 	STS  @0+(@1),R30
                 	.ENDM
                 
                 	.MACRO __ORWMNN
                 	LDS  R30,@0+(@1)
                 	ORI  R30,LOW(@2)
                 	STS  @0+(@1),R30
                 	LDS  R30,@0+(@1)+1
                 	ORI  R30,HIGH(@2)
                 	STS  @0+(@1)+1,R30
                 	.ENDM
                 
                 	.MACRO __ORD1N
                 	ORI  R30,LOW(@0)
                 	ORI  R31,HIGH(@0)
                 	ORI  R22,BYTE3(@0)
                 	ORI  R23,BYTE4(@0)
                 	.ENDM
                 
                 	.MACRO __ORD2N
                 	ORI  R26,LOW(@0)
                 	ORI  R27,HIGH(@0)
                 	ORI  R24,BYTE3(@0)
                 	ORI  R25,BYTE4(@0)
                 	.ENDM
                 
                 	.MACRO __DELAY_USB
                 	LDI  R24,LOW(@0)
                 __DELAY_USB_LOOP:
                 	DEC  R24
                 	BRNE __DELAY_USB_LOOP
                 	.ENDM
                 
                 	.MACRO __DELAY_USW
                 	LDI  R24,LOW(@0)
                 	LDI  R25,HIGH(@0)
                 __DELAY_USW_LOOP:
                 	SBIW R24,1
                 	BRNE __DELAY_USW_LOOP
                 	.ENDM
                 
                 	.MACRO __GETD1S
                 	LDD  R30,Y+@0
                 	LDD  R31,Y+@0+1
                 	LDD  R22,Y+@0+2
                 	LDD  R23,Y+@0+3
                 	.ENDM
                 
                 	.MACRO __GETD2S
                 	LDD  R26,Y+@0
                 	LDD  R27,Y+@0+1
                 	LDD  R24,Y+@0+2
                 	LDD  R25,Y+@0+3
                 	.ENDM
                 
                 	.MACRO __PUTD1S
                 	STD  Y+@0,R30
                 	STD  Y+@0+1,R31
                 	STD  Y+@0+2,R22
                 	STD  Y+@0+3,R23
                 	.ENDM
                 
                 	.MACRO __PUTD2S
                 	STD  Y+@0,R26
                 	STD  Y+@0+1,R27
                 	STD  Y+@0+2,R24
                 	STD  Y+@0+3,R25
                 	.ENDM
                 
                 	.MACRO __PUTDZ2
                 	STD  Z+@0,R26
                 	STD  Z+@0+1,R27
                 	STD  Z+@0+2,R24
                 	STD  Z+@0+3,R25
                 	.ENDM
                 
                 	.MACRO __CLRD1S
                 	STD  Y+@0,R30
                 	STD  Y+@0+1,R30
                 	STD  Y+@0+2,R30
                 	STD  Y+@0+3,R30
                 	.ENDM
                 
                 	.MACRO __POINTB1MN
                 	LDI  R30,LOW(@0+(@1))
                 	.ENDM
                 
                 	.MACRO __POINTW1MN
                 	LDI  R30,LOW(@0+(@1))
                 	LDI  R31,HIGH(@0+(@1))
                 	.ENDM
                 
                 	.MACRO __POINTD1M
                 	LDI  R30,LOW(@0)
                 	LDI  R31,HIGH(@0)
                 	LDI  R22,BYTE3(@0)
                 	LDI  R23,BYTE4(@0)
                 	.ENDM
                 
                 	.MACRO __POINTW1FN
                 	LDI  R30,LOW(2*@0+(@1))
                 	LDI  R31,HIGH(2*@0+(@1))
                 	.ENDM
                 
                 	.MACRO __POINTD1FN
                 	LDI  R30,LOW(2*@0+(@1))
                 	LDI  R31,HIGH(2*@0+(@1))
                 	LDI  R22,BYTE3(2*@0+(@1))
                 	LDI  R23,BYTE4(2*@0+(@1))
                 	.ENDM
                 
                 	.MACRO __POINTB2MN
                 	LDI  R26,LOW(@0+(@1))
                 	.ENDM
                 
                 	.MACRO __POINTW2MN
                 	LDI  R26,LOW(@0+(@1))
                 	LDI  R27,HIGH(@0+(@1))
                 	.ENDM
                 
                 	.MACRO __POINTBRM
                 	LDI  R@0,LOW(@1)
                 	.ENDM
                 
                 	.MACRO __POINTWRM
                 	LDI  R@0,LOW(@2)
                 	LDI  R@1,HIGH(@2)
                 	.ENDM
                 
                 	.MACRO __POINTBRMN
                 	LDI  R@0,LOW(@1+(@2))
                 	.ENDM
                 
                 	.MACRO __POINTWRMN
                 	LDI  R@0,LOW(@2+(@3))
                 	LDI  R@1,HIGH(@2+(@3))
                 	.ENDM
                 
                 	.MACRO __POINTWRFN
                 	LDI  R@0,LOW(@2*2+(@3))
                 	LDI  R@1,HIGH(@2*2+(@3))
                 	.ENDM
                 
                 	.MACRO __GETD1N
                 	LDI  R30,LOW(@0)
                 	LDI  R31,HIGH(@0)
                 	LDI  R22,BYTE3(@0)
                 	LDI  R23,BYTE4(@0)
                 	.ENDM
                 
                 	.MACRO __GETD2N
                 	LDI  R26,LOW(@0)
                 	LDI  R27,HIGH(@0)
                 	LDI  R24,BYTE3(@0)
                 	LDI  R25,BYTE4(@0)
                 	.ENDM
                 
                 	.MACRO __GETB1MN
                 	LDS  R30,@0+(@1)
                 	.ENDM
                 
                 	.MACRO __GETB1HMN
                 	LDS  R31,@0+(@1)
                 	.ENDM
                 
                 	.MACRO __GETW1MN
                 	LDS  R30,@0+(@1)
                 	LDS  R31,@0+(@1)+1
                 	.ENDM
                 
                 	.MACRO __GETD1MN
                 	LDS  R30,@0+(@1)
                 	LDS  R31,@0+(@1)+1
                 	LDS  R22,@0+(@1)+2
                 	LDS  R23,@0+(@1)+3
                 	.ENDM
                 
                 	.MACRO __GETBRMN
                 	LDS  R@0,@1+(@2)
                 	.ENDM
                 
                 	.MACRO __GETWRMN
                 	LDS  R@0,@2+(@3)
                 	LDS  R@1,@2+(@3)+1
                 	.ENDM
                 
                 	.MACRO __GETWRZ
                 	LDD  R@0,Z+@2
                 	LDD  R@1,Z+@2+1
                 	.ENDM
                 
                 	.MACRO __GETD2Z
                 	LDD  R26,Z+@0
                 	LDD  R27,Z+@0+1
                 	LDD  R24,Z+@0+2
                 	LDD  R25,Z+@0+3
                 	.ENDM
                 
                 	.MACRO __GETB2MN
                 	LDS  R26,@0+(@1)
                 	.ENDM
                 
                 	.MACRO __GETW2MN
                 	LDS  R26,@0+(@1)
                 	LDS  R27,@0+(@1)+1
                 	.ENDM
                 
                 	.MACRO __GETD2MN
                 	LDS  R26,@0+(@1)
                 	LDS  R27,@0+(@1)+1
                 	LDS  R24,@0+(@1)+2
                 	LDS  R25,@0+(@1)+3
                 	.ENDM
                 
                 	.MACRO __PUTB1MN
                 	STS  @0+(@1),R30
                 	.ENDM
                 
                 	.MACRO __PUTW1MN
                 	STS  @0+(@1),R30
                 	STS  @0+(@1)+1,R31
                 	.ENDM
                 
                 	.MACRO __PUTD1MN
                 	STS  @0+(@1),R30
                 	STS  @0+(@1)+1,R31
                 	STS  @0+(@1)+2,R22
                 	STS  @0+(@1)+3,R23
                 	.ENDM
                 
                 	.MACRO __PUTB1EN
                 	LDI  R26,LOW(@0+(@1))
                 	LDI  R27,HIGH(@0+(@1))
                 	CALL __EEPROMWRB
                 	.ENDM
                 
                 	.MACRO __PUTW1EN
                 	LDI  R26,LOW(@0+(@1))
                 	LDI  R27,HIGH(@0+(@1))
                 	CALL __EEPROMWRW
                 	.ENDM
                 
                 	.MACRO __PUTD1EN
                 	LDI  R26,LOW(@0+(@1))
                 	LDI  R27,HIGH(@0+(@1))
                 	CALL __EEPROMWRD
                 	.ENDM
                 
                 	.MACRO __PUTBR0MN
                 	STS  @0+(@1),R0
                 	.ENDM
                 
                 	.MACRO __PUTBMRN
                 	STS  @0+(@1),R@2
                 	.ENDM
                 
                 	.MACRO __PUTWMRN
                 	STS  @0+(@1),R@2
                 	STS  @0+(@1)+1,R@3
                 	.ENDM
                 
                 	.MACRO __PUTBZR
                 	STD  Z+@1,R@0
                 	.ENDM
                 
                 	.MACRO __PUTWZR
                 	STD  Z+@2,R@0
                 	STD  Z+@2+1,R@1
                 	.ENDM
                 
                 	.MACRO __GETW1R
                 	MOV  R30,R@0
                 	MOV  R31,R@1
                 	.ENDM
                 
                 	.MACRO __GETW2R
                 	MOV  R26,R@0
                 	MOV  R27,R@1
                 	.ENDM
                 
                 	.MACRO __GETWRN
                 	LDI  R@0,LOW(@2)
                 	LDI  R@1,HIGH(@2)
                 	.ENDM
                 
                 	.MACRO __PUTW1R
                 	MOV  R@0,R30
                 	MOV  R@1,R31
                 	.ENDM
                 
                 	.MACRO __PUTW2R
                 	MOV  R@0,R26
                 	MOV  R@1,R27
                 	.ENDM
                 
                 	.MACRO __ADDWRN
                 	SUBI R@0,LOW(-@2)
                 	SBCI R@1,HIGH(-@2)
                 	.ENDM
                 
                 	.MACRO __ADDWRR
                 	ADD  R@0,R@2
                 	ADC  R@1,R@3
                 	.ENDM
                 
                 	.MACRO __SUBWRN
                 	SUBI R@0,LOW(@2)
                 	SBCI R@1,HIGH(@2)
                 	.ENDM
                 
                 	.MACRO __SUBWRR
                 	SUB  R@0,R@2
                 	SBC  R@1,R@3
                 	.ENDM
                 
                 	.MACRO __ANDWRN
                 	ANDI R@0,LOW(@2)
                 	ANDI R@1,HIGH(@2)
                 	.ENDM
                 
                 	.MACRO __ANDWRR
                 	AND  R@0,R@2
                 	AND  R@1,R@3
                 	.ENDM
                 
                 	.MACRO __ORWRN
                 	ORI  R@0,LOW(@2)
                 	ORI  R@1,HIGH(@2)
                 	.ENDM
                 
                 	.MACRO __ORWRR
                 	OR   R@0,R@2
                 	OR   R@1,R@3
                 	.ENDM
                 
                 	.MACRO __EORWRR
                 	EOR  R@0,R@2
                 	EOR  R@1,R@3
                 	.ENDM
                 
                 	.MACRO __GETWRS
                 	LDD  R@0,Y+@2
                 	LDD  R@1,Y+@2+1
                 	.ENDM
                 
                 	.MACRO __PUTBSR
                 	STD  Y+@1,R@0
                 	.ENDM
                 
                 	.MACRO __PUTWSR
                 	STD  Y+@2,R@0
                 	STD  Y+@2+1,R@1
                 	.ENDM
                 
                 	.MACRO __MOVEWRR
                 	MOV  R@0,R@2
                 	MOV  R@1,R@3
                 	.ENDM
                 
                 	.MACRO __INWR
                 	IN   R@0,@2
                 	IN   R@1,@2+1
                 	.ENDM
                 
                 	.MACRO __OUTWR
                 	OUT  @2+1,R@1
                 	OUT  @2,R@0
                 	.ENDM
                 
                 	.MACRO __CALL1MN
                 	LDS  R30,@0+(@1)
                 	LDS  R31,@0+(@1)+1
                 	ICALL
                 	.ENDM
                 
                 	.MACRO __CALL1FN
                 	LDI  R30,LOW(2*@0+(@1))
                 	LDI  R31,HIGH(2*@0+(@1))
                 	CALL __GETW1PF
                 	ICALL
                 	.ENDM
                 
                 	.MACRO __CALL2EN
                 	LDI  R26,LOW(@0+(@1))
                 	LDI  R27,HIGH(@0+(@1))
                 	CALL __EEPROMRDW
                 	ICALL
                 	.ENDM
                 
                 	.MACRO __GETW1STACK
                 	IN   R26,SPL
                 	IN   R27,SPH
                 	ADIW R26,@0+1
                 	LD   R30,X+
                 	LD   R31,X
                 	.ENDM
                 
                 	.MACRO __GETD1STACK
                 	IN   R26,SPL
                 	IN   R27,SPH
                 	ADIW R26,@0+1
                 	LD   R30,X+
                 	LD   R31,X+
                 	LD   R22,X
                 	.ENDM
                 
                 	.MACRO __NBST
                 	BST  R@0,@1
                 	IN   R30,SREG
                 	LDI  R31,0x40
                 	EOR  R30,R31
                 	OUT  SREG,R30
                 	.ENDM
                 
                 
                 	.MACRO __PUTB1SN
                 	LDD  R26,Y+@0
                 	LDD  R27,Y+@0+1
                 	SUBI R26,LOW(-@1)
                 	SBCI R27,HIGH(-@1)
                 	ST   X,R30
                 	.ENDM
                 
                 	.MACRO __PUTW1SN
                 	LDD  R26,Y+@0
                 	LDD  R27,Y+@0+1
                 	SUBI R26,LOW(-@1)
                 	SBCI R27,HIGH(-@1)
                 	ST   X+,R30
                 	ST   X,R31
                 	.ENDM
                 
                 	.MACRO __PUTD1SN
                 	LDD  R26,Y+@0
                 	LDD  R27,Y+@0+1
                 	SUBI R26,LOW(-@1)
                 	SBCI R27,HIGH(-@1)
                 	CALL __PUTDP1
                 	.ENDM
                 
                 	.MACRO __PUTB1SNS
                 	LDD  R26,Y+@0
                 	LDD  R27,Y+@0+1
                 	ADIW R26,@1
                 	ST   X,R30
                 	.ENDM
                 
                 	.MACRO __PUTW1SNS
                 	LDD  R26,Y+@0
                 	LDD  R27,Y+@0+1
                 	ADIW R26,@1
                 	ST   X+,R30
                 	ST   X,R31
                 	.ENDM
                 
                 	.MACRO __PUTD1SNS
                 	LDD  R26,Y+@0
                 	LDD  R27,Y+@0+1
                 	ADIW R26,@1
                 	CALL __PUTDP1
                 	.ENDM
                 
                 	.MACRO __PUTB1PMN
                 	LDS  R26,@0
                 	LDS  R27,@0+1
                 	SUBI R26,LOW(-@1)
                 	SBCI R27,HIGH(-@1)
                 	ST   X,R30
                 	.ENDM
                 
                 	.MACRO __PUTW1PMN
                 	LDS  R26,@0
                 	LDS  R27,@0+1
                 	SUBI R26,LOW(-@1)
                 	SBCI R27,HIGH(-@1)
                 	ST   X+,R30
                 	ST   X,R31
                 	.ENDM
                 
                 	.MACRO __PUTD1PMN
                 	LDS  R26,@0
                 	LDS  R27,@0+1
                 	SUBI R26,LOW(-@1)
                 	SBCI R27,HIGH(-@1)
                 	CALL __PUTDP1
                 	.ENDM
                 
                 	.MACRO __PUTB1PMNS
                 	LDS  R26,@0
                 	LDS  R27,@0+1
                 	ADIW R26,@1
                 	ST   X,R30
                 	.ENDM
                 
                 	.MACRO __PUTW1PMNS
                 	LDS  R26,@0
                 	LDS  R27,@0+1
                 	ADIW R26,@1
                 	ST   X+,R30
                 	ST   X,R31
                 	.ENDM
                 
                 	.MACRO __PUTD1PMNS
                 	LDS  R26,@0
                 	LDS  R27,@0+1
                 	ADIW R26,@1
                 	CALL __PUTDP1
                 	.ENDM
                 
                 	.MACRO __PUTB1RN
                 	MOVW R26,R@0
                 	SUBI R26,LOW(-@1)
                 	SBCI R27,HIGH(-@1)
                 	ST   X,R30
                 	.ENDM
                 
                 	.MACRO __PUTW1RN
                 	MOVW R26,R@0
                 	SUBI R26,LOW(-@1)
                 	SBCI R27,HIGH(-@1)
                 	ST   X+,R30
                 	ST   X,R31
                 	.ENDM
                 
                 	.MACRO __PUTD1RN
                 	MOVW R26,R@0
                 	SUBI R26,LOW(-@1)
                 	SBCI R27,HIGH(-@1)
                 	CALL __PUTDP1
                 	.ENDM
                 
                 	.MACRO __PUTB1RNS
                 	MOVW R26,R@0
                 	ADIW R26,@1
                 	ST   X,R30
                 	.ENDM
                 
                 	.MACRO __PUTW1RNS
                 	MOVW R26,R@0
                 	ADIW R26,@1
                 	ST   X+,R30
                 	ST   X,R31
                 	.ENDM
                 
                 	.MACRO __PUTD1RNS
                 	MOVW R26,R@0
                 	ADIW R26,@1
                 	CALL __PUTDP1
                 	.ENDM
                 
                 	.MACRO __PUTB1RON
                 	MOV  R26,R@0
                 	MOV  R27,R@1
                 	SUBI R26,LOW(-@2)
                 	SBCI R27,HIGH(-@2)
                 	ST   X,R30
                 	.ENDM
                 
                 	.MACRO __PUTW1RON
                 	MOV  R26,R@0
                 	MOV  R27,R@1
                 	SUBI R26,LOW(-@2)
                 	SBCI R27,HIGH(-@2)
                 	ST   X+,R30
                 	ST   X,R31
                 	.ENDM
                 
                 	.MACRO __PUTD1RON
                 	MOV  R26,R@0
                 	MOV  R27,R@1
                 	SUBI R26,LOW(-@2)
                 	SBCI R27,HIGH(-@2)
                 	CALL __PUTDP1
                 	.ENDM
                 
                 	.MACRO __PUTB1RONS
                 	MOV  R26,R@0
                 	MOV  R27,R@1
                 	ADIW R26,@2
                 	ST   X,R30
                 	.ENDM
                 
                 	.MACRO __PUTW1RONS
                 	MOV  R26,R@0
                 	MOV  R27,R@1
                 	ADIW R26,@2
                 	ST   X+,R30
                 	ST   X,R31
                 	.ENDM
                 
                 	.MACRO __PUTD1RONS
                 	MOV  R26,R@0
                 	MOV  R27,R@1
                 	ADIW R26,@2
                 	CALL __PUTDP1
                 	.ENDM
                 
                 
                 	.MACRO __GETB1SX
                 	MOVW R30,R28
                 	SUBI R30,LOW(-@0)
                 	SBCI R31,HIGH(-@0)
                 	LD   R30,Z
                 	.ENDM
                 
                 	.MACRO __GETB1HSX
                 	MOVW R30,R28
                 	SUBI R30,LOW(-@0)
                 	SBCI R31,HIGH(-@0)
                 	LD   R31,Z
                 	.ENDM
                 
                 	.MACRO __GETW1SX
                 	MOVW R30,R28
                 	SUBI R30,LOW(-@0)
                 	SBCI R31,HIGH(-@0)
                 	LD   R0,Z+
                 	LD   R31,Z
                 	MOV  R30,R0
                 	.ENDM
                 
                 	.MACRO __GETD1SX
                 	MOVW R30,R28
                 	SUBI R30,LOW(-@0)
                 	SBCI R31,HIGH(-@0)
                 	LD   R0,Z+
                 	LD   R1,Z+
                 	LD   R22,Z+
                 	LD   R23,Z
                 	MOVW R30,R0
                 	.ENDM
                 
                 	.MACRO __GETB2SX
                 	MOVW R26,R28
                 	SUBI R26,LOW(-@0)
                 	SBCI R27,HIGH(-@0)
                 	LD   R26,X
                 	.ENDM
                 
                 	.MACRO __GETW2SX
                 	MOVW R26,R28
                 	SUBI R26,LOW(-@0)
                 	SBCI R27,HIGH(-@0)
                 	LD   R0,X+
                 	LD   R27,X
                 	MOV  R26,R0
                 	.ENDM
                 
                 	.MACRO __GETD2SX
                 	MOVW R26,R28
                 	SUBI R26,LOW(-@0)
                 	SBCI R27,HIGH(-@0)
                 	LD   R0,X+
                 	LD   R1,X+
                 	LD   R24,X+
                 	LD   R25,X
                 	MOVW R26,R0
                 	.ENDM
                 
                 	.MACRO __GETBRSX
                 	MOVW R30,R28
                 	SUBI R30,LOW(-@1)
                 	SBCI R31,HIGH(-@1)
                 	LD   R@0,Z
                 	.ENDM
                 
                 	.MACRO __GETWRSX
                 	MOVW R30,R28
                 	SUBI R30,LOW(-@2)
                 	SBCI R31,HIGH(-@2)
                 	LD   R@0,Z+
                 	LD   R@1,Z
                 	.ENDM
                 
                 	.MACRO __GETBRSX2
                 	MOVW R26,R28
                 	SUBI R26,LOW(-@1)
                 	SBCI R27,HIGH(-@1)
                 	LD   R@0,X
                 	.ENDM
                 
                 	.MACRO __GETWRSX2
                 	MOVW R26,R28
                 	SUBI R26,LOW(-@2)
                 	SBCI R27,HIGH(-@2)
                 	LD   R@0,X+
                 	LD   R@1,X
                 	.ENDM
                 
                 	.MACRO __LSLW8SX
                 	MOVW R30,R28
                 	SUBI R30,LOW(-@0)
                 	SBCI R31,HIGH(-@0)
                 	LD   R31,Z
                 	CLR  R30
                 	.ENDM
                 
                 	.MACRO __PUTB1SX
                 	MOVW R26,R28
                 	SUBI R26,LOW(-@0)
                 	SBCI R27,HIGH(-@0)
                 	ST   X,R30
                 	.ENDM
                 
                 	.MACRO __PUTW1SX
                 	MOVW R26,R28
                 	SUBI R26,LOW(-@0)
                 	SBCI R27,HIGH(-@0)
                 	ST   X+,R30
                 	ST   X,R31
                 	.ENDM
                 
                 	.MACRO __PUTD1SX
                 	MOVW R26,R28
                 	SUBI R26,LOW(-@0)
                 	SBCI R27,HIGH(-@0)
                 	ST   X+,R30
                 	ST   X+,R31
                 	ST   X+,R22
                 	ST   X,R23
                 	.ENDM
                 
                 	.MACRO __CLRW1SX
                 	MOVW R26,R28
                 	SUBI R26,LOW(-@0)
                 	SBCI R27,HIGH(-@0)
                 	ST   X+,R30
                 	ST   X,R30
                 	.ENDM
                 
                 	.MACRO __CLRD1SX
                 	MOVW R26,R28
                 	SUBI R26,LOW(-@0)
                 	SBCI R27,HIGH(-@0)
                 	ST   X+,R30
                 	ST   X+,R30
                 	ST   X+,R30
                 	ST   X,R30
                 	.ENDM
                 
                 	.MACRO __PUTB2SX
                 	MOVW R30,R28
                 	SUBI R30,LOW(-@0)
                 	SBCI R31,HIGH(-@0)
                 	ST   Z,R26
                 	.ENDM
                 
                 	.MACRO __PUTW2SX
                 	MOVW R30,R28
                 	SUBI R30,LOW(-@0)
                 	SBCI R31,HIGH(-@0)
                 	ST   Z+,R26
                 	ST   Z,R27
                 	.ENDM
                 
                 	.MACRO __PUTD2SX
                 	MOVW R30,R28
                 	SUBI R30,LOW(-@0)
                 	SBCI R31,HIGH(-@0)
                 	ST   Z+,R26
                 	ST   Z+,R27
                 	ST   Z+,R24
                 	ST   Z,R25
                 	.ENDM
                 
                 	.MACRO __PUTBSRX
                 	MOVW R30,R28
                 	SUBI R30,LOW(-@1)
                 	SBCI R31,HIGH(-@1)
                 	ST   Z,R@0
                 	.ENDM
                 
                 	.MACRO __PUTWSRX
                 	MOVW R30,R28
                 	SUBI R30,LOW(-@2)
                 	SBCI R31,HIGH(-@2)
                 	ST   Z+,R@0
                 	ST   Z,R@1
                 	.ENDM
                 
                 	.MACRO __PUTB1SNX
                 	MOVW R26,R28
                 	SUBI R26,LOW(-@0)
                 	SBCI R27,HIGH(-@0)
                 	LD   R0,X+
                 	LD   R27,X
                 	MOV  R26,R0
                 	SUBI R26,LOW(-@1)
                 	SBCI R27,HIGH(-@1)
                 	ST   X,R30
                 	.ENDM
                 
                 	.MACRO __PUTW1SNX
                 	MOVW R26,R28
                 	SUBI R26,LOW(-@0)
                 	SBCI R27,HIGH(-@0)
                 	LD   R0,X+
                 	LD   R27,X
                 	MOV  R26,R0
                 	SUBI R26,LOW(-@1)
                 	SBCI R27,HIGH(-@1)
                 	ST   X+,R30
                 	ST   X,R31
                 	.ENDM
                 
                 	.MACRO __PUTD1SNX
                 	MOVW R26,R28
                 	SUBI R26,LOW(-@0)
                 	SBCI R27,HIGH(-@0)
                 	LD   R0,X+
                 	LD   R27,X
                 	MOV  R26,R0
                 	SUBI R26,LOW(-@1)
                 	SBCI R27,HIGH(-@1)
                 	ST   X+,R30
                 	ST   X+,R31
                 	ST   X+,R22
                 	ST   X,R23
                 	.ENDM
                 
                 	.MACRO __MULBRR
                 	MULS R@0,R@1
                 	MOVW R30,R0
                 	.ENDM
                 
                 	.MACRO __MULBRRU
                 	MUL  R@0,R@1
                 	MOVW R30,R0
                 	.ENDM
                 
                 	.MACRO __MULBRR0
                 	MULS R@0,R@1
                 	.ENDM
                 
                 	.MACRO __MULBRRU0
                 	MUL  R@0,R@1
                 	.ENDM
                 
                 	.MACRO __MULBNWRU
                 	LDI  R26,@2
                 	MUL  R26,R@0
                 	MOVW R30,R0
                 	MUL  R26,R@1
                 	ADD  R31,R0
                 	.ENDM
                 
                 ;NAME DEFINITIONS FOR GLOBAL VARIABLES ALLOCATED TO REGISTERS
                 	.DEF _start=R4
                 	.DEF _licznik_nakretek=R6
                 	.DEF _nakretka=R8
                 	.DEF _czekaj_komunikacja=R10
                 	.DEF _ff=R12
                 
                 	.CSEG
                 	.ORG 0x00
                 
                 ;START OF CODE MARKER
                 __START_OF_CODE:
                 
                 ;INTERRUPT VECTORS
000000 940c 0059 	JMP  __RESET
000002 940c 0000 	JMP  0x00
000004 940c 0000 	JMP  0x00
000006 940c 0000 	JMP  0x00
000008 940c 0000 	JMP  0x00
00000a 940c 0000 	JMP  0x00
00000c 940c 0000 	JMP  0x00
00000e 940c 0000 	JMP  0x00
000010 940c 0000 	JMP  0x00
000012 940c 0000 	JMP  0x00
000014 940c 00a5 	JMP  _timer2_ovf_isr
000016 940c 0000 	JMP  0x00
000018 940c 0000 	JMP  0x00
00001a 940c 0000 	JMP  0x00
00001c 940c 0000 	JMP  0x00
00001e 940c 0000 	JMP  0x00
000020 940c 008c 	JMP  _timer0_ovf_isr
000022 940c 0000 	JMP  0x00
000024 940c 0000 	JMP  0x00
000026 940c 0000 	JMP  0x00
000028 940c 0000 	JMP  0x00
00002a 940c 0000 	JMP  0x00
00002c 940c 0000 	JMP  0x00
00002e 940c 0000 	JMP  0x00
000030 940c 0000 	JMP  0x00
000032 940c 0000 	JMP  0x00
000034 940c 0000 	JMP  0x00
000036 940c 0000 	JMP  0x00
000038 940c 0000 	JMP  0x00
00003a 940c 0000 	JMP  0x00
00003c 940c 0000 	JMP  0x00
00003e 940c 0000 	JMP  0x00
000040 940c 0000 	JMP  0x00
000042 940c 0000 	JMP  0x00
000044 940c 0000 	JMP  0x00
                 
                 _tbl10_G100:
000046 2710
000047 03e8
000048 0064
000049 000a      	.DB  0x10,0x27,0xE8,0x3,0x64,0x0,0xA,0x0
00004a 0001      	.DB  0x1,0x0
                 _tbl16_G100:
00004b 1000
00004c 0100
00004d 0010
00004e 0001      	.DB  0x0,0x10,0x0,0x1,0x10,0x0,0x1,0x0
                 
                 _0x2040060:
C:\cvavreval\Tryumf4.0\List\Tryumf_modul_2.asm(1117): warning: .cseg .db misalignment - padding zero byte
00004f 0001      	.DB  0x1
                 _0x2040000:
000050 4e2d
000051 4e41
000052 4900
000053 464e      	.DB  0x2D,0x4E,0x41,0x4E,0x0,0x49,0x4E,0x46
C:\cvavreval\Tryumf4.0\List\Tryumf_modul_2.asm(1120): warning: .cseg .db misalignment - padding zero byte
000054 0000      	.DB  0x0
                 
                 __GLOBAL_INI_TBL:
000055 0001      	.DW  0x01
000056 0592      	.DW  __seed_G102
000057 009e      	.DW  _0x2040060*2
                 
                 _0xFFFFFFFF:
000058 0000      	.DW  0
                 
                 __RESET:
000059 94f8      	CLI
00005a 27ee      	CLR  R30
00005b bbec      	OUT  EECR,R30
                 
                 ;INTERRUPT VECTORS ARE PLACED
                 ;AT THE START OF FLASH
00005c e0f1      	LDI  R31,1
00005d bff5      	OUT  MCUCR,R31
00005e bfe5      	OUT  MCUCR,R30
00005f 93e0 006c 	STS  XMCRB,R30
                 
                 ;DISABLE WATCHDOG
000061 e1f8      	LDI  R31,0x18
000062 bdf1      	OUT  WDTCR,R31
000063 bde1      	OUT  WDTCR,R30
                 
                 ;CLEAR R2-R14
000064 e08d      	LDI  R24,(14-2)+1
000065 e0a2      	LDI  R26,2
000066 27bb      	CLR  R27
                 __CLEAR_REG:
000067 93ed      	ST   X+,R30
000068 958a      	DEC  R24
000069 f7e9      	BRNE __CLEAR_REG
                 
                 ;CLEAR SRAM
00006a e080      	LDI  R24,LOW(__CLEAR_SRAM_SIZE)
00006b e190      	LDI  R25,HIGH(__CLEAR_SRAM_SIZE)
00006c e0a0      	LDI  R26,LOW(__SRAM_START)
00006d e0b1      	LDI  R27,HIGH(__SRAM_START)
                 __CLEAR_SRAM:
00006e 93ed      	ST   X+,R30
00006f 9701      	SBIW R24,1
000070 f7e9      	BRNE __CLEAR_SRAM
                 
                 ;GLOBAL VARIABLES INITIALIZATION
000071 eaea      	LDI  R30,LOW(__GLOBAL_INI_TBL*2)
000072 e0f0      	LDI  R31,HIGH(__GLOBAL_INI_TBL*2)
                 __GLOBAL_INI_NEXT:
000073 9185      	LPM  R24,Z+
000074 9195      	LPM  R25,Z+
000075 9700      	SBIW R24,0
000076 f061      	BREQ __GLOBAL_INI_END
000077 91a5      	LPM  R26,Z+
000078 91b5      	LPM  R27,Z+
000079 9005      	LPM  R0,Z+
00007a 9015      	LPM  R1,Z+
00007b 01bf      	MOVW R22,R30
00007c 01f0      	MOVW R30,R0
                 __GLOBAL_INI_LOOP:
00007d 9005      	LPM  R0,Z+
00007e 920d      	ST   X+,R0
00007f 9701      	SBIW R24,1
000080 f7e1      	BRNE __GLOBAL_INI_LOOP
000081 01fb      	MOVW R30,R22
000082 cff0      	RJMP __GLOBAL_INI_NEXT
                 __GLOBAL_INI_END:
                 
000083 bf8b      	OUT  RAMPZ,R24
                 
                 ;HARDWARE STACK POINTER INITIALIZATION
000084 efef      	LDI  R30,LOW(__SRAM_END-__HEAP_SIZE)
000085 bfed      	OUT  SPL,R30
000086 e1e0      	LDI  R30,HIGH(__SRAM_END-__HEAP_SIZE)
000087 bfee      	OUT  SPH,R30
                 
                 ;DATA STACK POINTER INITIALIZATION
000088 e0c0      	LDI  R28,LOW(__SRAM_START+__DSTACK_SIZE)
000089 e0d5      	LDI  R29,HIGH(__SRAM_START+__DSTACK_SIZE)
                 
00008a 940c 0641 	JMP  _main
                 
                 	.ESEG
                 	.ORG 0
                 
                 	.DSEG
                 	.ORG 0x500
                 
                 	.CSEG
                 ;/*****************************************************
                 ;This program was produced by the
                 ;CodeWizardAVR V2.05.0 Professional
                 ;Automatic Program Generator
                 ;© Copyright 1998-2010 Pavel Haiduc, HP InfoTech s.r.l.
                 ;http://www.hpinfotech.com
                 ;
                 ;Project :
                 ;Version :
                 ;Date    : 2017-02-16
                 ;Author  :
                 ;Company :
                 ;Comments:
                 ;
                 ;
                 ;Chip type               : ATmega128
                 ;Program type            : Application
                 ;AVR Core Clock frequency: 16,000000 MHz
                 ;Memory model            : Small
                 ;External RAM size       : 0
                 ;Data Stack size         : 1024
                 ;*****************************************************/
                 ;
                 ;#include <mega128.h>
                 	#ifndef __SLEEP_DEFINED__
                 	#define __SLEEP_DEFINED__
                 	.EQU __se_bit=0x20
                 	.EQU __sm_mask=0x1C
                 	.EQU __sm_powerdown=0x10
                 	.EQU __sm_powersave=0x18
                 	.EQU __sm_standby=0x14
                 	.EQU __sm_ext_standby=0x1C
                 	.EQU __sm_adc_noise_red=0x08
                 	.SET power_ctrl_reg=mcucr
                 	#endif
                 ;#include <stdio.h>
                 ;#include <delay.h>
                 ;//#include <alcd.h>
                 ;#include <string.h>
                 ;#include <stdlib.h>
                 ;#include <math.h>
                 ;
                 ;// Declare your global variables here
                 ;long int sek0,sek1,sek2,sek3,sek4;
                 ;long int ulamki_sekund_0,ulamki_sekund_1;
                 ;int proces[10];
                 ;int skonczony_proces[10];
                 ;long int czas_monterow;
                 ;long int pomocnicza;
                 ;long int stala_czasowa;
                 ;int start;
                 ;int licznik_nakretek;
                 ;//char *dupa1;
                 ;int nakretka;
                 ;//int nakretka_1;
                 ;int licznik_nakretek;
                 ;int czekaj_komunikacja;
                 ;int ff;
                 ;int podaj_nakretke;
                 ;int wcisnalem_pedal;
                 ;int zezwolenie_na_zacisniecie_szczek_od_master;
                 ;int zacisnalem_szczeki;
                 ;int jest_nakretka_przy_dolnym;
                 ;int wlaczam_dodatkowe_wibracje_i_psikanie;
                 ;long int licznik_drgania;
                 ;int wystarczy_zejscia;
                 ;int licznik_widzenia_nakretki;
                 ;int ilosc_prob_wybicia_zakretki_do_gory;
                 ;int wcisniete_zakonczone;
                 ;int zezwolenie_od_master;
                 ;int basia1;
                 ;int pozycja_wiezy;
                 ;int kkk;
                 ;int kkk1;
                 ;int v1;
                 ;int wielkosc_przesuniecia_kamien;
                 ;int kamien;
                 ;int speed_normal;
                 ;int bufor_bledu;
                 ;int zliczylem_male_puchary;
                 ;int licznik_impulsow_male_puchary;
                 ;int tryb_male_puchary;
                 ;int test_zjezdzalni_nakretek;
                 ;int przeslano_informacje_male_puchary;
                 ;int male_puchary_pozwolenie_wyjecia_puchara_monter_3;
                 ;int wieza;
                 ;int jedz_wieza_cykl_znacznik;
                 ;long int sek5;
                 ;int wyzerowalem_sek5;
                 ;
                 ;// Timer 0 overflow interrupt service routine
                 ;interrupt [TIM0_OVF] void timer0_ovf_isr(void)
                 ; 0000 0052 {
                 
                 	.CSEG
                 _timer0_ovf_isr:
00008c 940e 0782 	CALL SUBOPT_0x0
                 ; 0000 0053 sek0++;
00008e e0a0      	LDI  R26,LOW(_sek0)
00008f e0b5      	LDI  R27,HIGH(_sek0)
000090 940e 078b 	CALL SUBOPT_0x1
                 ; 0000 0054 sek1++;
000092 e0a4      	LDI  R26,LOW(_sek1)
000093 e0b5      	LDI  R27,HIGH(_sek1)
000094 940e 078b 	CALL SUBOPT_0x1
                 ; 0000 0055 sek2++;
000096 e0a8      	LDI  R26,LOW(_sek2)
000097 e0b5      	LDI  R27,HIGH(_sek2)
000098 940e 078b 	CALL SUBOPT_0x1
                 ; 0000 0056 sek3++;
00009a e0ac      	LDI  R26,LOW(_sek3)
00009b e0b5      	LDI  R27,HIGH(_sek3)
00009c 940e 078b 	CALL SUBOPT_0x1
                 ; 0000 0057 sek4++;
00009e e1a0      	LDI  R26,LOW(_sek4)
00009f e0b5      	LDI  R27,HIGH(_sek4)
0000a0 940e 078b 	CALL SUBOPT_0x1
                 ; 0000 0058 sek5++;
0000a2 e8ac      	LDI  R26,LOW(_sek5)
0000a3 e0b5      	LDI  R27,HIGH(_sek5)
0000a4 c008      	RJMP _0x33A
                 ; 0000 0059 }
                 ;
                 ;interrupt [TIM2_OVF] void timer2_ovf_isr(void)
                 ; 0000 005C {
                 _timer2_ovf_isr:
0000a5 940e 0782 	CALL SUBOPT_0x0
                 ; 0000 005D // Place your code here
                 ; 0000 005E ulamki_sekund_0++;
0000a7 e1a4      	LDI  R26,LOW(_ulamki_sekund_0)
0000a8 e0b5      	LDI  R27,HIGH(_ulamki_sekund_0)
0000a9 940e 078b 	CALL SUBOPT_0x1
                 ; 0000 005F ulamki_sekund_1++;
0000ab e1a8      	LDI  R26,LOW(_ulamki_sekund_1)
0000ac e0b5      	LDI  R27,HIGH(_ulamki_sekund_1)
                 _0x33A:
0000ad 940e 09a8 	CALL __GETD1P_INC
                +
0000af 5fef     +SUBI R30 , LOW ( - 1 )
0000b0 4fff     +SBCI R31 , HIGH ( - 1 )
0000b1 4f6f     +SBCI R22 , BYTE3 ( - 1 )
0000b2 4f7f     +SBCI R23 , BYTE4 ( - 1 )
                 	__SUBD1N -1
0000b3 940e 09ad 	CALL __PUTDP1_DEC
                 ; 0000 0060 }
0000b5 91e9      	LD   R30,Y+
0000b6 bfef      	OUT  SREG,R30
0000b7 91f9      	LD   R31,Y+
0000b8 91e9      	LD   R30,Y+
0000b9 91b9      	LD   R27,Y+
0000ba 91a9      	LD   R26,Y+
0000bb 9179      	LD   R23,Y+
0000bc 9169      	LD   R22,Y+
0000bd 9518      	RETI
                 ;
                 ;
                 ;int obroc_o_1_8_stopnia(int speed, int r)
                 ; 0000 0064 {
                 ; 0000 0065 PORTE.5 = 0;
                 ;	speed -> Y+2
                 ;	r -> Y+0
                 ; 0000 0066 if(ulamki_sekund_0 >= speed)
                 ; 0000 0067     {
                 ; 0000 0068     PORTE.5 = 1;
                 ; 0000 0069     ulamki_sekund_0 = 0;
                 ; 0000 006A     r++;
                 ; 0000 006B     }
                 ; 0000 006C return r;
                 ; 0000 006D }
                 ;
                 ;
                 ;void drgania()
                 ; 0000 0071 {
                 _drgania:
                 ; 0000 0072 licznik_drgania++;
0000be e5ac      	LDI  R26,LOW(_licznik_drgania)
0000bf e0b5      	LDI  R27,HIGH(_licznik_drgania)
0000c0 940e 078b 	CALL SUBOPT_0x1
                 ; 0000 0073 if(licznik_drgania == 6000)  //6666
0000c2 940e 0794 	CALL SUBOPT_0x2
                +
0000c4 37a0     +CPI R26 , LOW ( 0x1770 )
0000c5 e1e7     +LDI R30 , HIGH ( 0x1770 )
0000c6 07be     +CPC R27 , R30
0000c7 e0e0     +LDI R30 , BYTE3 ( 0x1770 )
0000c8 078e     +CPC R24 , R30
0000c9 e0e0     +LDI R30 , BYTE4 ( 0x1770 )
0000ca 079e     +CPC R25 , R30
                 	__CPD2N 0x1770
0000cb f409      	BRNE _0x8
                 ; 0000 0074     PORTD.4 = 1;
0000cc 9a94      	SBI  0x12,4
                 ; 0000 0075 if(licznik_drgania == 12000)//26666
                 _0x8:
0000cd 940e 0794 	CALL SUBOPT_0x2
                +
0000cf 3ea0     +CPI R26 , LOW ( 0x2EE0 )
0000d0 e2ee     +LDI R30 , HIGH ( 0x2EE0 )
0000d1 07be     +CPC R27 , R30
0000d2 e0e0     +LDI R30 , BYTE3 ( 0x2EE0 )
0000d3 078e     +CPC R24 , R30
0000d4 e0e0     +LDI R30 , BYTE4 ( 0x2EE0 )
0000d5 079e     +CPC R25 , R30
                 	__CPD2N 0x2EE0
0000d6 f419      	BRNE _0xB
                 ; 0000 0076     {
                 ; 0000 0077     PORTD.4 = 0;
0000d7 9894      	CBI  0x12,4
                 ; 0000 0078     licznik_drgania = 0;
0000d8 940e 079d 	CALL SUBOPT_0x3
                 ; 0000 0079     }
                 ; 0000 007A }
                 _0xB:
0000da 9508      	RET
                 ;
                 ;
                 ;
                 ;
                 ;void obsluga_startowa_dozownika_kleju()
                 ; 0000 0080 {
                 ; 0000 0081 int ss;
                 ; 0000 0082 ss = 0;
                 ;	ss -> R16,R17
                 ; 0000 0083 
                 ; 0000 0084 PORTB.1 = 1;  //zasilanie 220V na dozownik kleju
                 ; 0000 0085 PORTB.4 = 1;  //cisnienie na dozownik kleju
                 ; 0000 0086 
                 ; 0000 0087 
                 ; 0000 0088 while(PINA.6 == 1)
                 ; 0000 0089   {
                 ; 0000 008A   if(PINA.3 == 0)
                 ; 0000 008B     {
                 ; 0000 008C     //lcd_clear();
                 ; 0000 008D     //lcd_gotoxy(0,0);
                 ; 0000 008E     //lcd_puts("1");
                 ; 0000 008F     delay_ms(1000);
                 ; 0000 0090     if(ss == 0)
                 ; 0000 0091         {
                 ; 0000 0092         putchar(0);       //dozownik kleju nie gotowy
                 ; 0000 0093         ss = 1;
                 ; 0000 0094         }
                 ; 0000 0095 
                 ; 0000 0096     }
                 ; 0000 0097   }
                 ; 0000 0098 putchar(1);  //jest wszystko ok z dozownikiem
                 ; 0000 0099 
                 ; 0000 009A 
                 ; 0000 009B   //sle komunikat
                 ; 0000 009C   //dozownik kleju nie gotowy
                 ; 0000 009D   //poprawnie - jak w naczelnym 1 to na pina.3=0
                 ; 0000 009E 
                 ; 0000 009F   //lcd_clear();
                 ; 0000 00A0   //lcd_gotoxy(0,0);
                 ; 0000 00A1   //lcd_puts("petla");
                 ; 0000 00A2   //delay_ms(1000);
                 ; 0000 00A3   //}
                 ; 0000 00A4   //else
                 ; 0000 00A5   //{
                 ; 0000 00A6   //brak sygnalu z master PINA.3
                 ; 0000 00A7   //delay_ms(1000);
                 ; 0000 00A8   //lcd_clear();
                 ; 0000 00A9   //lcd_gotoxy(0,0);
                 ; 0000 00AA   //lcd_puts("petla222");
                 ; 0000 00AB   //delay_ms(1000);
                 ; 0000 00AC 
                 ; 0000 00AD }
                 ;
                 ;
                 ;
                 ;
                 ;
                 ;
                 ;void komunikacja_bez_rs232()
                 ; 0000 00B5 {
                 _komunikacja_bez_rs232:
                 ; 0000 00B6 
                 ; 0000 00B7 /*
                 ; 0000 00B8 if(PINA.3 == 0 & poczatek == 0)
                 ; 0000 00B9       {
                 ; 0000 00BA       PORTB.6 = 1;
                 ; 0000 00BB       poczatek = 1;
                 ; 0000 00BC       }
                 ; 0000 00BD 
                 ; 0000 00BE if(PINA.3 == 1 & poczatek == 1)
                 ; 0000 00BF       {
                 ; 0000 00C0       PORTB.6 = 0;
                 ; 0000 00C1       wcisniete_zakonczone = 2;
                 ; 0000 00C2       poczatek = 3;
                 ; 0000 00C3       }
                 ; 0000 00C4 */
                 ; 0000 00C5 
                 ; 0000 00C6 if(tryb_male_puchary == 3)
0000db 940e 07a7 	CALL SUBOPT_0x4
0000dd 9713      	SBIW R26,3
0000de f489      	BRNE _0x17
                 ; 0000 00C7     {
                 ; 0000 00C8     if(PINF.5 == 0)
0000df 9905      	SBIC 0x0,5
0000e0 c003      	RJMP _0x18
                 ; 0000 00C9         zezwolenie_od_master = 1;
0000e1 940e 07ac 	CALL SUBOPT_0x5
                 ; 0000 00CA     else
0000e3 c002      	RJMP _0x19
                 _0x18:
                 ; 0000 00CB         zezwolenie_od_master = 0;
0000e4 940e 07b3 	CALL SUBOPT_0x6
                 ; 0000 00CC 
                 ; 0000 00CD                                              //dodaje do uzwglednienia komunikacje male puchary
                 ; 0000 00CE     if(PINA.3 == 0 & wcisniete_zakonczone == 1 & PINF.7 == 1)
                 _0x19:
0000e6 940e 07b9 	CALL SUBOPT_0x7
0000e8 f011      	BREQ _0x1A
                 ; 0000 00CF        {
                 ; 0000 00D0        PORTB.6 = 1;
0000e9 940e 07d1 	CALL SUBOPT_0x8
                 ; 0000 00D1        wcisniete_zakonczone = 2;
                 ; 0000 00D2        }
                 ; 0000 00D3 
                 ; 0000 00D4                                              //dodaje do uzwglednienia komunikacje male puchary
                 ; 0000 00D5     if(PINA.3 == 1 & wcisniete_zakonczone == 2 & PINF.7 == 1)
                 _0x1A:
0000eb 940e 07d9 	CALL SUBOPT_0x9
0000ed f009      	BREQ _0x1D
                 ; 0000 00D6         PORTB.6 = 0;
0000ee 98c6      	CBI  0x18,6
                 ; 0000 00D7     }
                 _0x1D:
                 ; 0000 00D8 else
0000ef c010      	RJMP _0x20
                 _0x17:
                 ; 0000 00D9     {
                 ; 0000 00DA     if(PINF.5 == 0)
0000f0 9905      	SBIC 0x0,5
0000f1 c003      	RJMP _0x21
                 ; 0000 00DB         zezwolenie_od_master = 1;
0000f2 940e 07ac 	CALL SUBOPT_0x5
                 ; 0000 00DC     else
0000f4 c002      	RJMP _0x22
                 _0x21:
                 ; 0000 00DD         zezwolenie_od_master = 0;
0000f5 940e 07b3 	CALL SUBOPT_0x6
                 ; 0000 00DE 
                 ; 0000 00DF 
                 ; 0000 00E0     if(PINA.3 == 0 & wcisniete_zakonczone == 1 & PINF.7 == 1)
                 _0x22:
0000f7 940e 07b9 	CALL SUBOPT_0x7
0000f9 f011      	BREQ _0x23
                 ; 0000 00E1        {                                                     //zezwolenie na jazde tasmy
                 ; 0000 00E2        PORTB.6 = 1;
0000fa 940e 07d1 	CALL SUBOPT_0x8
                 ; 0000 00E3        wcisniete_zakonczone = 2;
                 ; 0000 00E4        }
                 ; 0000 00E5 
                 ; 0000 00E6        if(PINA.3 == 1 & wcisniete_zakonczone == 2 & PINF.7 == 1)
                 _0x23:
0000fc 940e 07d9 	CALL SUBOPT_0x9
0000fe f009      	BREQ _0x26
                 ; 0000 00E7             PORTB.6 = 0;
0000ff 98c6      	CBI  0x18,6
                 ; 0000 00E8 
                 ; 0000 00E9     }
                 _0x26:
                 _0x20:
                 ; 0000 00EA 
                 ; 0000 00EB 
                 ; 0000 00EC 
                 ; 0000 00ED }
000100 9508      	RET
                 ;
                 ;
                 ;
                 ;
                 ;
                 ;void obsluga_dozownika_kleju_i_komunikacja()
                 ; 0000 00F4 {
                 ; 0000 00F5 int znak;
                 ; 0000 00F6 
                 ; 0000 00F7 znak = 0;
                 ;	znak -> R16,R17
                 ; 0000 00F8 
                 ; 0000 00F9 if(PINA.3 == 0 & znak == 0 & czekaj_komunikacja == 0)
                 ; 0000 00FA     {
                 ; 0000 00FB     znak = getchar();
                 ; 0000 00FC 
                 ; 0000 00FD     if(PINA.6 == 1 & znak == 1)   //brak kleju
                 ; 0000 00FE        {
                 ; 0000 00FF        //putchar(0);
                 ; 0000 0100        putchar(1);
                 ; 0000 0101        }
                 ; 0000 0102 
                 ; 0000 0103     if(PINA.6 == 0 & znak == 1)  //klej jest
                 ; 0000 0104        {
                 ; 0000 0105        putchar(1);
                 ; 0000 0106        }
                 ; 0000 0107 
                 ; 0000 0108     /*
                 ; 0000 0109 
                 ; 0000 010A     if(wcisnalem_pedal == 1 & znak == 4)
                 ; 0000 010B         {
                 ; 0000 010C         putchar(1);
                 ; 0000 010D         }
                 ; 0000 010E 
                 ; 0000 010F     if(wcisnalem_pedal == 0 & znak == 4)
                 ; 0000 0110         {
                 ; 0000 0111         putchar(0);
                 ; 0000 0112         }
                 ; 0000 0113 
                 ; 0000 0114     */
                 ; 0000 0115 
                 ; 0000 0116     if(wcisniete_zakonczone == 1 & znak == 4)
                 ; 0000 0117         {
                 ; 0000 0118         putchar(1);
                 ; 0000 0119         }
                 ; 0000 011A 
                 ; 0000 011B     if(wcisniete_zakonczone == 0 & znak == 4)
                 ; 0000 011C         {
                 ; 0000 011D         putchar(0);
                 ; 0000 011E         }
                 ; 0000 011F 
                 ; 0000 0120     if(zacisnalem_szczeki == 1 & znak == 6)
                 ; 0000 0121         {
                 ; 0000 0122         putchar(1);
                 ; 0000 0123         }
                 ; 0000 0124 
                 ; 0000 0125     if(zacisnalem_szczeki == 0 & znak == 6)
                 ; 0000 0126         {
                 ; 0000 0127         putchar(0);
                 ; 0000 0128         }
                 ; 0000 0129 
                 ; 0000 012A 
                 ; 0000 012B     if(znak == 2)
                 ; 0000 012C        {
                 ; 0000 012D        pomocnicza = getchar();
                 ; 0000 012E        czas_monterow = pomocnicza * stala_czasowa;
                 ; 0000 012F        putchar(3);     //ze przyjalem
                 ; 0000 0130        }
                 ; 0000 0131 
                 ; 0000 0132     if(znak == 3)
                 ; 0000 0133        {
                 ; 0000 0134        podaj_nakretke = getchar();
                 ; 0000 0135        zezwolenie_na_zacisniecie_szczek_od_master = 0;
                 ; 0000 0136        wcisnalem_pedal = 0;
                 ; 0000 0137        zacisnalem_szczeki = 0;
                 ; 0000 0138        wcisniete_zakonczone = 0;
                 ; 0000 0139        putchar(3);     //ze przyjalem
                 ; 0000 013A        }
                 ; 0000 013B 
                 ; 0000 013C     if(znak == 5)
                 ; 0000 013D        {
                 ; 0000 013E        zezwolenie_na_zacisniecie_szczek_od_master = getchar();
                 ; 0000 013F        putchar(3);     //ze przyjalem
                 ; 0000 0140        }
                 ; 0000 0141     }
                 ; 0000 0142 
                 ; 0000 0143 if(znak == 1 | znak == 2 | znak == 3 | znak == 4 | znak == 5  | znak == 6  | czekaj_komunikacja > 0)  //tu jeszcze poprawic
                 ; 0000 0144     czekaj_komunikacja++;
                 ; 0000 0145 if(czekaj_komunikacja == 1000)
                 ; 0000 0146     czekaj_komunikacja = 0;
                 ; 0000 0147 
                 ; 0000 0148 
                 ; 0000 0149 }
                 ;
                 ;
                 ;void kontrola_czujnika_dolnego_nakretek()
                 ; 0000 014D {
                 _kontrola_czujnika_dolnego_nakretek:
                 ; 0000 014E if(PINF.4 == 0)
000101 9904      	SBIC 0x0,4
000102 c003      	RJMP _0x35
                 ; 0000 014F     {
                 ; 0000 0150     PORTD.5 = 1;
000103 9a95      	SBI  0x12,5
                 ; 0000 0151     //PORTB.5 = 1;  //drgania wibracyjne
                 ; 0000 0152     PORTD.6 = 0;  //silownik podaje nakretke monterowi
000104 9896      	CBI  0x12,6
                 ; 0000 0153     }
                 ; 0000 0154 else
000105 c001      	RJMP _0x3A
                 _0x35:
                 ; 0000 0155     {
                 ; 0000 0156     PORTD.5 = 0;
000106 9895      	CBI  0x12,5
                 ; 0000 0157     }
                 _0x3A:
                 ; 0000 0158 
                 ; 0000 0159 }
000107 9508      	RET
                 ;
                 ;
                 ;
                 ;void kontrola_orientatora_nakretek_nowa_zjezdzalnia()
                 ; 0000 015E {
                 _kontrola_orientatora_nakretek_nowa_zjezdzalnia:
                 ; 0000 015F if(PINA.0 == 0)
000108 99c8      	SBIC 0x19,0
000109 c002      	RJMP _0x3D
                 ; 0000 0160     {
                 ; 0000 0161     //licznik_widzenia_nakretki++;
                 ; 0000 0162     //if(licznik_widzenia_nakretki > 1000)
                 ; 0000 0163     //    {
                 ; 0000 0164         PORTB.0 = 0;
00010a 98c0      	CBI  0x18,0
                 ; 0000 0165     //    licznik_widzenia_nakretki = 0;
                 ; 0000 0166     //    }
                 ; 0000 0167     }
                 ; 0000 0168 else
00010b c001      	RJMP _0x40
                 _0x3D:
                 ; 0000 0169     {
                 ; 0000 016A     PORTB.0 = 1;
00010c 9ac0      	SBI  0x18,0
                 ; 0000 016B     //licznik_widzenia_nakretki = 0;
                 ; 0000 016C     }
                 _0x40:
                 ; 0000 016D }
00010d 9508      	RET
                 ;
                 ;
                 ;
                 ;void kontrola_orientatora_nakretek()
                 ; 0000 0172 {
                 ; 0000 0173 if(PINA.0 == 0 & nakretka < 7)  //to chyba spowoduje ze nie bedzie licznik nakretek sie zapetlal
                 ; 0000 0174         {
                 ; 0000 0175         licznik_nakretek++;
                 ; 0000 0176         }
                 ; 0000 0177 if(licznik_nakretek > 700)
                 ; 0000 0178         {
                 ; 0000 0179         //if(
                 ; 0000 017A             PORTB.0 = 0;  //wylacz orientator bo juz na pewno jedna spadla
                 ; 0000 017B         nakretka++;
                 ; 0000 017C         //nakretka_1++;
                 ; 0000 017D         //lcd_clear();
                 ; 0000 017E         //lcd_gotoxy(0,0);
                 ; 0000 017F         //itoa(licznik_nakretek,dupa1);
                 ; 0000 0180         //lcd_puts(dupa1);
                 ; 0000 0181         //lcd_gotoxy(0,1);
                 ; 0000 0182         //itoa(nakretka_1,dupa1);
                 ; 0000 0183         //lcd_puts(dupa1);
                 ; 0000 0184         licznik_nakretek = 0;
                 ; 0000 0185         }
                 ; 0000 0186 
                 ; 0000 0187 //wyniki pomiarow
                 ; 0000 0188 //1 nakretka - 1643
                 ; 0000 0189 //              1616
                 ; 0000 018A //              1590
                 ; 0000 018B //              1493
                 ; 0000 018C 
                 ; 0000 018D }
                 ;
                 ;
                 ;void jedz_wieza_cykl_nowy_procesor()
                 ; 0000 0191 {
                 _jedz_wieza_cykl_nowy_procesor:
                 ; 0000 0192 
                 ; 0000 0193 PORTE.0 = 1;
00010e 9a18      	SBI  0x3,0
                 ; 0000 0194 if(PINE.7 == 1)
00010f 9b0f      	SBIS 0x1,7
000110 c030      	RJMP _0x49
                 ; 0000 0195     {
                 ; 0000 0196     if(wyzerowalem_sek5 == 0)
000111 91e0 0590 	LDS  R30,_wyzerowalem_sek5
000113 91f0 0591 	LDS  R31,_wyzerowalem_sek5+1
000115 9730      	SBIW R30,0
000116 f479      	BRNE _0x4A
                 ; 0000 0197         {
                 ; 0000 0198         sek5 = 0;
000117 e0e0      	LDI  R30,LOW(0)
000118 93e0 058c 	STS  _sek5,R30
00011a 93e0 058d 	STS  _sek5+1,R30
00011c 93e0 058e 	STS  _sek5+2,R30
00011e 93e0 058f 	STS  _sek5+3,R30
                 ; 0000 0199         wyzerowalem_sek5 = 1;
000120 e0e1      	LDI  R30,LOW(1)
000121 e0f0      	LDI  R31,HIGH(1)
000122 93e0 0590 	STS  _wyzerowalem_sek5,R30
000124 93f0 0591 	STS  _wyzerowalem_sek5+1,R31
                 ; 0000 019A         }
                 ; 0000 019B 
                 ; 0000 019C     if(sek5 > 5 & PINE.7 == 1)
                 _0x4A:
000126 91a0 058c 	LDS  R26,_sek5
000128 91b0 058d 	LDS  R27,_sek5+1
00012a 9180 058e 	LDS  R24,_sek5+2
00012c 9190 058f 	LDS  R25,_sek5+3
00012e 940e 07f1 	CALL SUBOPT_0xA
000130 e0a0      	LDI  R26,0
000131 990f      	SBIC 0x1,7
000132 e0a1      	LDI  R26,1
000133 940e 07f9 	CALL SUBOPT_0xB
000135 f059      	BREQ _0x4B
                 ; 0000 019D         {
                 ; 0000 019E         jedz_wieza_cykl_znacznik = 0;
000136 e0e0      	LDI  R30,LOW(0)
000137 93e0 058a 	STS  _jedz_wieza_cykl_znacznik,R30
000139 93e0 058b 	STS  _jedz_wieza_cykl_znacznik+1,R30
                 ; 0000 019F         PORTC.1 = 0;
00013b 98a9      	CBI  0x15,1
                 ; 0000 01A0         PORTE.0 = 0;
00013c 9818      	CBI  0x3,0
                 ; 0000 01A1         wyzerowalem_sek5 = 0;
00013d 93e0 0590 	STS  _wyzerowalem_sek5,R30
00013f 93e0 0591 	STS  _wyzerowalem_sek5+1,R30
                 ; 0000 01A2         }
                 ; 0000 01A3     }
                 _0x4B:
                 ; 0000 01A4 
                 ; 0000 01A5 if(PINE.7 == 0 & wyzerowalem_sek5 == 1)
                 _0x49:
000141 e0a0      	LDI  R26,0
000142 990f      	SBIC 0x1,7
000143 e0a1      	LDI  R26,1
000144 940e 07fe 	CALL SUBOPT_0xC
000146 91a0 0590 	LDS  R26,_wyzerowalem_sek5
000148 91b0 0591 	LDS  R27,_wyzerowalem_sek5+1
00014a 940e 0803 	CALL SUBOPT_0xD
00014c 21e0      	AND  R30,R0
00014d f029      	BREQ _0x50
                 ; 0000 01A6     wyzerowalem_sek5 = 0;
00014e e0e0      	LDI  R30,LOW(0)
00014f 93e0 0590 	STS  _wyzerowalem_sek5,R30
000151 93e0 0591 	STS  _wyzerowalem_sek5+1,R30
                 ; 0000 01A7 
                 ; 0000 01A8 }
                 _0x50:
000153 9508      	RET
                 ;
                 ;void jedz_wieza_cykl()
                 ; 0000 01AB {
                 ; 0000 01AC 
                 ; 0000 01AD //pomysl - wyysylac w czasie drogi impulsy - to bedzie wielkosc kamienia
                 ; 0000 01AE //pomysl - wyysylac w czasie postoju - to bedzie predkosc
                 ; 0000 01AF //to nawet moge zrobic tu
                 ; 0000 01B0 
                 ; 0000 01B1 //w prawo
                 ; 0000 01B2 
                 ; 0000 01B3 
                 ; 0000 01B4     switch(pozycja_wiezy)
                 ; 0000 01B5 
                 ; 0000 01B6         {
                 ; 0000 01B7 
                 ; 0000 01B8         case 0:
                 ; 0000 01B9 
                 ; 0000 01BA 
                 ; 0000 01BB                 PORTE.7 = 1; //enable (1 uruchamia)
                 ; 0000 01BC                 sek2 = 0;
                 ; 0000 01BD                 pozycja_wiezy = 1;
                 ; 0000 01BE                 ulamki_sekund_1 = 0;
                 ; 0000 01BF 
                 ; 0000 01C0 
                 ; 0000 01C1         break;
                 ; 0000 01C2 
                 ; 0000 01C3         case 1:
                 ; 0000 01C4 
                 ; 0000 01C5                 if(kkk == kkk1)
                 ; 0000 01C6                     kkk1 = obroc_o_1_8_stopnia(v1, kkk);
                 ; 0000 01C7                 else
                 ; 0000 01C8                     {                    //30 ok    //60 * 16 * 2 ok na szybki zegar
                 ; 0000 01C9                     if(ulamki_sekund_1 > 60 * 8 * 2)
                 ; 0000 01CA                         {
                 ; 0000 01CB                         v1--;
                 ; 0000 01CC                         ulamki_sekund_1 = 0;
                 ; 0000 01CD                         }
                 ; 0000 01CE                     kkk1 = kkk;
                 ; 0000 01CF                     }
                 ; 0000 01D0 
                 ; 0000 01D1                  if(v1 == speed_normal) //6 sie pieprzy po 30 min, daje 3 ale zmieniam kroki
                 ; 0000 01D2                     {
                 ; 0000 01D3                     kkk = 0;
                 ; 0000 01D4                     if(PORTE.4 == 1)   //DIR du¿y silnik
                 ; 0000 01D5                         pozycja_wiezy = 2;
                 ; 0000 01D6                     else
                 ; 0000 01D7                         pozycja_wiezy = 3;
                 ; 0000 01D8                     }
                 ; 0000 01D9 
                 ; 0000 01DA                 if(sek2 > 170)
                 ; 0000 01DB                     {
                 ; 0000 01DC                     kkk = 0;
                 ; 0000 01DD                     kkk1 = 0;
                 ; 0000 01DE                     bufor_bledu = 25;
                 ; 0000 01DF                     v1 = speed_normal;
                 ; 0000 01E0                     ulamki_sekund_1 = 0;
                 ; 0000 01E1                     if(PORTE.4 == 1)
                 ; 0000 01E2                         pozycja_wiezy = 2;
                 ; 0000 01E3                     else
                 ; 0000 01E4                         pozycja_wiezy = 3;
                 ; 0000 01E5                     }
                 ; 0000 01E6 
                 ; 0000 01E7 
                 ; 0000 01E8         break;
                 ; 0000 01E9 
                 ; 0000 01EA         //ustalic wielkosc przesuniecia kamien dla bez bufor bledu i z bufor bledu
                 ; 0000 01EB 
                 ; 0000 01EC         case 2:
                 ; 0000 01ED             if(PINE.0 != 0)    //czujnik indukcyjny
                 ; 0000 01EE                 obroc_o_1_8_stopnia(v1 + bufor_bledu, 0);
                 ; 0000 01EF             else
                 ; 0000 01F0                 {
                 ; 0000 01F1                 if(kamien == 50)
                 ; 0000 01F2                     wielkosc_przesuniecia_kamien = 770+60;
                 ; 0000 01F3                 if(kamien == 55)
                 ; 0000 01F4                     wielkosc_przesuniecia_kamien = 740+60;
                 ; 0000 01F5                 if(kamien == 60)
                 ; 0000 01F6                     wielkosc_przesuniecia_kamien = 710+60;
                 ; 0000 01F7                 if(kamien == 65)
                 ; 0000 01F8                     wielkosc_przesuniecia_kamien = 680+60;
                 ; 0000 01F9                 if(kamien == 70)
                 ; 0000 01FA                     wielkosc_przesuniecia_kamien = 650+60;
                 ; 0000 01FB                 if(kamien == 75)
                 ; 0000 01FC                     wielkosc_przesuniecia_kamien = 620+60;
                 ; 0000 01FD 
                 ; 0000 01FE                 pozycja_wiezy = 4;
                 ; 0000 01FF                 }
                 ; 0000 0200 
                 ; 0000 0201             if(sek2 > 170 & bufor_bledu == 0)
                 ; 0000 0202                     {
                 ; 0000 0203                     pozycja_wiezy = 2;
                 ; 0000 0204                     bufor_bledu = 25;
                 ; 0000 0205                     }
                 ; 0000 0206 
                 ; 0000 0207         break;
                 ; 0000 0208 
                 ; 0000 0209         case 3:
                 ; 0000 020A 
                 ; 0000 020B             if(PINE.1 != 0)
                 ; 0000 020C                 obroc_o_1_8_stopnia(v1+ bufor_bledu, 0);
                 ; 0000 020D             else
                 ; 0000 020E                 {
                 ; 0000 020F                 if(kamien == 50)
                 ; 0000 0210                     wielkosc_przesuniecia_kamien = 770+60;
                 ; 0000 0211                 if(kamien == 55)//przesuwamy o 2,5mm
                 ; 0000 0212                     wielkosc_przesuniecia_kamien = 740+60;
                 ; 0000 0213                 if(kamien == 60)
                 ; 0000 0214                     wielkosc_przesuniecia_kamien = 710+60;
                 ; 0000 0215                 if(kamien == 65)
                 ; 0000 0216                     wielkosc_przesuniecia_kamien = 680+60;
                 ; 0000 0217                 if(kamien == 70)
                 ; 0000 0218                     wielkosc_przesuniecia_kamien = 650+60;
                 ; 0000 0219                 if(kamien == 75)
                 ; 0000 021A                     wielkosc_przesuniecia_kamien = 620+60; //tu ma byc 8mm + 25/2mm = 20,5    18mm
                 ; 0000 021B 
                 ; 0000 021C                 pozycja_wiezy = 4;
                 ; 0000 021D                 }
                 ; 0000 021E 
                 ; 0000 021F             if(sek2 > 170 & bufor_bledu == 0)
                 ; 0000 0220                     {
                 ; 0000 0221                     pozycja_wiezy = 3;
                 ; 0000 0222                     bufor_bledu = 25;
                 ; 0000 0223                     }
                 ; 0000 0224         break;
                 ; 0000 0225 
                 ; 0000 0226 
                 ; 0000 0227         case 4:
                 ; 0000 0228                 if(kkk < 2)
                 ; 0000 0229                     kkk = obroc_o_1_8_stopnia(v1+ bufor_bledu, kkk);  //jedziemy jeszcze kawalek z pelna pyta
                 ; 0000 022A                 else
                 ; 0000 022B                     {
                 ; 0000 022C                     kkk = 0;
                 ; 0000 022D                     pozycja_wiezy = 5;
                 ; 0000 022E                     }
                 ; 0000 022F 
                 ; 0000 0230         break;
                 ; 0000 0231 
                 ; 0000 0232 
                 ; 0000 0233         case 5:
                 ; 0000 0234                 if(kkk < 2)
                 ; 0000 0235                     kkk = obroc_o_1_8_stopnia(v1 + bufor_bledu, kkk);  //zwalniamy do stalej predkosci
                 ; 0000 0236                 else
                 ; 0000 0237                     {
                 ; 0000 0238                     kkk = 0;
                 ; 0000 0239                     pozycja_wiezy = 6;
                 ; 0000 023A                     }
                 ; 0000 023B 
                 ; 0000 023C         break;
                 ; 0000 023D 
                 ; 0000 023E         case 6:
                 ; 0000 023F                 if(kkk < 2)
                 ; 0000 0240                     kkk = obroc_o_1_8_stopnia(v1 + bufor_bledu, kkk);  //zwalniamy do stalej predkosci
                 ; 0000 0241                 else
                 ; 0000 0242                     {
                 ; 0000 0243                     kkk = 0;
                 ; 0000 0244                     pozycja_wiezy = 7;
                 ; 0000 0245                     }
                 ; 0000 0246 
                 ; 0000 0247         break;
                 ; 0000 0248 
                 ; 0000 0249         case 7:
                 ; 0000 024A                 if(kkk < 2)
                 ; 0000 024B                     kkk = obroc_o_1_8_stopnia(v1 + bufor_bledu, kkk);  //zwalniamy do stalej predkosci
                 ; 0000 024C                 else
                 ; 0000 024D                     {
                 ; 0000 024E                     kkk = 0;
                 ; 0000 024F                     pozycja_wiezy = 8;
                 ; 0000 0250                     }
                 ; 0000 0251 
                 ; 0000 0252         break;
                 ; 0000 0253 
                 ; 0000 0254 
                 ; 0000 0255 
                 ; 0000 0256         case 8:
                 ; 0000 0257                 if(kkk < wielkosc_przesuniecia_kamien)
                 ; 0000 0258                     kkk = obroc_o_1_8_stopnia(v1 + bufor_bledu, kkk);
                 ; 0000 0259                 else
                 ; 0000 025A                     {
                 ; 0000 025B                     pozycja_wiezy = 10;//9
                 ; 0000 025C                     ulamki_sekund_1 = 0;
                 ; 0000 025D                     v1 = v1 + 6;
                 ; 0000 025E                     kkk = 0;
                 ; 0000 025F                     kkk1 = 0;
                 ; 0000 0260                     }
                 ; 0000 0261 
                 ; 0000 0262         break;
                 ; 0000 0263 
                 ; 0000 0264         case 9:
                 ; 0000 0265 
                 ; 0000 0266 
                 ; 0000 0267                   if(kkk == kkk1)
                 ; 0000 0268                         kkk1 = obroc_o_1_8_stopnia(v1 + bufor_bledu, kkk);
                 ; 0000 0269                   else
                 ; 0000 026A                         {
                 ; 0000 026B                         if(ulamki_sekund_1 > 60 * 6 * 2)
                 ; 0000 026C                             {
                 ; 0000 026D                             v1++;
                 ; 0000 026E                             ulamki_sekund_1 = 0;
                 ; 0000 026F                             }
                 ; 0000 0270                         kkk1 = kkk;
                 ; 0000 0271                         }
                 ; 0000 0272                   if(v1 == 40)
                 ; 0000 0273                         {
                 ; 0000 0274                         kkk = 0;
                 ; 0000 0275                         pozycja_wiezy = 10;
                 ; 0000 0276                         }
                 ; 0000 0277 
                 ; 0000 0278         break;
                 ; 0000 0279 
                 ; 0000 027A         case 10:
                 ; 0000 027B 
                 ; 0000 027C                 PORTE.7 = 0;  //koniec enable
                 ; 0000 027D                 PORTC.1 = 0;  //silownik dociskowy os pozioma
                 ; 0000 027E                 kkk = 0;
                 ; 0000 027F                 kkk1 = 0;
                 ; 0000 0280                 v1 = 60;
                 ; 0000 0281                 bufor_bledu = 0;
                 ; 0000 0282                 if(PORTE.4 == 1)
                 ; 0000 0283                     PORTE.4 = 0;  //zmieniamy dir
                 ; 0000 0284                 else
                 ; 0000 0285                     PORTE.4 = 1;
                 ; 0000 0286 
                 ; 0000 0287                 pozycja_wiezy = 11;
                 ; 0000 0288                 jedz_wieza_cykl_znacznik = 0;
                 ; 0000 0289 
                 ; 0000 028A 
                 ; 0000 028B         break;
                 ; 0000 028C         }
                 ; 0000 028D 
                 ; 0000 028E 
                 ; 0000 028F 
                 ; 0000 0290 
                 ; 0000 0291 
                 ; 0000 0292 
                 ; 0000 0293 
                 ; 0000 0294 }
                 ;
                 ;
                 ;
                 ;
                 ;
                 ;
                 ;
                 ;int proces_0()
                 ; 0000 029D {
                 _proces_0:
                 ; 0000 029E int wynik;
                 ; 0000 029F wynik = 0;
000154 940e 0808 	CALL SUBOPT_0xE
                 ;	wynik -> R16,R17
                 ; 0000 02A0 
                 ; 0000 02A1 switch(proces[0])
000156 91e0 051c 	LDS  R30,_proces
000158 91f0 051d 	LDS  R31,_proces+1
                 ; 0000 02A2     {
                 ; 0000 02A3     case 0:
00015a 9730      	SBIW R30,0
00015b f491      	BRNE _0x97
                 ; 0000 02A4         if(test_zjezdzalni_nakretek == 0)
00015c 91e0 0582 	LDS  R30,_test_zjezdzalni_nakretek
00015e 91f0 0583 	LDS  R31,_test_zjezdzalni_nakretek+1
000160 9730      	SBIW R30,0
000161 f419      	BRNE _0x98
                 ; 0000 02A5             proces[0] = 1;
000162 e0e1      	LDI  R30,LOW(1)
000163 e0f0      	LDI  R31,HIGH(1)
000164 c002      	RJMP _0x330
                 ; 0000 02A6         else
                 _0x98:
                 ; 0000 02A7             proces[0] = 111;
000165 e6ef      	LDI  R30,LOW(111)
000166 e0f0      	LDI  R31,HIGH(111)
                 _0x330:
000167 93e0 051c 	STS  _proces,R30
000169 93f0 051d 	STS  _proces+1,R31
                 ; 0000 02A8         sek0 = 0;
00016b 940e 080d 	CALL SUBOPT_0xF
                 ; 0000 02A9     break;
00016d c195      	RJMP _0x96
                 ; 0000 02AA 
                 ; 0000 02AB 
                 ; 0000 02AC     case 111:
                 _0x97:
00016e 36ef      	CPI  R30,LOW(0x6F)
00016f e0a0      	LDI  R26,HIGH(0x6F)
000170 07fa      	CPC  R31,R26
000171 f461      	BRNE _0x9A
                 ; 0000 02AD             if(PINA.7 == 1)
000172 9bcf      	SBIS 0x19,7
000173 c009      	RJMP _0x9B
                 ; 0000 02AE                 {
                 ; 0000 02AF                 ilosc_prob_wybicia_zakretki_do_gory = 0;
000174 940e 0817 	CALL SUBOPT_0x10
                 ; 0000 02B0                 PORTD.5 = 1;  //silownik kolejkujacy nakretki otworz
                 ; 0000 02B1                 PORTB.3 = 1;  //psikanie
000176 9ac3      	SBI  0x18,3
                 ; 0000 02B2                 PORTB.5 = 1;  //wibrator nowy
000177 9ac5      	SBI  0x18,5
                 ; 0000 02B3                 PORTD.4 = 1;  //zeby na pewno byl wysuniety wstepnie ten co robi drgania
000178 9a94      	SBI  0x12,4
                 ; 0000 02B4                 sek0 = 0;
000179 940e 080d 	CALL SUBOPT_0xF
                 ; 0000 02B5                 proces[0] = 2;
00017b 940e 081e 	CALL SUBOPT_0x11
                 ; 0000 02B6                 }
                 ; 0000 02B7     break;
                 _0x9B:
00017d c185      	RJMP _0x96
                 ; 0000 02B8 
                 ; 0000 02B9     case 1:                          //zeby wrocila karetka nakretek sek0 > 40
                 _0x9A:
00017e 30e1      	CPI  R30,LOW(0x1)
00017f e0a0      	LDI  R26,HIGH(0x1)
000180 07fa      	CPC  R31,R26
000181 f4d9      	BRNE _0xA4
                 ; 0000 02BA 
                 ; 0000 02BB             //if(podaj_nakretke == 1)
                 ; 0000 02BC             //    PORTB.5 = 1;  //wibrator nowy
                 ; 0000 02BD 
                 ; 0000 02BE             if(podaj_nakretke == 1 & sek0 > 40)
000182 91a0 0550 	LDS  R26,_podaj_nakretke
000184 91b0 0551 	LDS  R27,_podaj_nakretke+1
000186 940e 0803 	CALL SUBOPT_0xD
000188 2e0e      	MOV  R0,R30
000189 940e 0825 	CALL SUBOPT_0x12
                +
00018b e2e8     +LDI R30 , LOW ( 0x28 )
00018c e0f0     +LDI R31 , HIGH ( 0x28 )
00018d e060     +LDI R22 , BYTE3 ( 0x28 )
00018e e070     +LDI R23 , BYTE4 ( 0x28 )
                 	__GETD1N 0x28
00018f 940e 0968 	CALL __GTD12
000191 21e0      	AND  R30,R0
000192 f049      	BREQ _0xA5
                 ; 0000 02BF                 {
                 ; 0000 02C0                 ilosc_prob_wybicia_zakretki_do_gory = 0;
000193 940e 0817 	CALL SUBOPT_0x10
                 ; 0000 02C1                 PORTD.5 = 1;  //silownik kolejkujacy nakretki otworz
                 ; 0000 02C2                 PORTB.5 = 1;  //wibrator nowy
000195 9ac5      	SBI  0x18,5
                 ; 0000 02C3                 PORTB.3 = 1;  //psikanie
000196 9ac3      	SBI  0x18,3
                 ; 0000 02C4                 PORTD.4 = 1;  //zeby na pewno byl wysuniety wstepnie ten co robi drgania
000197 9a94      	SBI  0x12,4
                 ; 0000 02C5                 sek0 = 0;
000198 940e 080d 	CALL SUBOPT_0xF
                 ; 0000 02C6                 proces[0] = 2;
00019a 940e 081e 	CALL SUBOPT_0x11
                 ; 0000 02C7                 }
                 ; 0000 02C8     break;
                 _0xA5:
00019c c166      	RJMP _0x96
                 ; 0000 02C9 
                 ; 0000 02CA 
                 ; 0000 02CB     case 2:
                 _0xA4:
00019d 30e2      	CPI  R30,LOW(0x2)
00019e e0a0      	LDI  R26,HIGH(0x2)
00019f 07fa      	CPC  R31,R26
0001a0 f489      	BRNE _0xAE
                 ; 0000 02CC                 if(sek0>15)
0001a1 940e 0825 	CALL SUBOPT_0x12
                +
0001a3 31a0     +CPI R26 , LOW ( 0x10 )
0001a4 e0e0     +LDI R30 , HIGH ( 0x10 )
0001a5 07be     +CPC R27 , R30
0001a6 e0e0     +LDI R30 , BYTE3 ( 0x10 )
0001a7 078e     +CPC R24 , R30
0001a8 e0e0     +LDI R30 , BYTE4 ( 0x10 )
0001a9 079e     +CPC R25 , R30
                 	__CPD2N 0x10
0001aa f034      	BRLT _0xAF
                 ; 0000 02CD                     {
                 ; 0000 02CE                     sek0 = 0;
0001ab 940e 080d 	CALL SUBOPT_0xF
                 ; 0000 02CF                     proces[0] = 3;
0001ad e0e3      	LDI  R30,LOW(3)
0001ae e0f0      	LDI  R31,HIGH(3)
0001af 940e 082e 	CALL SUBOPT_0x13
                 ; 0000 02D0                     }
                 ; 0000 02D1     break;
                 _0xAF:
0001b1 c151      	RJMP _0x96
                 ; 0000 02D2 
                 ; 0000 02D3     case 3:
                 _0xAE:
0001b2 30e3      	CPI  R30,LOW(0x3)
0001b3 e0a0      	LDI  R26,HIGH(0x3)
0001b4 07fa      	CPC  R31,R26
0001b5 f4b9      	BRNE _0xB0
                 ; 0000 02D4             drgania();
0001b6 940e 0833 	CALL SUBOPT_0x14
                 ; 0000 02D5 
                 ; 0000 02D6             if(sek0 > 5 & PORTB.3 == 1)
0001b8 940e 07f1 	CALL SUBOPT_0xA
0001ba e0a0      	LDI  R26,0
0001bb 99c3      	SBIC 0x18,3
0001bc e0a1      	LDI  R26,1
0001bd 940e 07f9 	CALL SUBOPT_0xB
0001bf f009      	BREQ _0xB1
                 ; 0000 02D7                  PORTB.3 = 0; //psikanie
0001c0 98c3      	CBI  0x18,3
                 ; 0000 02D8 
                 ; 0000 02D9             if(sek0 > 20)  //silownik kolejkujacy nakretki w dol  //35
                 _0xB1:
0001c1 940e 0836 	CALL SUBOPT_0x15
0001c3 f044      	BRLT _0xB4
                 ; 0000 02DA                 {
                 ; 0000 02DB                 PORTB.5 = 0;  //wibrator nowy
0001c4 98c5      	CBI  0x18,5
                 ; 0000 02DC                 PORTD.5 = 0;  //zamknij
0001c5 9895      	CBI  0x12,5
                 ; 0000 02DD                 sek0 = 0;
0001c6 940e 080d 	CALL SUBOPT_0xF
                 ; 0000 02DE                 proces[0] = 4;
0001c8 e0e4      	LDI  R30,LOW(4)
0001c9 e0f0      	LDI  R31,HIGH(4)
0001ca 940e 082e 	CALL SUBOPT_0x13
                 ; 0000 02DF                 }
                 ; 0000 02E0     break;
                 _0xB4:
0001cc c136      	RJMP _0x96
                 ; 0000 02E1 
                 ; 0000 02E2 
                 ; 0000 02E3     case 4:
                 _0xB0:
0001cd 30e4      	CPI  R30,LOW(0x4)
0001ce e0a0      	LDI  R26,HIGH(0x4)
0001cf 07fa      	CPC  R31,R26
0001d0 f4c9      	BRNE _0xB9
                 ; 0000 02E4 
                 ; 0000 02E5             if(PINA.4 == 0)
0001d1 99cc      	SBIC 0x19,4
0001d2 c002      	RJMP _0xBA
                 ; 0000 02E6                 wystarczy_zejscia = 1;
0001d3 940e 083f 	CALL SUBOPT_0x16
                 ; 0000 02E7             drgania();
                 _0xBA:
0001d5 940e 0833 	CALL SUBOPT_0x14
                 ; 0000 02E8             if(sek0 > 25)
                +
0001d7 31aa     +CPI R26 , LOW ( 0x1A )
0001d8 e0e0     +LDI R30 , HIGH ( 0x1A )
0001d9 07be     +CPC R27 , R30
0001da e0e0     +LDI R30 , BYTE3 ( 0x1A )
0001db 078e     +CPC R24 , R30
0001dc e0e0     +LDI R30 , BYTE4 ( 0x1A )
0001dd 079e     +CPC R25 , R30
                 	__CPD2N 0x1A
0001de f054      	BRLT _0xBB
                 ; 0000 02E9                 {
                 ; 0000 02EA                 sek0 = 0;
0001df 940e 080d 	CALL SUBOPT_0xF
                 ; 0000 02EB                 proces[0] = 5;
0001e1 e0e5      	LDI  R30,LOW(5)
0001e2 e0f0      	LDI  R31,HIGH(5)
0001e3 940e 082e 	CALL SUBOPT_0x13
                 ; 0000 02EC                 if(PINA.4 == 0)
0001e5 99cc      	SBIC 0x19,4
0001e6 c002      	RJMP _0xBC
                 ; 0000 02ED                     wystarczy_zejscia = 1;
0001e7 940e 083f 	CALL SUBOPT_0x16
                 ; 0000 02EE                 }
                 _0xBC:
                 ; 0000 02EF 
                 ; 0000 02F0     break;
                 _0xBB:
0001e9 c119      	RJMP _0x96
                 ; 0000 02F1 
                 ; 0000 02F2 
                 ; 0000 02F3     case 5:
                 _0xB9:
0001ea 30e5      	CPI  R30,LOW(0x5)
0001eb e0a0      	LDI  R26,HIGH(0x5)
0001ec 07fa      	CPC  R31,R26
0001ed f5d9      	BRNE _0xBD
                 ; 0000 02F4             if(PINA.4 == 0 | wystarczy_zejscia == 1)   //zszedl na sam dol, czyli ok
0001ee e0a0      	LDI  R26,0
0001ef 99cc      	SBIC 0x19,4
0001f0 e0a1      	LDI  R26,1
0001f1 940e 07fe 	CALL SUBOPT_0xC
0001f3 91a0 0560 	LDS  R26,_wystarczy_zejscia
0001f5 91b0 0561 	LDS  R27,_wystarczy_zejscia+1
0001f7 940e 0803 	CALL SUBOPT_0xD
0001f9 29e0      	OR   R30,R0
0001fa f061      	BREQ _0xBE
                 ; 0000 02F5                 {
                 ; 0000 02F6                 //proces[0] = 8;
                 ; 0000 02F7                 //PORTD.2 = 0; //przysun igle z klejem nie dawaj igly z klejem
                 ; 0000 02F8                 PORTD.4 = 0;  //zeby na pewno byl schowany ten co robi drgania
0001fb 9894      	CBI  0x12,4
                 ; 0000 02F9                 wystarczy_zejscia = 0;
0001fc 940e 0846 	CALL SUBOPT_0x17
                 ; 0000 02FA                 proces[0] = 10;
0001fe 940e 084c 	CALL SUBOPT_0x18
                 ; 0000 02FB                 sek0 = 50;
                +
000200 e3e2     +LDI R30 , LOW ( 0x32 )
000201 e0f0     +LDI R31 , HIGH ( 0x32 )
000202 e060     +LDI R22 , BYTE3 ( 0x32 )
000203 e070     +LDI R23 , BYTE4 ( 0x32 )
                 	__GETD1N 0x32
000204 940e 084f 	CALL SUBOPT_0x19
                 ; 0000 02FC                 }
                 ; 0000 02FD             else
000206 c021      	RJMP _0xC1
                 _0xBE:
                 ; 0000 02FE                 {
                 ; 0000 02FF                 wystarczy_zejscia = 0;
000207 940e 0846 	CALL SUBOPT_0x17
                 ; 0000 0300                 ilosc_prob_wybicia_zakretki_do_gory++;
000209 e6a4      	LDI  R26,LOW(_ilosc_prob_wybicia_zakretki_do_gory)
00020a e0b5      	LDI  R27,HIGH(_ilosc_prob_wybicia_zakretki_do_gory)
00020b 91ed      	LD   R30,X+
00020c 91fd      	LD   R31,X+
00020d 9631      	ADIW R30,1
00020e 93fe      	ST   -X,R31
00020f 93ee      	ST   -X,R30
                 ; 0000 0301                 if(ilosc_prob_wybicia_zakretki_do_gory > 3)
000210 91a0 0564 	LDS  R26,_ilosc_prob_wybicia_zakretki_do_gory
000212 91b0 0565 	LDS  R27,_ilosc_prob_wybicia_zakretki_do_gory+1
000214 9714      	SBIW R26,4
000215 f04c      	BRLT _0xC2
                 ; 0000 0302                     {
                 ; 0000 0303                     proces[0] = 10;
000216 940e 084c 	CALL SUBOPT_0x18
                 ; 0000 0304                     ilosc_prob_wybicia_zakretki_do_gory = 0;
000218 e0e0      	LDI  R30,LOW(0)
000219 93e0 0564 	STS  _ilosc_prob_wybicia_zakretki_do_gory,R30
00021b 93e0 0565 	STS  _ilosc_prob_wybicia_zakretki_do_gory+1,R30
                 ; 0000 0305                     PORTD.4 = 0;  //zeby na pewno byl schowany ten co robi drgania
00021d 9894      	CBI  0x12,4
                 ; 0000 0306                     }
                 ; 0000 0307                 else
00021e c007      	RJMP _0xC5
                 _0xC2:
                 ; 0000 0308                     {
                 ; 0000 0309                     PORTD.5 = 1;  //do gory silownik otworz
00021f 9a95      	SBI  0x12,5
                 ; 0000 030A                     PORTB.3 = 1;   //psikanie
000220 9ac3      	SBI  0x18,3
                 ; 0000 030B                     PORTB.5 = 1;  //wibrator nowy
000221 9ac5      	SBI  0x18,5
                 ; 0000 030C                     proces[0] = 6;
000222 e0e6      	LDI  R30,LOW(6)
000223 e0f0      	LDI  R31,HIGH(6)
000224 940e 082e 	CALL SUBOPT_0x13
                 ; 0000 030D                     }
                 _0xC5:
                 ; 0000 030E                 sek0 = 0;
000226 940e 080d 	CALL SUBOPT_0xF
                 ; 0000 030F                 }
                 _0xC1:
                 ; 0000 0310 
                 ; 0000 0311     break;
000228 c0da      	RJMP _0x96
                 ; 0000 0312 
                 ; 0000 0313     case 6:
                 _0xBD:
000229 30e6      	CPI  R30,LOW(0x6)
00022a e0a0      	LDI  R26,HIGH(0x6)
00022b 07fa      	CPC  R31,R26
00022c f519      	BRNE _0xCC
                 ; 0000 0314             drgania();
00022d 940e 0833 	CALL SUBOPT_0x14
                 ; 0000 0315 
                 ; 0000 0316             if(sek0 > 130 & PORTB.3 == 1)
                +
00022f e8e2     +LDI R30 , LOW ( 0x82 )
000230 e0f0     +LDI R31 , HIGH ( 0x82 )
000231 e060     +LDI R22 , BYTE3 ( 0x82 )
000232 e070     +LDI R23 , BYTE4 ( 0x82 )
                 	__GETD1N 0x82
000233 940e 0968 	CALL __GTD12
000235 2e0e      	MOV  R0,R30
000236 e0a0      	LDI  R26,0
000237 99c3      	SBIC 0x18,3
000238 e0a1      	LDI  R26,1
000239 940e 07f9 	CALL SUBOPT_0xB
00023b f011      	BREQ _0xCD
                 ; 0000 0317                  {
                 ; 0000 0318                  PORTB.3 = 0; //psikanie
00023c 98c3      	CBI  0x18,3
                 ; 0000 0319                  PORTB.5 = 0;  //wibrator nowy
00023d 98c5      	CBI  0x18,5
                 ; 0000 031A                  }
                 ; 0000 031B             if(sek0 > 150)  //czekaj na pukniecie
                 _0xCD:
00023e 940e 0825 	CALL SUBOPT_0x12
                +
000240 39a7     +CPI R26 , LOW ( 0x97 )
000241 e0e0     +LDI R30 , HIGH ( 0x97 )
000242 07be     +CPC R27 , R30
000243 e0e0     +LDI R30 , BYTE3 ( 0x97 )
000244 078e     +CPC R24 , R30
000245 e0e0     +LDI R30 , BYTE4 ( 0x97 )
000246 079e     +CPC R25 , R30
                 	__CPD2N 0x97
000247 f03c      	BRLT _0xD2
                 ; 0000 031C                {
                 ; 0000 031D                PORTD.5 = 0;  //na dol
000248 9895      	CBI  0x12,5
                 ; 0000 031E                sek0 = 0;
000249 940e 080d 	CALL SUBOPT_0xF
                 ; 0000 031F                proces[0] = 7;
00024b e0e7      	LDI  R30,LOW(7)
00024c e0f0      	LDI  R31,HIGH(7)
00024d 940e 082e 	CALL SUBOPT_0x13
                 ; 0000 0320                }
                 ; 0000 0321     break;
                 _0xD2:
00024f c0b3      	RJMP _0x96
                 ; 0000 0322 
                 ; 0000 0323     case 7:
                 _0xCC:
000250 30e7      	CPI  R30,LOW(0x7)
000251 e0a0      	LDI  R26,HIGH(0x7)
000252 07fa      	CPC  R31,R26
000253 f4a1      	BRNE _0xD5
                 ; 0000 0324             drgania();
000254 de69      	RCALL _drgania
                 ; 0000 0325             if(PINA.4 == 0)
000255 99cc      	SBIC 0x19,4
000256 c002      	RJMP _0xD6
                 ; 0000 0326                 wystarczy_zejscia = 1;
000257 940e 083f 	CALL SUBOPT_0x16
                 ; 0000 0327             if(sek0 > 80)
                 _0xD6:
000259 940e 0825 	CALL SUBOPT_0x12
                +
00025b 35a1     +CPI R26 , LOW ( 0x51 )
00025c e0e0     +LDI R30 , HIGH ( 0x51 )
00025d 07be     +CPC R27 , R30
00025e e0e0     +LDI R30 , BYTE3 ( 0x51 )
00025f 078e     +CPC R24 , R30
000260 e0e0     +LDI R30 , BYTE4 ( 0x51 )
000261 079e     +CPC R25 , R30
                 	__CPD2N 0x51
000262 f024      	BRLT _0xD7
                 ; 0000 0328                {
                 ; 0000 0329                proces[0] = 5;
000263 e0e5      	LDI  R30,LOW(5)
000264 e0f0      	LDI  R31,HIGH(5)
000265 940e 082e 	CALL SUBOPT_0x13
                 ; 0000 032A                }
                 ; 0000 032B     break;
                 _0xD7:
000267 c09b      	RJMP _0x96
                 ; 0000 032C 
                 ; 0000 032D     case 8:
                 _0xD5:
000268 30e8      	CPI  R30,LOW(0x8)
000269 e0a0      	LDI  R26,HIGH(0x8)
00026a 07fa      	CPC  R31,R26
00026b f451      	BRNE _0xD8
                 ; 0000 032E             if(sek0 > 20)
00026c 940e 0836 	CALL SUBOPT_0x15
00026e f034      	BRLT _0xD9
                 ; 0000 032F                 {
                 ; 0000 0330                 //PORTB.7 = 1; //nie lej kleju na razie
                 ; 0000 0331                 sek0 = 0;
00026f 940e 080d 	CALL SUBOPT_0xF
                 ; 0000 0332                 proces[0] = 9;
000271 e0e9      	LDI  R30,LOW(9)
000272 e0f0      	LDI  R31,HIGH(9)
000273 940e 082e 	CALL SUBOPT_0x13
                 ; 0000 0333                 }
                 ; 0000 0334 
                 ; 0000 0335     break;
                 _0xD9:
000275 c08d      	RJMP _0x96
                 ; 0000 0336 
                 ; 0000 0337     case 9:
                 _0xD8:
000276 30e9      	CPI  R30,LOW(0x9)
000277 e0a0      	LDI  R26,HIGH(0x9)
000278 07fa      	CPC  R31,R26
000279 f451      	BRNE _0xDA
                 ; 0000 0338             if(sek0 > 50)
00027a 940e 0858 	CALL SUBOPT_0x1A
00027c f034      	BRLT _0xDB
                 ; 0000 0339                 {
                 ; 0000 033A                 PORTB.7 = 0;//przestan lac klej
00027d 98c7      	CBI  0x18,7
                 ; 0000 033B                 PORTD.2 = 1; //cofnij igle z klejem
00027e 9a92      	SBI  0x12,2
                 ; 0000 033C                 sek0 = 0;
00027f 940e 080d 	CALL SUBOPT_0xF
                 ; 0000 033D                 proces[0] = 10;
000281 940e 084c 	CALL SUBOPT_0x18
                 ; 0000 033E                 }
                 ; 0000 033F 
                 ; 0000 0340     break;
                 _0xDB:
000283 c07f      	RJMP _0x96
                 ; 0000 0341 
                 ; 0000 0342 
                 ; 0000 0343 
                 ; 0000 0344     case 10:
                 _0xDA:
000284 30ea      	CPI  R30,LOW(0xA)
000285 e0a0      	LDI  R26,HIGH(0xA)
000286 07fa      	CPC  R31,R26
000287 f4c1      	BRNE _0xE0
                 ; 0000 0345             if(sek0 > 50)
000288 940e 0858 	CALL SUBOPT_0x1A
00028a f0a4      	BRLT _0xE1
                 ; 0000 0346                 {
                 ; 0000 0347                 PORTD.6 = 1; //silownik podaje nakretke monterowi
00028b 9a96      	SBI  0x12,6
                 ; 0000 0348                 sek0 = 0;
00028c 940e 080d 	CALL SUBOPT_0xF
                 ; 0000 0349                  if(test_zjezdzalni_nakretek == 0)
00028e 91e0 0582 	LDS  R30,_test_zjezdzalni_nakretek
000290 91f0 0583 	LDS  R31,_test_zjezdzalni_nakretek+1
000292 9730      	SBIW R30,0
000293 f419      	BRNE _0xE4
                 ; 0000 034A                     proces[0] = 11;
000294 e0eb      	LDI  R30,LOW(11)
000295 e0f0      	LDI  R31,HIGH(11)
000296 c002      	RJMP _0x331
                 ; 0000 034B                  else
                 _0xE4:
                 ; 0000 034C                     proces[0] = 1111;
000297 e5e7      	LDI  R30,LOW(1111)
000298 e0f4      	LDI  R31,HIGH(1111)
                 _0x331:
000299 93e0 051c 	STS  _proces,R30
00029b 93f0 051d 	STS  _proces+1,R31
                 ; 0000 034D                 sek0 = 0;
00029d 940e 080d 	CALL SUBOPT_0xF
                 ; 0000 034E                 }
                 ; 0000 034F 
                 ; 0000 0350     break;
                 _0xE1:
00029f c063      	RJMP _0x96
                 ; 0000 0351     case 11:
                 _0xE0:
0002a0 30eb      	CPI  R30,LOW(0xB)
0002a1 e0a0      	LDI  R26,HIGH(0xB)
0002a2 07fa      	CPC  R31,R26
0002a3 f4c9      	BRNE _0xE6
                 ; 0000 0352             if(sek0 > 50)
0002a4 940e 0858 	CALL SUBOPT_0x1A
0002a6 f0ac      	BRLT _0xE7
                 ; 0000 0353                 {
                 ; 0000 0354                 kontrola_czujnika_dolnego_nakretek();
0002a7 de59      	RCALL _kontrola_czujnika_dolnego_nakretek
                 ; 0000 0355 
                 ; 0000 0356                 if(wcisnalem_pedal == 1)
0002a8 91a0 0552 	LDS  R26,_wcisnalem_pedal
0002aa 91b0 0553 	LDS  R27,_wcisnalem_pedal+1
0002ac 9711      	SBIW R26,1
0002ad f441      	BRNE _0xE8
                 ; 0000 0357                    {
                 ; 0000 0358                    PORTD.6 = 0;  //cofnij podajnik nakretek
0002ae 9896      	CBI  0x12,6
                 ; 0000 0359                    //PORTB.5 = 1;  //wibrator
                 ; 0000 035A                    sek0 = 0;
0002af 940e 080d 	CALL SUBOPT_0xF
                 ; 0000 035B                    proces[0] = 12;
0002b1 e0ec      	LDI  R30,LOW(12)
0002b2 e0f0      	LDI  R31,HIGH(12)
0002b3 940e 082e 	CALL SUBOPT_0x13
                 ; 0000 035C                    }
                 ; 0000 035D                 else
0002b5 c006      	RJMP _0xEB
                 _0xE8:
                 ; 0000 035E                    sek0 = 51;
                +
0002b6 e3e3     +LDI R30 , LOW ( 0x33 )
0002b7 e0f0     +LDI R31 , HIGH ( 0x33 )
0002b8 e060     +LDI R22 , BYTE3 ( 0x33 )
0002b9 e070     +LDI R23 , BYTE4 ( 0x33 )
                 	__GETD1N 0x33
0002ba 940e 084f 	CALL SUBOPT_0x19
                 ; 0000 035F 
                 ; 0000 0360                 }
                 _0xEB:
                 ; 0000 0361     break;
                 _0xE7:
0002bc c046      	RJMP _0x96
                 ; 0000 0362     case 1111:
                 _0xE6:
0002bd 35e7      	CPI  R30,LOW(0x457)
0002be e0a4      	LDI  R26,HIGH(0x457)
0002bf 07fa      	CPC  R31,R26
0002c0 f529      	BRNE _0xEC
                 ; 0000 0363             if(sek0 > 50)
0002c1 940e 0858 	CALL SUBOPT_0x1A
0002c3 f034      	BRLT _0xED
                 ; 0000 0364                 {
                 ; 0000 0365                 if(PINA.7 == 1)
0002c4 9bcf      	SBIS 0x19,7
0002c5 c004      	RJMP _0xEE
                 ; 0000 0366                    {
                 ; 0000 0367                    PORTD.5 = 0;   //zamknij przegrode nakretek
0002c6 9895      	CBI  0x12,5
                 ; 0000 0368                    PORTD.6 = 0;  //cofnij podajnik nakretek
0002c7 9896      	CBI  0x12,6
                 ; 0000 0369                    //PORTB.5 = 1;  //wibrator
                 ; 0000 036A                    sek0 = 0;
0002c8 940e 080d 	CALL SUBOPT_0xF
                 ; 0000 036B                    }
                 ; 0000 036C                 }
                 _0xEE:
                 ; 0000 036D             kontrola_czujnika_dolnego_nakretek();
                 _0xED:
0002ca de36      	RCALL _kontrola_czujnika_dolnego_nakretek
                 ; 0000 036E             if(PORTD.6 == 0 & sek0 > 50 & PORTD.5 == 0)
0002cb e0a0      	LDI  R26,0
0002cc 9996      	SBIC 0x12,6
0002cd e0a1      	LDI  R26,1
0002ce 940e 07fe 	CALL SUBOPT_0xC
0002d0 940e 0825 	CALL SUBOPT_0x12
                +
0002d2 e3e2     +LDI R30 , LOW ( 0x32 )
0002d3 e0f0     +LDI R31 , HIGH ( 0x32 )
0002d4 e060     +LDI R22 , BYTE3 ( 0x32 )
0002d5 e070     +LDI R23 , BYTE4 ( 0x32 )
                 	__GETD1N 0x32
0002d6 940e 0968 	CALL __GTD12
0002d8 220e      	AND  R0,R30
0002d9 e0a0      	LDI  R26,0
0002da 9995      	SBIC 0x12,5
0002db e0a1      	LDI  R26,1
0002dc e0e0      	LDI  R30,LOW(0)
0002dd 940e 095d 	CALL __EQB12
0002df 21e0      	AND  R30,R0
0002e0 f021      	BREQ _0xF3
                 ; 0000 036F                     {
                 ; 0000 0370                     proces[0] = 12;
0002e1 e0ec      	LDI  R30,LOW(12)
0002e2 e0f0      	LDI  R31,HIGH(12)
0002e3 940e 082e 	CALL SUBOPT_0x13
                 ; 0000 0371                     }
                 ; 0000 0372 
                 ; 0000 0373     break;
                 _0xF3:
0002e5 c01d      	RJMP _0x96
                 ; 0000 0374 
                 ; 0000 0375 
                 ; 0000 0376 
                 ; 0000 0377 
                 ; 0000 0378 
                 ; 0000 0379 
                 ; 0000 037A 
                 ; 0000 037B     case 12:
                 _0xEC:
0002e6 30ec      	CPI  R30,LOW(0xC)
0002e7 e0a0      	LDI  R26,HIGH(0xC)
0002e8 07fa      	CPC  R31,R26
0002e9 f451      	BRNE _0xF4
                 ; 0000 037C             if(sek0 > 1)
0002ea 940e 0825 	CALL SUBOPT_0x12
0002ec 940e 0861 	CALL SUBOPT_0x1B
0002ee f024      	BRLT _0xF5
                 ; 0000 037D                proces[0] = 13;
0002ef e0ed      	LDI  R30,LOW(13)
0002f0 e0f0      	LDI  R31,HIGH(13)
0002f1 940e 082e 	CALL SUBOPT_0x13
                 ; 0000 037E     break;
                 _0xF5:
0002f3 c00f      	RJMP _0x96
                 ; 0000 037F 
                 ; 0000 0380     case 13:
                 _0xF4:
0002f4 30ed      	CPI  R30,LOW(0xD)
0002f5 e0a0      	LDI  R26,HIGH(0xD)
0002f6 07fa      	CPC  R31,R26
0002f7 f459      	BRNE _0x96
                 ; 0000 0381 
                 ; 0000 0382                 sek0 = 0;
0002f8 940e 080d 	CALL SUBOPT_0xF
                 ; 0000 0383                 proces[0] = 0;
0002fa e0e0      	LDI  R30,LOW(0)
0002fb 93e0 051c 	STS  _proces,R30
0002fd 93e0 051d 	STS  _proces+1,R30
                 ; 0000 0384                 wynik = 1;
                +
0002ff e001     +LDI R16 , LOW ( 1 )
000300 e010     +LDI R17 , HIGH ( 1 )
                 	__GETWRN 16,17,1
                 ; 0000 0385                 podaj_nakretke = 0;
000301 940e 0869 	CALL SUBOPT_0x1C
                 ; 0000 0386                 wcisnalem_pedal = 0;
                 ; 0000 0387 
                 ; 0000 0388     break;
                 ; 0000 0389     }
                 _0x96:
                 ; 0000 038A 
                 ; 0000 038B 
                 ; 0000 038C 
                 ; 0000 038D 
                 ; 0000 038E return wynik;
000303 c1c3      	RJMP _0x20A0001
                 ; 0000 038F }
                 ;
                 ;
                 ;int proces_1()
                 ; 0000 0393 {
                 _proces_1:
                 ; 0000 0394 int wynik;
                 ; 0000 0395 wynik = 0;
000304 940e 0808 	CALL SUBOPT_0xE
                 ;	wynik -> R16,R17
                 ; 0000 0396 
                 ; 0000 0397 switch(proces[1])
                +
000306 91e0 051e+LDS R30 , _proces + ( 2 )
000308 91f0 051f+LDS R31 , _proces + ( 2 ) + 1
                 	__GETW1MN _proces,2
                 ; 0000 0398     {
                 ; 0000 0399     case 0:
00030a 9730      	SBIW R30,0
00030b f459      	BRNE _0xFA
                 ; 0000 039A         if(podaj_nakretke == 1)
00030c 91a0 0550 	LDS  R26,_podaj_nakretke
00030e 91b0 0551 	LDS  R27,_podaj_nakretke+1
000310 9711      	SBIW R26,1
000311 f421      	BRNE _0xFB
                 ; 0000 039B             proces[1] = 1;
                +
000312 e1ee     +LDI R30 , LOW ( _proces + ( 2 ) )
000313 e0f5     +LDI R31 , HIGH ( _proces + ( 2 ) )
                 	__POINTW1MN _proces,2
000314 940e 0873 	CALL SUBOPT_0x1D
                 ; 0000 039C     break;
                 _0xFB:
000316 c0ad      	RJMP _0xF9
                 ; 0000 039D 
                 ; 0000 039E     case 1:
                 _0xFA:
000317 30e1      	CPI  R30,LOW(0x1)
000318 e0a0      	LDI  R26,HIGH(0x1)
000319 07fa      	CPC  R31,R26
00031a f4a1      	BRNE _0xFC
                 ; 0000 039F             if(PINA.2 == 0 & wcisniete_zakonczone == 2) //widzi kamien
00031b e0a0      	LDI  R26,0
00031c 99ca      	SBIC 0x19,2
00031d e0a1      	LDI  R26,1
00031e 940e 07fe 	CALL SUBOPT_0xC
000320 91a0 0566 	LDS  R26,_wcisniete_zakonczone
000322 91b0 0567 	LDS  R27,_wcisniete_zakonczone+1
000324 940e 0878 	CALL SUBOPT_0x1E
000326 21e0      	AND  R30,R0
000327 f031      	BREQ _0xFD
                 ; 0000 03A0             {
                 ; 0000 03A1             sek1 = 0;
000328 940e 087d 	CALL SUBOPT_0x1F
                 ; 0000 03A2             proces[1] = 2;
00032a e0a2      	LDI  R26,LOW(2)
00032b e0b0      	LDI  R27,HIGH(2)
00032c 83a0      	STD  Z+0,R26
00032d 83b1      	STD  Z+1,R27
                 ; 0000 03A3             }
                 ; 0000 03A4     break;
                 _0xFD:
00032e c095      	RJMP _0xF9
                 ; 0000 03A5 
                 ; 0000 03A6     case 2:
                 _0xFC:
00032f 30e2      	CPI  R30,LOW(0x2)
000330 e0a0      	LDI  R26,HIGH(0x2)
000331 07fa      	CPC  R31,R26
000332 f481      	BRNE _0xFE
                 ; 0000 03A7             if(PINA.2 == 1 & zezwolenie_od_master == 1) //przejechal kamien na pewno
000333 e0a0      	LDI  R26,0
000334 99ca      	SBIC 0x19,2
000335 e0a1      	LDI  R26,1
000336 940e 0889 	CALL SUBOPT_0x20
000338 940e 088e 	CALL SUBOPT_0x21
00033a 21e0      	AND  R30,R0
00033b f031      	BREQ _0xFF
                 ; 0000 03A8             {
                 ; 0000 03A9             sek1 = 0;
00033c 940e 087d 	CALL SUBOPT_0x1F
                 ; 0000 03AA             proces[1] = 3;
00033e e0a3      	LDI  R26,LOW(3)
00033f e0b0      	LDI  R27,HIGH(3)
000340 83a0      	STD  Z+0,R26
000341 83b1      	STD  Z+1,R27
                 ; 0000 03AB 
                 ; 0000 03AC             }
                 ; 0000 03AD     break;
                 _0xFF:
000342 c081      	RJMP _0xF9
                 ; 0000 03AE 
                 ; 0000 03AF     case 3:
                 _0xFE:
000343 30e3      	CPI  R30,LOW(0x3)
000344 e0a0      	LDI  R26,HIGH(0x3)
000345 07fa      	CPC  R31,R26
000346 f439      	BRNE _0x100
                 ; 0000 03B0 
                 ; 0000 03B1            sek1 = 0;
000347 940e 087d 	CALL SUBOPT_0x1F
                 ; 0000 03B2            proces[1] = 4;
000349 e0a4      	LDI  R26,LOW(4)
00034a e0b0      	LDI  R27,HIGH(4)
00034b 83a0      	STD  Z+0,R26
00034c 83b1      	STD  Z+1,R27
                 ; 0000 03B3 
                 ; 0000 03B4     break;
00034d c076      	RJMP _0xF9
                 ; 0000 03B5 
                 ; 0000 03B6     case 4:
                 _0x100:
00034e 30e4      	CPI  R30,LOW(0x4)
00034f e0a0      	LDI  R26,HIGH(0x4)
000350 07fa      	CPC  R31,R26
000351 f469      	BRNE _0x101
                 ; 0000 03B7             if(sek1 > 0) ////////////////////////dam tu wiecej 20, 28.11.2017
000352 940e 0893 	CALL SUBOPT_0x22
000354 940e 09b2 	CALL __CPD02
000356 f43c      	BRGE _0x102
                 ; 0000 03B8                 {
                 ; 0000 03B9                 PORTD.7 = 1;
000357 9a97      	SBI  0x12,7
                 ; 0000 03BA                 sek1 = 0;
000358 940e 087d 	CALL SUBOPT_0x1F
                 ; 0000 03BB                 proces[1] = 5;
00035a e0a5      	LDI  R26,LOW(5)
00035b e0b0      	LDI  R27,HIGH(5)
00035c 83a0      	STD  Z+0,R26
00035d 83b1      	STD  Z+1,R27
                 ; 0000 03BC                 }
                 ; 0000 03BD 
                 ; 0000 03BE     break;
                 _0x102:
00035e c065      	RJMP _0xF9
                 ; 0000 03BF 
                 ; 0000 03C0     case 5:
                 _0x101:
00035f 30e5      	CPI  R30,LOW(0x5)
000360 e0a0      	LDI  R26,HIGH(0x5)
000361 07fa      	CPC  R31,R26
000362 f589      	BRNE _0x105
                 ; 0000 03C1             if(sek1 > 100)
000363 940e 0893 	CALL SUBOPT_0x22
                +
000365 36a5     +CPI R26 , LOW ( 0x65 )
000366 e0e0     +LDI R30 , HIGH ( 0x65 )
000367 07be     +CPC R27 , R30
000368 e0e0     +LDI R30 , BYTE3 ( 0x65 )
000369 078e     +CPC R24 , R30
00036a e0e0     +LDI R30 , BYTE4 ( 0x65 )
00036b 079e     +CPC R25 , R30
                 	__CPD2N 0x65
00036c f134      	BRLT _0x106
                 ; 0000 03C2                 {
                 ; 0000 03C3                 if(PINA.7 == 1 & proces[0] == 11) //monter nacisnal pedal
00036d e0a0      	LDI  R26,0
00036e 99cf      	SBIC 0x19,7
00036f e0a1      	LDI  R26,1
000370 940e 0889 	CALL SUBOPT_0x20
000372 91a0 051c 	LDS  R26,_proces
000374 91b0 051d 	LDS  R27,_proces+1
000376 e0eb      	LDI  R30,LOW(11)
000377 e0f0      	LDI  R31,HIGH(11)
000378 940e 0962 	CALL __EQW12
00037a 21e0      	AND  R30,R0
00037b f059      	BREQ _0x107
                 ; 0000 03C4                     {
                 ; 0000 03C5                     PORTD.3 = 1;  //zluzuj chwyt grzybka
00037c 9a93      	SBI  0x12,3
                 ; 0000 03C6                     PORTD.7 = 0; //pusc kamien
00037d 9897      	CBI  0x12,7
                 ; 0000 03C7                     wcisnalem_pedal = 1;
00037e 940e 089c 	CALL SUBOPT_0x23
                 ; 0000 03C8                     sek1 = 0;
000380 940e 087d 	CALL SUBOPT_0x1F
                 ; 0000 03C9                     proces[1] = 6;
000382 e0a6      	LDI  R26,LOW(6)
000383 e0b0      	LDI  R27,HIGH(6)
000384 83a0      	STD  Z+0,R26
000385 83b1      	STD  Z+1,R27
                 ; 0000 03CA                     }
                 ; 0000 03CB                 else
000386 c00c      	RJMP _0x10C
                 _0x107:
                 ; 0000 03CC                     sek1 = 101;
                +
000387 e6e5     +LDI R30 , LOW ( 0x65 )
000388 e0f0     +LDI R31 , HIGH ( 0x65 )
000389 e060     +LDI R22 , BYTE3 ( 0x65 )
00038a e070     +LDI R23 , BYTE4 ( 0x65 )
                 	__GETD1N 0x65
00038b 93e0 0504 	STS  _sek1,R30
00038d 93f0 0505 	STS  _sek1+1,R31
00038f 9360 0506 	STS  _sek1+2,R22
000391 9370 0507 	STS  _sek1+3,R23
                 ; 0000 03CD                 }
                 _0x10C:
                 ; 0000 03CE 
                 ; 0000 03CF     break;
                 _0x106:
000393 c030      	RJMP _0xF9
                 ; 0000 03D0 
                 ; 0000 03D1 
                 ; 0000 03D2 //teraz jest dane ze natychmiast ruszy, moge dac alternatywe ze po chwili zmieniajac case 5 i case 6
                 ; 0000 03D3 
                 ; 0000 03D4 
                 ; 0000 03D5     case 6:
                 _0x105:
000394 30e6      	CPI  R30,LOW(0x6)
000395 e0a0      	LDI  R26,HIGH(0x6)
000396 07fa      	CPC  R31,R26
000397 f461      	BRNE _0x10D
                 ; 0000 03D6             if(sek1 > 1)      //50 31.07.2017
000398 940e 0893 	CALL SUBOPT_0x22
00039a 940e 0861 	CALL SUBOPT_0x1B
00039c f034      	BRLT _0x10E
                 ; 0000 03D7                 {
                 ; 0000 03D8                 sek1 = 0;
00039d 940e 087d 	CALL SUBOPT_0x1F
                 ; 0000 03D9                 proces[1] = 7;
00039f e0a7      	LDI  R26,LOW(7)
0003a0 e0b0      	LDI  R27,HIGH(7)
0003a1 83a0      	STD  Z+0,R26
0003a2 83b1      	STD  Z+1,R27
                 ; 0000 03DA                 }
                 ; 0000 03DB 
                 ; 0000 03DC     break;
                 _0x10E:
0003a3 c020      	RJMP _0xF9
                 ; 0000 03DD 
                 ; 0000 03DE 
                 ; 0000 03DF 
                 ; 0000 03E0     case 7:
                 _0x10D:
0003a4 30e7      	CPI  R30,LOW(0x7)
0003a5 e0a0      	LDI  R26,HIGH(0x7)
0003a6 07fa      	CPC  R31,R26
0003a7 f491      	BRNE _0x10F
                 ; 0000 03E1             if(sek1 > 30) //20 31.07.2017
0003a8 940e 0893 	CALL SUBOPT_0x22
                +
0003aa 31af     +CPI R26 , LOW ( 0x1F )
0003ab e0e0     +LDI R30 , HIGH ( 0x1F )
0003ac 07be     +CPC R27 , R30
0003ad e0e0     +LDI R30 , BYTE3 ( 0x1F )
0003ae 078e     +CPC R24 , R30
0003af e0e0     +LDI R30 , BYTE4 ( 0x1F )
0003b0 079e     +CPC R25 , R30
                 	__CPD2N 0x1F
0003b1 f03c      	BRLT _0x110
                 ; 0000 03E2                {
                 ; 0000 03E3                PORTD.3 = 0;  //zacisnij z powrotem szczeki
0003b2 9893      	CBI  0x12,3
                 ; 0000 03E4                proces[1] = 8;
                +
0003b3 e1ee     +LDI R30 , LOW ( _proces + ( 2 ) )
0003b4 e0f5     +LDI R31 , HIGH ( _proces + ( 2 ) )
                 	__POINTW1MN _proces,2
0003b5 e0a8      	LDI  R26,LOW(8)
0003b6 e0b0      	LDI  R27,HIGH(8)
0003b7 83a0      	STD  Z+0,R26
0003b8 83b1      	STD  Z+1,R27
                 ; 0000 03E5                }
                 ; 0000 03E6     break;
                 _0x110:
0003b9 c00a      	RJMP _0xF9
                 ; 0000 03E7 
                 ; 0000 03E8     case 8:
                 _0x10F:
0003ba 30e8      	CPI  R30,LOW(0x8)
0003bb e0a0      	LDI  R26,HIGH(0x8)
0003bc 07fa      	CPC  R31,R26
0003bd f431      	BRNE _0xF9
                 ; 0000 03E9 
                 ; 0000 03EA                 sek1 = 0;
0003be 940e 087d 	CALL SUBOPT_0x1F
                 ; 0000 03EB                 proces[1] = 0;
0003c0 940e 08a3 	CALL SUBOPT_0x24
                 ; 0000 03EC                 wynik = 1;
                +
0003c2 e001     +LDI R16 , LOW ( 1 )
0003c3 e010     +LDI R17 , HIGH ( 1 )
                 	__GETWRN 16,17,1
                 ; 0000 03ED 
                 ; 0000 03EE 
                 ; 0000 03EF     break;
                 ; 0000 03F0     }
                 _0xF9:
                 ; 0000 03F1 
                 ; 0000 03F2 
                 ; 0000 03F3 
                 ; 0000 03F4 
                 ; 0000 03F5 return wynik;
0003c4 c102      	RJMP _0x20A0001
                 ; 0000 03F6 }
                 ;
                 ;
                 ;
                 ;int proces_3()
                 ; 0000 03FB {
                 _proces_3:
                 ; 0000 03FC int wynik;
                 ; 0000 03FD wynik = 0;
0003c5 940e 0808 	CALL SUBOPT_0xE
                 ;	wynik -> R16,R17
                 ; 0000 03FE 
                 ; 0000 03FF switch(proces[3])
                +
0003c7 91e0 0522+LDS R30 , _proces + ( 6 )
0003c9 91f0 0523+LDS R31 , _proces + ( 6 ) + 1
                 	__GETW1MN _proces,6
                 ; 0000 0400     {                 //ZMIENIAM PINE.2 NA PINE.6
                 ; 0000 0401     case 0: //pedal monter 2   //
0003cb 9730      	SBIW R30,0
0003cc f4b9      	BRNE _0x117
                 ; 0000 0402         if(PINE.6 == 1 & zezwolenie_od_master == 1)
0003cd e0a0      	LDI  R26,0
0003ce 990e      	SBIC 0x1,6
0003cf e0a1      	LDI  R26,1
0003d0 940e 0889 	CALL SUBOPT_0x20
0003d2 940e 088e 	CALL SUBOPT_0x21
0003d4 21e0      	AND  R30,R0
0003d5 f069      	BREQ _0x118
                 ; 0000 0403             {
                 ; 0000 0404             PORTC.5 = 1;     //wysun silownik otwierajacy wieze
0003d6 9aad      	SBI  0x15,5
                 ; 0000 0405             PORTC.6 = 0;     //wysun silownik otwierajacy wieze
0003d7 98ae      	CBI  0x15,6
                 ; 0000 0406             if(wieza == 0)
0003d8 940e 08a8 	CALL SUBOPT_0x25
0003da f411      	BRNE _0x11D
                 ; 0000 0407                 PORTC.2 = 0;  //stan otwart wejsciowy wie¿a 1
0003db 98aa      	CBI  0x15,2
                 ; 0000 0408             else
0003dc c002      	RJMP _0x120
                 _0x11D:
                 ; 0000 0409                 {
                 ; 0000 040A                 PORTC.3 = 1;  //stan otwarcia wejsciowy wie¿a 2
0003dd 9aab      	SBI  0x15,3
                 ; 0000 040B                 PORTC.7 = 0;  //stan otwarcia wejsciowy wie¿a 2
0003de 98af      	CBI  0x15,7
                 ; 0000 040C                 }
                 _0x120:
                 ; 0000 040D             sek3 = 0;
0003df 940e 08ae 	CALL SUBOPT_0x26
                 ; 0000 040E             proces[3] = 1;
0003e1 940e 0873 	CALL SUBOPT_0x1D
                 ; 0000 040F             }
                 ; 0000 0410     break;
                 _0x118:
0003e3 c08e      	RJMP _0x116
                 ; 0000 0411 
                 ; 0000 0412     case 1:
                 _0x117:
0003e4 30e1      	CPI  R30,LOW(0x1)
0003e5 e0a0      	LDI  R26,HIGH(0x1)
0003e6 07fa      	CPC  R31,R26
0003e7 f4a9      	BRNE _0x125
                 ; 0000 0413 
                 ; 0000 0414             if(sek3 > 20)
0003e8 940e 08ba 	CALL SUBOPT_0x27
                +
0003ea 31a5     +CPI R26 , LOW ( 0x15 )
0003eb e0e0     +LDI R30 , HIGH ( 0x15 )
0003ec 07be     +CPC R27 , R30
0003ed e0e0     +LDI R30 , BYTE3 ( 0x15 )
0003ee 078e     +CPC R24 , R30
0003ef e0e0     +LDI R30 , BYTE4 ( 0x15 )
0003f0 079e     +CPC R25 , R30
                 	__CPD2N 0x15
0003f1 f054      	BRLT _0x126
                 ; 0000 0415                 {
                 ; 0000 0416                 wcisniete_zakonczone = 1;
0003f2 940e 08c3 	CALL SUBOPT_0x28
                 ; 0000 0417                 PORTC.5 = 0;  //schowaj silownik otwierajacy wieze
0003f4 98ad      	CBI  0x15,5
                 ; 0000 0418                 PORTC.6 = 1;
0003f5 9aae      	SBI  0x15,6
                 ; 0000 0419                 sek3 = 0;
0003f6 940e 08ae 	CALL SUBOPT_0x26
                 ; 0000 041A                 proces[3] = 2;
0003f8 e0a2      	LDI  R26,LOW(2)
0003f9 e0b0      	LDI  R27,HIGH(2)
0003fa 83a0      	STD  Z+0,R26
0003fb 83b1      	STD  Z+1,R27
                 ; 0000 041B                 }
                 ; 0000 041C 
                 ; 0000 041D     break;
                 _0x126:
0003fc c075      	RJMP _0x116
                 ; 0000 041E 
                 ; 0000 041F     case 2:
                 _0x125:
0003fd 30e2      	CPI  R30,LOW(0x2)
0003fe e0a0      	LDI  R26,HIGH(0x2)
0003ff 07fa      	CPC  R31,R26
000400 f481      	BRNE _0x12B
                 ; 0000 0420             if(PINE.6 == 0)//ZMIENIAM PINE.2 NA PINE.6
000401 990e      	SBIC 0x1,6
000402 c00d      	RJMP _0x12C
                 ; 0000 0421             {
                 ; 0000 0422             if(wieza == 0)
000403 940e 08a8 	CALL SUBOPT_0x25
000405 f411      	BRNE _0x12D
                 ; 0000 0423                 {
                 ; 0000 0424                 PORTC.2 = 1;  //stan zamkniecia wieza 1
000406 9aaa      	SBI  0x15,2
                 ; 0000 0425                 //wieza = 1;
                 ; 0000 0426                 }
                 ; 0000 0427             else
000407 c002      	RJMP _0x130
                 _0x12D:
                 ; 0000 0428                 {
                 ; 0000 0429                 PORTC.3 = 0;  //stan zamkniecia wejsciowy wie¿a 2
000408 98ab      	CBI  0x15,3
                 ; 0000 042A                 PORTC.7 = 1;  //stan zamkniecia wejsciowy wie¿a 2
000409 9aaf      	SBI  0x15,7
                 ; 0000 042B                 //wieza = 0;
                 ; 0000 042C                 }
                 _0x130:
                 ; 0000 042D             sek3 = 0;
00040a 940e 08ae 	CALL SUBOPT_0x26
                 ; 0000 042E             proces[3] = 3;
00040c e0a3      	LDI  R26,LOW(3)
00040d e0b0      	LDI  R27,HIGH(3)
00040e 83a0      	STD  Z+0,R26
00040f 83b1      	STD  Z+1,R27
                 ; 0000 042F             }
                 ; 0000 0430     break;
                 _0x12C:
000410 c061      	RJMP _0x116
                 ; 0000 0431 
                 ; 0000 0432     case 3:
                 _0x12B:
000411 30e3      	CPI  R30,LOW(0x3)
000412 e0a0      	LDI  R26,HIGH(0x3)
000413 07fa      	CPC  R31,R26
000414 f489      	BRNE _0x135
                 ; 0000 0433             if(sek3 > 2)
000415 940e 08ba 	CALL SUBOPT_0x27
                +
000417 30a3     +CPI R26 , LOW ( 0x3 )
000418 e0e0     +LDI R30 , HIGH ( 0x3 )
000419 07be     +CPC R27 , R30
00041a e0e0     +LDI R30 , BYTE3 ( 0x3 )
00041b 078e     +CPC R24 , R30
00041c e0e0     +LDI R30 , BYTE4 ( 0x3 )
00041d 079e     +CPC R25 , R30
                 	__CPD2N 0x3
00041e f034      	BRLT _0x136
                 ; 0000 0434             {
                 ; 0000 0435             sek3 = 0;
00041f 940e 08ae 	CALL SUBOPT_0x26
                 ; 0000 0436             proces[3] = 4;
000421 e0a4      	LDI  R26,LOW(4)
000422 e0b0      	LDI  R27,HIGH(4)
000423 83a0      	STD  Z+0,R26
000424 83b1      	STD  Z+1,R27
                 ; 0000 0437             }
                 ; 0000 0438     break;
                 _0x136:
000425 c04c      	RJMP _0x116
                 ; 0000 0439 
                 ; 0000 043A     case 4:
                 _0x135:
000426 30e4      	CPI  R30,LOW(0x4)
000427 e0a0      	LDI  R26,HIGH(0x4)
000428 07fa      	CPC  R31,R26
000429 f449      	BRNE _0x137
                 ; 0000 043B             if(PINE.6 == 1)  //ZMIENIAM PIN.2 NA E.6
00042a 9b0e      	SBIS 0x1,6
00042b c006      	RJMP _0x138
                 ; 0000 043C             {
                 ; 0000 043D             sek3 = 0;
00042c 940e 08ae 	CALL SUBOPT_0x26
                 ; 0000 043E             proces[3] = 5;
00042e e0a5      	LDI  R26,LOW(5)
00042f e0b0      	LDI  R27,HIGH(5)
000430 83a0      	STD  Z+0,R26
000431 83b1      	STD  Z+1,R27
                 ; 0000 043F             }
                 ; 0000 0440     break;
                 _0x138:
000432 c03f      	RJMP _0x116
                 ; 0000 0441 
                 ; 0000 0442 
                 ; 0000 0443     case 5:
                 _0x137:
000433 30e5      	CPI  R30,LOW(0x5)
000434 e0a0      	LDI  R26,HIGH(0x5)
000435 07fa      	CPC  R31,R26
000436 f531      	BRNE _0x139
                 ; 0000 0444                //pozycja_wiezy != 11
                 ; 0000 0445             if(male_puchary_pozwolenie_wyjecia_puchara_monter_3 == 0)
000437 91e0 0586 	LDS  R30,_male_puchary_pozwolenie_wyjecia_puchara_monter_3
000439 91f0 0587 	LDS  R31,_male_puchary_pozwolenie_wyjecia_puchara_monter_3+1
00043b 9730      	SBIW R30,0
00043c f4f9      	BRNE _0x13A
                 ; 0000 0446             {
                 ; 0000 0447 
                 ; 0000 0448                 //jedz_wieza_cykl();
                 ; 0000 0449                 if(wieza == 0)
00043d 940e 08a8 	CALL SUBOPT_0x25
00043f f439      	BRNE _0x13B
                 ; 0000 044A                     wieza = 1;
000440 e0e1      	LDI  R30,LOW(1)
000441 e0f0      	LDI  R31,HIGH(1)
000442 93e0 0588 	STS  _wieza,R30
000444 93f0 0589 	STS  _wieza+1,R31
                 ; 0000 044B                 else
000446 c005      	RJMP _0x13C
                 _0x13B:
                 ; 0000 044C                     wieza = 0;
000447 e0e0      	LDI  R30,LOW(0)
000448 93e0 0588 	STS  _wieza,R30
00044a 93e0 0589 	STS  _wieza+1,R30
                 ; 0000 044D                 jedz_wieza_cykl_znacznik = 1;
                 _0x13C:
00044c e0e1      	LDI  R30,LOW(1)
00044d e0f0      	LDI  R31,HIGH(1)
00044e 93e0 058a 	STS  _jedz_wieza_cykl_znacznik,R30
000450 93f0 058b 	STS  _jedz_wieza_cykl_znacznik+1,R31
                 ; 0000 044E                 male_puchary_pozwolenie_wyjecia_puchara_monter_3 = 1;
000452 93e0 0586 	STS  _male_puchary_pozwolenie_wyjecia_puchara_monter_3,R30
000454 93f0 0587 	STS  _male_puchary_pozwolenie_wyjecia_puchara_monter_3+1,R31
                 ; 0000 044F                 proces[3] = 6;
                +
000456 e2e2     +LDI R30 , LOW ( _proces + ( 6 ) )
000457 e0f5     +LDI R31 , HIGH ( _proces + ( 6 ) )
                 	__POINTW1MN _proces,6
000458 e0a6      	LDI  R26,LOW(6)
000459 e0b0      	LDI  R27,HIGH(6)
00045a 83a0      	STD  Z+0,R26
00045b 83b1      	STD  Z+1,R27
                 ; 0000 0450             }
                 ; 0000 0451             //else
                 ; 0000 0452             //{
                 ; 0000 0453             //sek3 = 0;
                 ; 0000 0454             //proces[3] = 0;
                 ; 0000 0455             //pozycja_wiezy = 0;
                 ; 0000 0456             //male_puchary_pozwolenie_wyjecia_puchara_monter_3 = 1;
                 ; 0000 0457             //wynik = 1;
                 ; 0000 0458             //}
                 ; 0000 0459     break;
                 _0x13A:
00045c c015      	RJMP _0x116
                 ; 0000 045A 
                 ; 0000 045B     case 6:
                 _0x139:
00045d 30e6      	CPI  R30,LOW(0x6)
00045e e0a0      	LDI  R26,HIGH(0x6)
00045f 07fa      	CPC  R31,R26
000460 f489      	BRNE _0x116
                 ; 0000 045C 
                 ; 0000 045D              if(PINE.6 == 0)  //zmieniam PINE.2 na PINE.6
000461 990e      	SBIC 0x1,6
000462 c00f      	RJMP _0x13E
                 ; 0000 045E              {
                 ; 0000 045F              skonczony_proces[3] = 0;
                +
000463 e3e6     +LDI R30 , LOW ( _skonczony_proces + ( 6 ) )
000464 e0f5     +LDI R31 , HIGH ( _skonczony_proces + ( 6 ) )
                 	__POINTW1MN _skonczony_proces,6
000465 940e 08a3 	CALL SUBOPT_0x24
                 ; 0000 0460              sek3 = 0;
000467 940e 08ae 	CALL SUBOPT_0x26
                 ; 0000 0461              proces[3] = 0;
000469 940e 08a3 	CALL SUBOPT_0x24
                 ; 0000 0462              pozycja_wiezy = 0;
00046b e0e0      	LDI  R30,LOW(0)
00046c 93e0 056c 	STS  _pozycja_wiezy,R30
00046e 93e0 056d 	STS  _pozycja_wiezy+1,R30
                 ; 0000 0463              wynik = 0;
                +
000470 e000     +LDI R16 , LOW ( 0 )
000471 e010     +LDI R17 , HIGH ( 0 )
                 	__GETWRN 16,17,0
                 ; 0000 0464              }
                 ; 0000 0465     break;
                 _0x13E:
                 ; 0000 0466 
                 ; 0000 0467 
                 ; 0000 0468 
                 ; 0000 0469 
                 ; 0000 046A 
                 ; 0000 046B 
                 ; 0000 046C }
                 _0x116:
                 ; 0000 046D 
                 ; 0000 046E 
                 ; 0000 046F 
                 ; 0000 0470 
                 ; 0000 0471 return wynik;
000472 c054      	RJMP _0x20A0001
                 ; 0000 0472 }
                 ;
                 ;
                 ;int proces_4()
                 ; 0000 0476 {
                 _proces_4:
                 ; 0000 0477 int wynik;
                 ; 0000 0478 wynik = 0;
000473 940e 0808 	CALL SUBOPT_0xE
                 ;	wynik -> R16,R17
                 ; 0000 0479 
                 ; 0000 047A switch(proces[4])
                +
000475 91e0 0524+LDS R30 , _proces + ( 8 )
000477 91f0 0525+LDS R31 , _proces + ( 8 ) + 1
                 	__GETW1MN _proces,8
                 ; 0000 047B     {
                 ; 0000 047C 
                 ; 0000 047D    case 0:     //monter 3 nacisnal pedal
000479 9730      	SBIW R30,0
00047a f559      	BRNE _0x142
                 ; 0000 047E             if(PINA.7 == 1 & male_puchary_pozwolenie_wyjecia_puchara_monter_3 == 1)
00047b e0a0      	LDI  R26,0
00047c 99cf      	SBIC 0x19,7
00047d e0a1      	LDI  R26,1
00047e 940e 0889 	CALL SUBOPT_0x20
000480 91a0 0586 	LDS  R26,_male_puchary_pozwolenie_wyjecia_puchara_monter_3
000482 91b0 0587 	LDS  R27,_male_puchary_pozwolenie_wyjecia_puchara_monter_3+1
000484 940e 0803 	CALL SUBOPT_0xD
000486 21e0      	AND  R30,R0
000487 f0e9      	BREQ _0x143
                 ; 0000 047F             {
                 ; 0000 0480              if(PORTC.0 == 0) //silownik obrotowy o osi pionowej //monter wyciaga puchar
000488 99a8      	SBIC 0x15,0
000489 c002      	RJMP _0x144
                 ; 0000 0481                 PORTC.0 = 1;
00048a 9aa8      	SBI  0x15,0
                 ; 0000 0482              else
00048b c001      	RJMP _0x147
                 _0x144:
                 ; 0000 0483                 PORTC.0 = 0;
00048c 98a8      	CBI  0x15,0
                 ; 0000 0484             PORTC.1 = 1;  //silownik dociskowy os pozioma
                 _0x147:
00048d 9aa9      	SBI  0x15,1
                 ; 0000 0485 
                 ; 0000 0486             if(wieza == 1)
00048e 91a0 0588 	LDS  R26,_wieza
000490 91b0 0589 	LDS  R27,_wieza+1
000492 9711      	SBIW R26,1
000493 f411      	BRNE _0x14C
                 ; 0000 0487                 PORTC.2 = 0;  //stan otwart wejsciowy wie¿a 1
000494 98aa      	CBI  0x15,2
                 ; 0000 0488             else
000495 c002      	RJMP _0x14F
                 _0x14C:
                 ; 0000 0489                 {
                 ; 0000 048A                 PORTC.3 = 1;  //stan otwarcia wejsciowy wie¿a 2
000496 9aab      	SBI  0x15,3
                 ; 0000 048B                 PORTC.7 = 0;  //stan otwarcia wejsciowy wie¿a 2
000497 98af      	CBI  0x15,7
                 ; 0000 048C                 }
                 _0x14F:
                 ; 0000 048D 
                 ; 0000 048E             sek4 = 0;
000498 e0e0      	LDI  R30,LOW(0)
000499 93e0 0510 	STS  _sek4,R30
00049b 93e0 0511 	STS  _sek4+1,R30
00049d 93e0 0512 	STS  _sek4+2,R30
00049f 93e0 0513 	STS  _sek4+3,R30
                 ; 0000 048F             proces[4] = 1;
                +
0004a1 e2e4     +LDI R30 , LOW ( _proces + ( 8 ) )
0004a2 e0f5     +LDI R31 , HIGH ( _proces + ( 8 ) )
                 	__POINTW1MN _proces,8
0004a3 940e 0873 	CALL SUBOPT_0x1D
                 ; 0000 0490             }
                 ; 0000 0491 
                 ; 0000 0492     break;
                 _0x143:
0004a5 c021      	RJMP _0x141
                 ; 0000 0493 
                 ; 0000 0494     case 1:
                 _0x142:
0004a6 30e1      	CPI  R30,LOW(0x1)
0004a7 e0a0      	LDI  R26,HIGH(0x1)
0004a8 07fa      	CPC  R31,R26
0004a9 f4e9      	BRNE _0x141
                 ; 0000 0495           if(sek4 > 60)
0004aa 91a0 0510 	LDS  R26,_sek4
0004ac 91b0 0511 	LDS  R27,_sek4+1
0004ae 9180 0512 	LDS  R24,_sek4+2
0004b0 9190 0513 	LDS  R25,_sek4+3
                +
0004b2 33ad     +CPI R26 , LOW ( 0x3D )
0004b3 e0e0     +LDI R30 , HIGH ( 0x3D )
0004b4 07be     +CPC R27 , R30
0004b5 e0e0     +LDI R30 , BYTE3 ( 0x3D )
0004b6 078e     +CPC R24 , R30
0004b7 e0e0     +LDI R30 , BYTE4 ( 0x3D )
0004b8 079e     +CPC R25 , R30
                 	__CPD2N 0x3D
0004b9 f06c      	BRLT _0x155
                 ; 0000 0496             {
                 ; 0000 0497             male_puchary_pozwolenie_wyjecia_puchara_monter_3 = 0;
0004ba e0e0      	LDI  R30,LOW(0)
0004bb 93e0 0586 	STS  _male_puchary_pozwolenie_wyjecia_puchara_monter_3,R30
0004bd 93e0 0587 	STS  _male_puchary_pozwolenie_wyjecia_puchara_monter_3+1,R30
                 ; 0000 0498             wcisnalem_pedal = 1;
0004bf 940e 089c 	CALL SUBOPT_0x23
                 ; 0000 0499             proces[4] = 0;
                +
0004c1 e2e4     +LDI R30 , LOW ( _proces + ( 8 ) )
0004c2 e0f5     +LDI R31 , HIGH ( _proces + ( 8 ) )
                 	__POINTW1MN _proces,8
0004c3 940e 08a3 	CALL SUBOPT_0x24
                 ; 0000 049A             wynik = 1;
                +
0004c5 e001     +LDI R16 , LOW ( 1 )
0004c6 e010     +LDI R17 , HIGH ( 1 )
                 	__GETWRN 16,17,1
                 ; 0000 049B             }
                 ; 0000 049C     break;
                 _0x155:
                 ; 0000 049D 
                 ; 0000 049E 
                 ; 0000 049F     }
                 _0x141:
                 ; 0000 04A0 
                 ; 0000 04A1 
                 ; 0000 04A2 
                 ; 0000 04A3 
                 ; 0000 04A4 return wynik;
                 _0x20A0001:
0004c7 01f8      	MOVW R30,R16
0004c8 9109      	LD   R16,Y+
0004c9 9119      	LD   R17,Y+
0004ca 9508      	RET
                 ; 0000 04A5 }
                 ;
                 ;
                 ;
                 ;
                 ;
                 ;
                 ;
                 ;void procesy()
                 ; 0000 04AE {
                 _procesy:
                 ; 0000 04AF if(skonczony_proces[0] == 0)
0004cb 91e0 0530 	LDS  R30,_skonczony_proces
0004cd 91f0 0531 	LDS  R31,_skonczony_proces+1
0004cf 9730      	SBIW R30,0
0004d0 f411      	BRNE _0x156
                 ; 0000 04B0   skonczony_proces[0] = proces_0();
0004d1 940e 08ca 	CALL SUBOPT_0x29
                 ; 0000 04B1 
                 ; 0000 04B2 if(skonczony_proces[1] == 0 & tryb_male_puchary == 3)
                 _0x156:
                +
0004d3 91e0 0532+LDS R30 , _skonczony_proces + ( 2 )
0004d5 91f0 0533+LDS R31 , _skonczony_proces + ( 2 ) + 1
                 	__GETW1MN _skonczony_proces,2
0004d7 940e 08d1 	CALL SUBOPT_0x2A
0004d9 e0e3      	LDI  R30,LOW(3)
0004da e0f0      	LDI  R31,HIGH(3)
0004db 940e 0962 	CALL __EQW12
0004dd 21e0      	AND  R30,R0
0004de f029      	BREQ _0x157
                 ; 0000 04B3   skonczony_proces[1] = proces_1();
0004df de24      	RCALL _proces_1
                +
0004e0 93e0 0532+STS _skonczony_proces + ( 2 ) , R30
0004e2 93f0 0533+STS _skonczony_proces + ( 2 ) + 1 , R31
                 	__PUTW1MN _skonczony_proces,2
                 ; 0000 04B4 
                 ; 0000 04B5 if(skonczony_proces[3] == 0 & tryb_male_puchary == 2 & jedz_wieza_cykl_znacznik == 0)
                 _0x157:
                +
0004e4 91e0 0536+LDS R30 , _skonczony_proces + ( 6 )
0004e6 91f0 0537+LDS R31 , _skonczony_proces + ( 6 ) + 1
                 	__GETW1MN _skonczony_proces,6
0004e8 940e 08d1 	CALL SUBOPT_0x2A
0004ea 940e 0878 	CALL SUBOPT_0x1E
0004ec 220e      	AND  R0,R30
0004ed 91a0 058a 	LDS  R26,_jedz_wieza_cykl_znacznik
0004ef 91b0 058b 	LDS  R27,_jedz_wieza_cykl_znacznik+1
0004f1 940e 08d7 	CALL SUBOPT_0x2B
0004f3 21e0      	AND  R30,R0
0004f4 f011      	BREQ _0x158
                 ; 0000 04B6   skonczony_proces[3] = proces_3();
0004f5 940e 08dc 	CALL SUBOPT_0x2C
                 ; 0000 04B7 
                 ; 0000 04B8 if(skonczony_proces[4] == 0 & tryb_male_puchary == 2)
                 _0x158:
                +
0004f7 91e0 0538+LDS R30 , _skonczony_proces + ( 8 )
0004f9 91f0 0539+LDS R31 , _skonczony_proces + ( 8 ) + 1
                 	__GETW1MN _skonczony_proces,8
0004fb 940e 08d1 	CALL SUBOPT_0x2A
0004fd 940e 0878 	CALL SUBOPT_0x1E
0004ff 21e0      	AND  R30,R0
000500 f029      	BREQ _0x159
                 ; 0000 04B9   skonczony_proces[4] = proces_4();
000501 df71      	RCALL _proces_4
                +
000502 93e0 0538+STS _skonczony_proces + ( 8 ) , R30
000504 93f0 0539+STS _skonczony_proces + ( 8 ) + 1 , R31
                 	__PUTW1MN _skonczony_proces,8
                 ; 0000 04BA 
                 ; 0000 04BB }
                 _0x159:
000506 9508      	RET
                 ;
                 ;void zerowanie_procesow()
                 ; 0000 04BE {
                 _zerowanie_procesow:
                 ; 0000 04BF if(skonczony_proces[0] == 1 & skonczony_proces[1] == 1 & test_zjezdzalni_nakretek == 0 & tryb_male_puchary == 3)
000507 940e 08e3 	CALL SUBOPT_0x2D
000509 2e0e      	MOV  R0,R30
                +
00050a 91e0 0532+LDS R30 , _skonczony_proces + ( 2 )
00050c 91f0 0533+LDS R31 , _skonczony_proces + ( 2 ) + 1
                 	__GETW1MN _skonczony_proces,2
00050e 940e 08e8 	CALL SUBOPT_0x2E
000510 220e      	AND  R0,R30
000511 940e 07a7 	CALL SUBOPT_0x4
000513 e0e3      	LDI  R30,LOW(3)
000514 e0f0      	LDI  R31,HIGH(3)
000515 940e 0962 	CALL __EQW12
000517 21e0      	AND  R30,R0
000518 f031      	BREQ _0x15A
                 ; 0000 04C0     {
                 ; 0000 04C1     skonczony_proces[0] = 0;
000519 940e 08f2 	CALL SUBOPT_0x2F
                 ; 0000 04C2     skonczony_proces[1] = 0;
                 ; 0000 04C3     wcisniete_zakonczone = 1;
00051b 940e 08c3 	CALL SUBOPT_0x28
                 ; 0000 04C4     podaj_nakretke = 1;
00051d 940e 08fa 	CALL SUBOPT_0x30
                 ; 0000 04C5     }
                 ; 0000 04C6 
                 ; 0000 04C7 
                 ; 0000 04C8 if(skonczony_proces[0] == 1 & test_zjezdzalni_nakretek == 1)
                 _0x15A:
00051f 940e 08e3 	CALL SUBOPT_0x2D
000521 2e0e      	MOV  R0,R30
000522 91a0 0582 	LDS  R26,_test_zjezdzalni_nakretek
000524 91b0 0583 	LDS  R27,_test_zjezdzalni_nakretek+1
000526 940e 0803 	CALL SUBOPT_0xD
000528 21e0      	AND  R30,R0
000529 f031      	BREQ _0x15B
                 ; 0000 04C9     {
                 ; 0000 04CA     skonczony_proces[0] = 0;
00052a 940e 08f2 	CALL SUBOPT_0x2F
                 ; 0000 04CB     skonczony_proces[1] = 0;
                 ; 0000 04CC     wcisniete_zakonczone = 1;
00052c 940e 08c3 	CALL SUBOPT_0x28
                 ; 0000 04CD     podaj_nakretke = 1;
00052e 940e 08fa 	CALL SUBOPT_0x30
                 ; 0000 04CE     }
                 ; 0000 04CF 
                 ; 0000 04D0 
                 ; 0000 04D1                             //& skonczony_proces[3] == 1
                 ; 0000 04D2 if(skonczony_proces[0] == 1  & skonczony_proces[4] == 1 & test_zjezdzalni_nakretek == 0 & tryb_male_puchary == 2)
                 _0x15B:
000530 940e 08e3 	CALL SUBOPT_0x2D
000532 2e0e      	MOV  R0,R30
                +
000533 91e0 0538+LDS R30 , _skonczony_proces + ( 8 )
000535 91f0 0539+LDS R31 , _skonczony_proces + ( 8 ) + 1
                 	__GETW1MN _skonczony_proces,8
000537 940e 08e8 	CALL SUBOPT_0x2E
000539 220e      	AND  R0,R30
00053a 940e 07a7 	CALL SUBOPT_0x4
00053c 940e 0878 	CALL SUBOPT_0x1E
00053e 21e0      	AND  R30,R0
00053f f059      	BREQ _0x15C
                 ; 0000 04D3     {
                 ; 0000 04D4     skonczony_proces[0] = 0;                  //tryb male puchary
000540 e0e0      	LDI  R30,LOW(0)
000541 93e0 0530 	STS  _skonczony_proces,R30
000543 93e0 0531 	STS  _skonczony_proces+1,R30
                 ; 0000 04D5     //skonczony_proces[3] = 0;
                 ; 0000 04D6     skonczony_proces[4] = 0;
                +
000545 e3e8     +LDI R30 , LOW ( _skonczony_proces + ( 8 ) )
000546 e0f5     +LDI R31 , HIGH ( _skonczony_proces + ( 8 ) )
                 	__POINTW1MN _skonczony_proces,8
000547 940e 08a3 	CALL SUBOPT_0x24
                 ; 0000 04D7     podaj_nakretke = 1;
000549 940e 08fa 	CALL SUBOPT_0x30
                 ; 0000 04D8     }
                 ; 0000 04D9 
                 ; 0000 04DA 
                 ; 0000 04DB 
                 ; 0000 04DC 
                 ; 0000 04DD 
                 ; 0000 04DE }
                 _0x15C:
00054b 9508      	RET
                 ;
                 ;
                 ;void wypozucjonuj_wieze_wolno()
                 ; 0000 04E2 {
                 ; 0000 04E3 
                 ; 0000 04E4 PORTE.7 = 1;  //enable na silnik krok
                 ; 0000 04E5 
                 ; 0000 04E6 //+_+__________o ___________
                 ; 0000 04E7 //+_+__________ o _________  //dolny - do tego pozycjonujemy
                 ; 0000 04E8 //
                 ; 0000 04E9 PORTE.4 = 0;
                 ; 0000 04EA while(PINE.1 != 0)//kiedy nie widzi czujnik czujnik - jestesmy daleko
                 ; 0000 04EB     {
                 ; 0000 04EC     PORTE.5 = 1;
                 ; 0000 04ED     delay_us(1000);
                 ; 0000 04EE     PORTE.5 = 0;
                 ; 0000 04EF     delay_us(1000);
                 ; 0000 04F0     }
                 ; 0000 04F1 
                 ; 0000 04F2 //zwolnij
                 ; 0000 04F3 PORTE.5 = 1;
                 ; 0000 04F4 delay_us(2000);
                 ; 0000 04F5 PORTE.5 = 0;
                 ; 0000 04F6 delay_us(2000);
                 ; 0000 04F7 
                 ; 0000 04F8 PORTE.5 = 1;
                 ; 0000 04F9 delay_us(4000);
                 ; 0000 04FA PORTE.5 = 0;
                 ; 0000 04FB delay_us(4000);
                 ; 0000 04FC 
                 ; 0000 04FD 
                 ; 0000 04FE 
                 ; 0000 04FF //teraz sie cofniemy
                 ; 0000 0500 PORTE.4 = 1;  //zmieniamy dir
                 ; 0000 0501 while(basia1 < 1000)  //musimy przejechac tak, ze na pewno miniemy czujnuk gdybysmy byli miedzy nimi, zmieniam mikrokroki wiec daje mniej, by³o 2000
                 ; 0000 0502     {                                                         //2000 //1000  //500
                 ; 0000 0503     PORTE.5 = 1;
                 ; 0000 0504     delay_us(1000);
                 ; 0000 0505     PORTE.5 = 0;
                 ; 0000 0506     delay_us(1000);
                 ; 0000 0507     basia1++;
                 ; 0000 0508     }
                 ; 0000 0509 
                 ; 0000 050A //zwolnij
                 ; 0000 050B PORTE.5 = 1;
                 ; 0000 050C delay_us(4000);
                 ; 0000 050D PORTE.5 = 0;
                 ; 0000 050E delay_us(4000);
                 ; 0000 050F 
                 ; 0000 0510 PORTE.5 = 1;
                 ; 0000 0511 delay_us(4000);
                 ; 0000 0512 PORTE.5 = 0;
                 ; 0000 0513 delay_us(4000);
                 ; 0000 0514 
                 ; 0000 0515 
                 ; 0000 0516 PORTE.4 = 0;  //zmieniamy dir
                 ; 0000 0517 basia1 = 0;
                 ; 0000 0518 while(PINE.1 != 0)//i znowu do czujnika
                 ; 0000 0519     {
                 ; 0000 051A     PORTE.5 = 1;
                 ; 0000 051B     delay_us(1000);
                 ; 0000 051C     PORTE.5 = 0;
                 ; 0000 051D     delay_us(1000);
                 ; 0000 051E     }
                 ; 0000 051F while(basia1 < 10)  //kawaleczk zeby nie byc na granicy czujnuika
                 ; 0000 0520     {
                 ; 0000 0521     PORTE.5 = 1;
                 ; 0000 0522     delay_us(1000);
                 ; 0000 0523     PORTE.5 = 0;
                 ; 0000 0524     delay_us(1000);
                 ; 0000 0525     basia1++;
                 ; 0000 0526     }
                 ; 0000 0527 while(PINE.1 != 1)//i znowu teraz jak czujnik swieci
                 ; 0000 0528     {
                 ; 0000 0529     PORTE.5 = 1;
                 ; 0000 052A     delay_us(1000);
                 ; 0000 052B     PORTE.5 = 0;
                 ; 0000 052C     delay_us(1000);
                 ; 0000 052D     }
                 ; 0000 052E basia1 = 0;
                 ; 0000 052F while(basia1 < 10)  //kawaleczk zeby nie byc na granicy czujnuika
                 ; 0000 0530     {
                 ; 0000 0531     PORTE.5 = 1;
                 ; 0000 0532     delay_us(1000);
                 ; 0000 0533     PORTE.5 = 0;
                 ; 0000 0534     delay_us(1000);
                 ; 0000 0535     basia1++;
                 ; 0000 0536     }
                 ; 0000 0537 while(PINE.1 != 0)//i znowu do czujnika
                 ; 0000 0538     {
                 ; 0000 0539     PORTE.5 = 1;
                 ; 0000 053A     delay_us(1000);
                 ; 0000 053B     PORTE.5 = 0;
                 ; 0000 053C     delay_us(1000);
                 ; 0000 053D     }
                 ; 0000 053E 
                 ; 0000 053F //zwolnij
                 ; 0000 0540 PORTE.5 = 1;
                 ; 0000 0541 delay_us(2000);
                 ; 0000 0542 PORTE.5 = 0;
                 ; 0000 0543 delay_us(2000);
                 ; 0000 0544 
                 ; 0000 0545 PORTE.5 = 1;
                 ; 0000 0546 delay_us(4000);
                 ; 0000 0547 PORTE.5 = 0;
                 ; 0000 0548 delay_us(4000);
                 ; 0000 0549 
                 ; 0000 054A 
                 ; 0000 054B 
                 ; 0000 054C 
                 ; 0000 054D PORTE.4 = 1;  //zmieniamy dir
                 ; 0000 054E delay_ms(3000);
                 ; 0000 054F PORTE.7 = 0;
                 ; 0000 0550 }
                 ;
                 ;
                 ;void wypozucjonuj_wieze_szybko()
                 ; 0000 0554 {
                 ; 0000 0555 PORTE.7 = 1;  //enable na silnik krok
                 ; 0000 0556 
                 ; 0000 0557 //+_+__________o ___________
                 ; 0000 0558 //+_+__________ o _________  //dolny - do tego pozycjonujemy
                 ; 0000 0559 //
                 ; 0000 055A PORTE.4 = 0;
                 ; 0000 055B while(PINE.1 != 0)//kiedy nie widzi czujnik czujnik - jestesmy daleko
                 ; 0000 055C     {
                 ; 0000 055D     PORTE.5 = 1;
                 ; 0000 055E     delay_us(500);
                 ; 0000 055F     PORTE.5 = 0;
                 ; 0000 0560     delay_us(500);
                 ; 0000 0561     }
                 ; 0000 0562 
                 ; 0000 0563 //zwolnij
                 ; 0000 0564 PORTE.5 = 1;
                 ; 0000 0565 delay_us(500);
                 ; 0000 0566 PORTE.5 = 0;
                 ; 0000 0567 delay_us(500);
                 ; 0000 0568 
                 ; 0000 0569 PORTE.5 = 1;
                 ; 0000 056A delay_us(1000);
                 ; 0000 056B PORTE.5 = 0;
                 ; 0000 056C delay_us(1000);
                 ; 0000 056D 
                 ; 0000 056E 
                 ; 0000 056F 
                 ; 0000 0570 //teraz sie cofniemy
                 ; 0000 0571 PORTE.4 = 1;  //zmieniamy dir
                 ; 0000 0572 while(basia1 < 250)  //musimy przejechac tak, ze na pewno miniemy czujnuk gdybysmy byli miedzy nimi, zmieniam mikrokroki wiec daje mniej, by³o 2000
                 ; 0000 0573     {                                                         //2000 //1000  //500
                 ; 0000 0574     PORTE.5 = 1;
                 ; 0000 0575     delay_us(500);
                 ; 0000 0576     PORTE.5 = 0;
                 ; 0000 0577     delay_us(500);
                 ; 0000 0578     basia1++;
                 ; 0000 0579     }
                 ; 0000 057A 
                 ; 0000 057B //zwolnij
                 ; 0000 057C PORTE.5 = 1;
                 ; 0000 057D delay_us(500);
                 ; 0000 057E PORTE.5 = 0;
                 ; 0000 057F delay_us(500);
                 ; 0000 0580 
                 ; 0000 0581 PORTE.5 = 1;
                 ; 0000 0582 delay_us(1000);
                 ; 0000 0583 PORTE.5 = 0;
                 ; 0000 0584 delay_us(1000);
                 ; 0000 0585 
                 ; 0000 0586 
                 ; 0000 0587 PORTE.4 = 0;  //zmieniamy dir
                 ; 0000 0588 basia1 = 0;
                 ; 0000 0589 while(PINE.1 != 0)//i znowu do czujnika
                 ; 0000 058A     {
                 ; 0000 058B     PORTE.5 = 1;
                 ; 0000 058C     delay_us(500);
                 ; 0000 058D     PORTE.5 = 0;
                 ; 0000 058E     delay_us(500);
                 ; 0000 058F     }
                 ; 0000 0590 while(basia1 < 10)  //kawaleczk zeby nie byc na granicy czujnuika
                 ; 0000 0591     {
                 ; 0000 0592     PORTE.5 = 1;
                 ; 0000 0593     delay_us(500);
                 ; 0000 0594     PORTE.5 = 0;
                 ; 0000 0595     delay_us(500);
                 ; 0000 0596     basia1++;
                 ; 0000 0597     }
                 ; 0000 0598 while(PINE.1 != 1)//i znowu teraz jak czujnik swieci
                 ; 0000 0599     {
                 ; 0000 059A     PORTE.5 = 1;
                 ; 0000 059B     delay_us(500);
                 ; 0000 059C     PORTE.5 = 0;
                 ; 0000 059D     delay_us(500);
                 ; 0000 059E     }
                 ; 0000 059F basia1 = 0;
                 ; 0000 05A0 while(basia1 < 10)  //kawaleczk zeby nie byc na granicy czujnuika
                 ; 0000 05A1     {
                 ; 0000 05A2     PORTE.5 = 1;
                 ; 0000 05A3     delay_us(500);
                 ; 0000 05A4     PORTE.5 = 0;
                 ; 0000 05A5     delay_us(500);
                 ; 0000 05A6     basia1++;
                 ; 0000 05A7     }
                 ; 0000 05A8 while(PINE.1 != 0)//i znowu do czujnika
                 ; 0000 05A9     {
                 ; 0000 05AA     PORTE.5 = 1;
                 ; 0000 05AB     delay_us(500);
                 ; 0000 05AC     PORTE.5 = 0;
                 ; 0000 05AD     delay_us(500);
                 ; 0000 05AE     }
                 ; 0000 05AF 
                 ; 0000 05B0 //zwolnij
                 ; 0000 05B1 PORTE.5 = 1;
                 ; 0000 05B2 delay_us(500);
                 ; 0000 05B3 PORTE.5 = 0;
                 ; 0000 05B4 delay_us(500);
                 ; 0000 05B5 
                 ; 0000 05B6 PORTE.5 = 1;
                 ; 0000 05B7 delay_us(1000);
                 ; 0000 05B8 PORTE.5 = 0;
                 ; 0000 05B9 delay_us(1000);
                 ; 0000 05BA 
                 ; 0000 05BB 
                 ; 0000 05BC 
                 ; 0000 05BD 
                 ; 0000 05BE PORTE.4 = 1;  //zmieniamy dir
                 ; 0000 05BF delay_ms(3000);
                 ; 0000 05C0 PORTE.7 = 0;
                 ; 0000 05C1 }
                 ;
                 ;
                 ;
                 ;
                 ;void jedz_wieza()
                 ; 0000 05C7 {
                 ; 0000 05C8 
                 ; 0000 05C9 //pomysl - wyysylac w czasie drogi impulsy - to bedzie wielkosc kamienia
                 ; 0000 05CA //pomysl - wyysylac w czasie postoju - to bedzie predkosc
                 ; 0000 05CB //to nawet moge zrobic tu
                 ; 0000 05CC 
                 ; 0000 05CD //w prawo
                 ; 0000 05CE 
                 ; 0000 05CF 
                 ; 0000 05D0     switch(pozycja_wiezy)
                 ; 0000 05D1 
                 ; 0000 05D2         {
                 ; 0000 05D3 
                 ; 0000 05D4         case 0:
                 ; 0000 05D5 
                 ; 0000 05D6 
                 ; 0000 05D7                 PORTE.7 = 1;
                 ; 0000 05D8                 sek2 = 0;
                 ; 0000 05D9                 pozycja_wiezy = 1;
                 ; 0000 05DA                 ulamki_sekund_1 = 0;
                 ; 0000 05DB 
                 ; 0000 05DC 
                 ; 0000 05DD         break;
                 ; 0000 05DE 
                 ; 0000 05DF         case 1:
                 ; 0000 05E0 
                 ; 0000 05E1                 if(kkk == kkk1)
                 ; 0000 05E2                     kkk1 = obroc_o_1_8_stopnia(v1, kkk);
                 ; 0000 05E3                 else
                 ; 0000 05E4                     {                    //30 ok    //60 * 16 * 2 ok na szybki zegar
                 ; 0000 05E5                     if(ulamki_sekund_1 > 60 * 8 * 2)
                 ; 0000 05E6                         {
                 ; 0000 05E7                         v1--;
                 ; 0000 05E8                         ulamki_sekund_1 = 0;
                 ; 0000 05E9                         }
                 ; 0000 05EA                     kkk1 = kkk;
                 ; 0000 05EB                     }
                 ; 0000 05EC 
                 ; 0000 05ED                  if(v1 == speed_normal) //6 sie pieprzy po 30 min, daje 3 ale zmieniam kroki
                 ; 0000 05EE                     {
                 ; 0000 05EF                     kkk = 0;
                 ; 0000 05F0                     if(PORTE.4 == 1)
                 ; 0000 05F1                         pozycja_wiezy = 2;
                 ; 0000 05F2                     else
                 ; 0000 05F3                         pozycja_wiezy = 3;
                 ; 0000 05F4                     }
                 ; 0000 05F5 
                 ; 0000 05F6                 if(sek2 > 170)
                 ; 0000 05F7                     {
                 ; 0000 05F8                     kkk = 0;
                 ; 0000 05F9                     kkk1 = 0;
                 ; 0000 05FA                     bufor_bledu = 25;
                 ; 0000 05FB                     v1 = speed_normal;
                 ; 0000 05FC                     ulamki_sekund_1 = 0;
                 ; 0000 05FD                     if(PORTE.4 == 1)
                 ; 0000 05FE                         pozycja_wiezy = 2;
                 ; 0000 05FF                     else
                 ; 0000 0600                         pozycja_wiezy = 3;
                 ; 0000 0601                     }
                 ; 0000 0602 
                 ; 0000 0603 
                 ; 0000 0604         break;
                 ; 0000 0605 
                 ; 0000 0606         //ustalic wielkosc przesuniecia kamien dla bez bufor bledu i z bufor bledu
                 ; 0000 0607 
                 ; 0000 0608         case 2:
                 ; 0000 0609             if(PINE.0 != 0)
                 ; 0000 060A                 obroc_o_1_8_stopnia(v1 + bufor_bledu, 0);
                 ; 0000 060B             else
                 ; 0000 060C                 {
                 ; 0000 060D                 kamien = 50;
                 ; 0000 060E                 if(kamien == 50)
                 ; 0000 060F                     wielkosc_przesuniecia_kamien = 770+60;
                 ; 0000 0610                 if(kamien == 55)
                 ; 0000 0611                     wielkosc_przesuniecia_kamien = 740;
                 ; 0000 0612                 if(kamien == 60)
                 ; 0000 0613                     wielkosc_przesuniecia_kamien = 710;
                 ; 0000 0614                 if(kamien == 65)
                 ; 0000 0615                     wielkosc_przesuniecia_kamien = 680;
                 ; 0000 0616                 if(kamien == 70)
                 ; 0000 0617                     wielkosc_przesuniecia_kamien = 650;
                 ; 0000 0618                 if(kamien == 75)
                 ; 0000 0619                     wielkosc_przesuniecia_kamien = 620;
                 ; 0000 061A 
                 ; 0000 061B                 pozycja_wiezy = 4;
                 ; 0000 061C                 }
                 ; 0000 061D 
                 ; 0000 061E             if(sek2 > 170 & bufor_bledu == 0)
                 ; 0000 061F                     {
                 ; 0000 0620                     pozycja_wiezy = 2;
                 ; 0000 0621                     bufor_bledu = 25;
                 ; 0000 0622                     }
                 ; 0000 0623 
                 ; 0000 0624         break;
                 ; 0000 0625 
                 ; 0000 0626         case 3:
                 ; 0000 0627 
                 ; 0000 0628             if(PINE.1 != 0)
                 ; 0000 0629                 obroc_o_1_8_stopnia(v1+ bufor_bledu, 0);
                 ; 0000 062A             else
                 ; 0000 062B                 {
                 ; 0000 062C                 kamien = 50;
                 ; 0000 062D                 if(kamien == 50)
                 ; 0000 062E                     wielkosc_przesuniecia_kamien = 770 + 60; //tu ma byc 8mm zgodnie z rys mariusz    //650 - 21mm    //700 - 15mm      //760 //9mm
                 ; 0000 062F                 if(kamien == 55)//przesuwamy o 2,5mm
                 ; 0000 0630                     wielkosc_przesuniecia_kamien = 740;
                 ; 0000 0631                 if(kamien == 60)
                 ; 0000 0632                     wielkosc_przesuniecia_kamien = 710;
                 ; 0000 0633                 if(kamien == 65)
                 ; 0000 0634                     wielkosc_przesuniecia_kamien = 680;
                 ; 0000 0635                 if(kamien == 70)
                 ; 0000 0636                     wielkosc_przesuniecia_kamien = 650;
                 ; 0000 0637                 if(kamien == 75)
                 ; 0000 0638                     wielkosc_przesuniecia_kamien = 620; //tu ma byc 8mm + 25/2mm = 20,5    18mm
                 ; 0000 0639 
                 ; 0000 063A                 pozycja_wiezy = 4;
                 ; 0000 063B                 }
                 ; 0000 063C 
                 ; 0000 063D             if(sek2 > 170 & bufor_bledu == 0)
                 ; 0000 063E                     {
                 ; 0000 063F                     pozycja_wiezy = 3;
                 ; 0000 0640                     bufor_bledu = 25;
                 ; 0000 0641                     }
                 ; 0000 0642         break;
                 ; 0000 0643 
                 ; 0000 0644 
                 ; 0000 0645         case 4:
                 ; 0000 0646                 if(kkk < 2)
                 ; 0000 0647                     kkk = obroc_o_1_8_stopnia(v1+ bufor_bledu, kkk);  //jedziemy jeszcze kawalek z pelna pyta
                 ; 0000 0648                 else
                 ; 0000 0649                     {
                 ; 0000 064A                     kkk = 0;
                 ; 0000 064B                     pozycja_wiezy = 5;
                 ; 0000 064C                     }
                 ; 0000 064D 
                 ; 0000 064E         break;
                 ; 0000 064F 
                 ; 0000 0650 
                 ; 0000 0651         case 5:
                 ; 0000 0652                 if(kkk < 2)
                 ; 0000 0653                     kkk = obroc_o_1_8_stopnia(v1 + bufor_bledu, kkk);  //zwalniamy do stalej predkosci
                 ; 0000 0654                 else
                 ; 0000 0655                     {
                 ; 0000 0656                     kkk = 0;
                 ; 0000 0657                     pozycja_wiezy = 6;
                 ; 0000 0658                     }
                 ; 0000 0659 
                 ; 0000 065A         break;
                 ; 0000 065B 
                 ; 0000 065C         case 6:
                 ; 0000 065D                 if(kkk < 2)
                 ; 0000 065E                     kkk = obroc_o_1_8_stopnia(v1 + bufor_bledu, kkk);  //zwalniamy do stalej predkosci
                 ; 0000 065F                 else
                 ; 0000 0660                     {
                 ; 0000 0661                     kkk = 0;
                 ; 0000 0662                     pozycja_wiezy = 7;
                 ; 0000 0663                     }
                 ; 0000 0664 
                 ; 0000 0665         break;
                 ; 0000 0666 
                 ; 0000 0667         case 7:
                 ; 0000 0668                 if(kkk < 2)
                 ; 0000 0669                     kkk = obroc_o_1_8_stopnia(v1 + bufor_bledu, kkk);  //zwalniamy do stalej predkosci
                 ; 0000 066A                 else
                 ; 0000 066B                     {
                 ; 0000 066C                     kkk = 0;
                 ; 0000 066D                     pozycja_wiezy = 8;
                 ; 0000 066E                     }
                 ; 0000 066F 
                 ; 0000 0670         break;
                 ; 0000 0671 
                 ; 0000 0672 
                 ; 0000 0673 
                 ; 0000 0674         case 8:
                 ; 0000 0675                 if(kkk < wielkosc_przesuniecia_kamien)
                 ; 0000 0676                     kkk = obroc_o_1_8_stopnia(v1 + bufor_bledu, kkk);
                 ; 0000 0677                 else
                 ; 0000 0678                     {
                 ; 0000 0679                     pozycja_wiezy = 10;//9
                 ; 0000 067A                     ulamki_sekund_1 = 0;
                 ; 0000 067B                     v1 = v1 + 6;
                 ; 0000 067C                     kkk = 0;
                 ; 0000 067D                     kkk1 = 0;
                 ; 0000 067E                     }
                 ; 0000 067F 
                 ; 0000 0680         break;
                 ; 0000 0681 
                 ; 0000 0682         case 9:
                 ; 0000 0683 
                 ; 0000 0684 
                 ; 0000 0685                   if(kkk == kkk1)
                 ; 0000 0686                         kkk1 = obroc_o_1_8_stopnia(v1 + bufor_bledu, kkk);
                 ; 0000 0687                   else
                 ; 0000 0688                         {
                 ; 0000 0689                         if(ulamki_sekund_1 > 60 * 6 * 2)
                 ; 0000 068A                             {
                 ; 0000 068B                             v1++;
                 ; 0000 068C                             ulamki_sekund_1 = 0;
                 ; 0000 068D                             }
                 ; 0000 068E                         kkk1 = kkk;
                 ; 0000 068F                         }
                 ; 0000 0690                   if(v1 == 40)
                 ; 0000 0691                         {
                 ; 0000 0692                         kkk = 0;
                 ; 0000 0693                         pozycja_wiezy = 10;
                 ; 0000 0694                         }
                 ; 0000 0695 
                 ; 0000 0696         break;
                 ; 0000 0697 
                 ; 0000 0698         case 10:
                 ; 0000 0699 
                 ; 0000 069A                 PORTE.7 = 0;  //koniec enable
                 ; 0000 069B                 PORTC.1 = 0;  //silownik dociskowy os pozioma
                 ; 0000 069C                 kkk = 0;
                 ; 0000 069D                 kkk1 = 0;
                 ; 0000 069E                 v1 = 60;
                 ; 0000 069F                 bufor_bledu = 0;
                 ; 0000 06A0                 if(PORTE.4 == 1)
                 ; 0000 06A1                     PORTE.4 = 0;  //zmieniamy dir
                 ; 0000 06A2                 else
                 ; 0000 06A3                     PORTE.4 = 1;
                 ; 0000 06A4                 pozycja_wiezy = 0;
                 ; 0000 06A5                 delay_ms(2000);
                 ; 0000 06A6                 if(PORTC.0 == 0) //silownik obrotowy o osi pionowej
                 ; 0000 06A7                     PORTC.0 = 1;
                 ; 0000 06A8                 else
                 ; 0000 06A9                     PORTC.0 = 0;
                 ; 0000 06AA                 PORTC.1 = 1;  //silownik dociskowy os pozioma
                 ; 0000 06AB                 delay_ms(2000);
                 ; 0000 06AC 
                 ; 0000 06AD 
                 ; 0000 06AE 
                 ; 0000 06AF         break;
                 ; 0000 06B0         }
                 ; 0000 06B1 
                 ; 0000 06B2 
                 ; 0000 06B3 
                 ; 0000 06B4 
                 ; 0000 06B5 
                 ; 0000 06B6 
                 ; 0000 06B7 
                 ; 0000 06B8 }
                 ;
                 ;
                 ;
                 ;
                 ;void komunikacja_male_puchary()
                 ; 0000 06BE {
                 _komunikacja_male_puchary:
                 ; 0000 06BF 
                 ; 0000 06C0 //kod u slava
                 ; 0000 06C1 
                 ; 0000 06C2 
                 ; 0000 06C3 if(PINF.7 == 0)
00054c 9907      	SBIC 0x0,7
00054d c034      	RJMP _0x252
                 ; 0000 06C4     {
                 ; 0000 06C5     if(PINF.6 == 0 & zliczylem_male_puchary == 0)
00054e e0a0      	LDI  R26,0
00054f 9906      	SBIC 0x0,6
000550 e0a1      	LDI  R26,1
000551 940e 07fe 	CALL SUBOPT_0xC
000553 91a0 057c 	LDS  R26,_zliczylem_male_puchary
000555 91b0 057d 	LDS  R27,_zliczylem_male_puchary+1
000557 940e 08d7 	CALL SUBOPT_0x2B
000559 21e0      	AND  R30,R0
00055a f0a1      	BREQ _0x253
                 ; 0000 06C6         {
                 ; 0000 06C7         PORTB.6 = 1;
00055b 9ac6      	SBI  0x18,6
                 ; 0000 06C8         przeslano_informacje_male_puchary = 1;
00055c e0e1      	LDI  R30,LOW(1)
00055d e0f0      	LDI  R31,HIGH(1)
00055e 93e0 0584 	STS  _przeslano_informacje_male_puchary,R30
000560 93f0 0585 	STS  _przeslano_informacje_male_puchary+1,R31
                 ; 0000 06C9         licznik_impulsow_male_puchary++;
000562 e7ae      	LDI  R26,LOW(_licznik_impulsow_male_puchary)
000563 e0b5      	LDI  R27,HIGH(_licznik_impulsow_male_puchary)
000564 91ed      	LD   R30,X+
000565 91fd      	LD   R31,X+
000566 9631      	ADIW R30,1
000567 93fe      	ST   -X,R31
000568 93ee      	ST   -X,R30
                 ; 0000 06CA         zliczylem_male_puchary = 1;
000569 e0e1      	LDI  R30,LOW(1)
00056a e0f0      	LDI  R31,HIGH(1)
00056b 93e0 057c 	STS  _zliczylem_male_puchary,R30
00056d 93f0 057d 	STS  _zliczylem_male_puchary+1,R31
                 ; 0000 06CB         }
                 ; 0000 06CC 
                 ; 0000 06CD 
                 ; 0000 06CE 
                 ; 0000 06CF         if(PINF.6 == 1 & zliczylem_male_puchary == 1)
                 _0x253:
00056f e0a0      	LDI  R26,0
000570 9906      	SBIC 0x0,6
000571 e0a1      	LDI  R26,1
000572 940e 0889 	CALL SUBOPT_0x20
000574 91a0 057c 	LDS  R26,_zliczylem_male_puchary
000576 91b0 057d 	LDS  R27,_zliczylem_male_puchary+1
000578 940e 0803 	CALL SUBOPT_0xD
00057a 21e0      	AND  R30,R0
00057b f031      	BREQ _0x256
                 ; 0000 06D0         {
                 ; 0000 06D1         PORTB.6 = 0;
00057c 98c6      	CBI  0x18,6
                 ; 0000 06D2         zliczylem_male_puchary = 0;
00057d e0e0      	LDI  R30,LOW(0)
00057e 93e0 057c 	STS  _zliczylem_male_puchary,R30
000580 93e0 057d 	STS  _zliczylem_male_puchary+1,R30
                 ; 0000 06D3         }
                 ; 0000 06D4 
                 ; 0000 06D5     }
                 _0x256:
                 ; 0000 06D6                //& pozycja_wiezy == 0
                 ; 0000 06D7 if(PINF.7 == 1 & przeslano_informacje_male_puchary == 1)
                 _0x252:
000582 e0a0      	LDI  R26,0
000583 9907      	SBIC 0x0,7
000584 e0a1      	LDI  R26,1
000585 940e 0889 	CALL SUBOPT_0x20
000587 91a0 0584 	LDS  R26,_przeslano_informacje_male_puchary
000589 91b0 0585 	LDS  R27,_przeslano_informacje_male_puchary+1
00058b 940e 0803 	CALL SUBOPT_0xD
00058d 21e0      	AND  R30,R0
00058e f411      	BRNE PC+3
00058f 940c 0640 	JMP _0x259
                 ; 0000 06D8     {
                 ; 0000 06D9 
                 ; 0000 06DA     switch(licznik_impulsow_male_puchary)
000591 91e0 057e 	LDS  R30,_licznik_impulsow_male_puchary
000593 91f0 057f 	LDS  R31,_licznik_impulsow_male_puchary+1
                 ; 0000 06DB         {
                 ; 0000 06DC         case 0:
000595 9730      	SBIW R30,0
000596 f431      	BRNE _0x25D
                 ; 0000 06DD               tryb_male_puchary = 0;  //ze nie dokonano zadnego wyboru
000597 e0e0      	LDI  R30,LOW(0)
000598 93e0 0580 	STS  _tryb_male_puchary,R30
00059a 93e0 0581 	STS  _tryb_male_puchary+1,R30
                 ; 0000 06DE               przeslano_informacje_male_puchary = 0;
00059c c09e      	RJMP _0x336
                 ; 0000 06DF         break;
                 ; 0000 06E0 
                 ; 0000 06E1         case 3:
                 _0x25D:
00059d 30e3      	CPI  R30,LOW(0x3)
00059e e0a0      	LDI  R26,HIGH(0x3)
00059f 07fa      	CPC  R31,R26
0005a0 f4a1      	BRNE _0x25E
                 ; 0000 06E2               tryb_male_puchary = 3;   //ze nie bedzie malych malych pucharow
0005a1 e0e3      	LDI  R30,LOW(3)
0005a2 e0f0      	LDI  R31,HIGH(3)
0005a3 940e 0901 	CALL SUBOPT_0x31
                 ; 0000 06E3               licznik_impulsow_male_puchary = 0;
0005a5 e0e0      	LDI  R30,LOW(0)
0005a6 93e0 057e 	STS  _licznik_impulsow_male_puchary,R30
0005a8 93e0 057f 	STS  _licznik_impulsow_male_puchary+1,R30
                 ; 0000 06E4               przeslano_informacje_male_puchary = 0;
0005aa 93e0 0584 	STS  _przeslano_informacje_male_puchary,R30
0005ac 93e0 0585 	STS  _przeslano_informacje_male_puchary+1,R30
                 ; 0000 06E5               podaj_nakretke = 1;
0005ae 940e 08fa 	CALL SUBOPT_0x30
                 ; 0000 06E6               PORTE.0 = 0;
0005b0 940e 0906 	CALL SUBOPT_0x32
                 ; 0000 06E7               PORTE.1 = 0;
                 ; 0000 06E8               PORTE.2 = 0;
                 ; 0000 06E9               PORTE.3 = 0;
                 ; 0000 06EA               PORTE.4 = 0;
0005b2 981c      	CBI  0x3,4
                 ; 0000 06EB               PORTE.5 = 0;
0005b3 981d      	CBI  0x3,5
                 ; 0000 06EC 
                 ; 0000 06ED 
                 ; 0000 06EE         break;
0005b4 c08b      	RJMP _0x25C
                 ; 0000 06EF 
                 ; 0000 06F0         case 11:
                 _0x25E:
0005b5 30eb      	CPI  R30,LOW(0xB)
0005b6 e0a0      	LDI  R26,HIGH(0xB)
0005b7 07fa      	CPC  R31,R26
0005b8 f429      	BRNE _0x26B
                 ; 0000 06F1              tryb_male_puchary = 2;
0005b9 940e 090b 	CALL SUBOPT_0x33
                 ; 0000 06F2              kamien = 50;
0005bb 940e 090e 	CALL SUBOPT_0x34
                 ; 0000 06F3              PORTE.0 = 0;
                 ; 0000 06F4               PORTE.1 = 1;
                 ; 0000 06F5               PORTE.2 = 0;
                 ; 0000 06F6               PORTE.3 = 0;
                 ; 0000 06F7               PORTE.4 = 0;
                 ; 0000 06F8               PORTE.5 = 0;
                 ; 0000 06F9 
                 ; 0000 06FA 
                 ; 0000 06FB              //speed_normal = 10;
                 ; 0000 06FC              speed_normal = 8;
0005bd c072      	RJMP _0x337
                 ; 0000 06FD              licznik_impulsow_male_puchary = 0;
                 ; 0000 06FE              przeslano_informacje_male_puchary = 0;
                 ; 0000 06FF         break;
                 ; 0000 0700 
                 ; 0000 0701         case 12:
                 _0x26B:
0005be 30ec      	CPI  R30,LOW(0xC)
0005bf e0a0      	LDI  R26,HIGH(0xC)
0005c0 07fa      	CPC  R31,R26
0005c1 f429      	BRNE _0x278
                 ; 0000 0702              tryb_male_puchary = 2;
0005c2 940e 090b 	CALL SUBOPT_0x33
                 ; 0000 0703              kamien = 55;
0005c4 940e 091b 	CALL SUBOPT_0x35
                 ; 0000 0704              PORTE.0 = 0;
                 ; 0000 0705               PORTE.1 = 0;
                 ; 0000 0706               PORTE.2 = 1;
                 ; 0000 0707               PORTE.3 = 0;
                 ; 0000 0708               PORTE.4 = 0;
                 ; 0000 0709               PORTE.5 = 0;
                 ; 0000 070A 
                 ; 0000 070B              //speed_normal = 10;
                 ; 0000 070C              speed_normal = 8;
0005c6 c069      	RJMP _0x337
                 ; 0000 070D              licznik_impulsow_male_puchary = 0;
                 ; 0000 070E              przeslano_informacje_male_puchary = 0;
                 ; 0000 070F         break;
                 ; 0000 0710 
                 ; 0000 0711         case 13:
                 _0x278:
0005c7 30ed      	CPI  R30,LOW(0xD)
0005c8 e0a0      	LDI  R26,HIGH(0xD)
0005c9 07fa      	CPC  R31,R26
0005ca f429      	BRNE _0x285
                 ; 0000 0712              tryb_male_puchary = 2;
0005cb 940e 090b 	CALL SUBOPT_0x33
                 ; 0000 0713              kamien = 60;
0005cd 940e 0928 	CALL SUBOPT_0x36
                 ; 0000 0714              PORTE.0 = 0;
                 ; 0000 0715               PORTE.1 = 0;
                 ; 0000 0716               PORTE.2 = 0;
                 ; 0000 0717               PORTE.3 = 1;
                 ; 0000 0718               PORTE.4 = 0;
                 ; 0000 0719               PORTE.5 = 0;
                 ; 0000 071A 
                 ; 0000 071B              //speed_normal = 10;
                 ; 0000 071C              speed_normal = 8;
0005cf c060      	RJMP _0x337
                 ; 0000 071D              licznik_impulsow_male_puchary = 0;
                 ; 0000 071E              przeslano_informacje_male_puchary = 0;
                 ; 0000 071F         break;
                 ; 0000 0720 
                 ; 0000 0721         case 14:
                 _0x285:
0005d0 30ee      	CPI  R30,LOW(0xE)
0005d1 e0a0      	LDI  R26,HIGH(0xE)
0005d2 07fa      	CPC  R31,R26
0005d3 f439      	BRNE _0x292
                 ; 0000 0722              tryb_male_puchary = 2;
0005d4 940e 090b 	CALL SUBOPT_0x33
                 ; 0000 0723              kamien = 65;
0005d6 940e 0935 	CALL SUBOPT_0x37
                 ; 0000 0724              PORTE.0 = 0;
                 ; 0000 0725               PORTE.1 = 0;
                 ; 0000 0726               PORTE.2 = 0;
                 ; 0000 0727               PORTE.3 = 0;
                 ; 0000 0728               PORTE.4 = 1;
0005d8 9a1c      	SBI  0x3,4
                 ; 0000 0729               PORTE.5 = 0;
0005d9 981d      	CBI  0x3,5
                 ; 0000 072A 
                 ; 0000 072B              //speed_normal = 10;
                 ; 0000 072C              speed_normal = 8;
0005da c055      	RJMP _0x337
                 ; 0000 072D              licznik_impulsow_male_puchary = 0;
                 ; 0000 072E              przeslano_informacje_male_puchary = 0;
                 ; 0000 072F         break;
                 ; 0000 0730 
                 ; 0000 0731         case 15:
                 _0x292:
0005db 30ef      	CPI  R30,LOW(0xF)
0005dc e0a0      	LDI  R26,HIGH(0xF)
0005dd 07fa      	CPC  R31,R26
0005de f441      	BRNE _0x29F
                 ; 0000 0732              tryb_male_puchary = 2;
0005df 940e 090b 	CALL SUBOPT_0x33
                 ; 0000 0733              kamien = 70;
0005e1 940e 093c 	CALL SUBOPT_0x38
                 ; 0000 0734              PORTE.0 = 0;
0005e3 940e 0906 	CALL SUBOPT_0x32
                 ; 0000 0735               PORTE.1 = 0;
                 ; 0000 0736               PORTE.2 = 0;
                 ; 0000 0737               PORTE.3 = 0;
                 ; 0000 0738               PORTE.4 = 0;
0005e5 981c      	CBI  0x3,4
                 ; 0000 0739               PORTE.5 = 1;
0005e6 c048      	RJMP _0x338
                 ; 0000 073A 
                 ; 0000 073B              //speed_normal = 10;
                 ; 0000 073C              speed_normal = 8;
                 ; 0000 073D              licznik_impulsow_male_puchary = 0;
                 ; 0000 073E              przeslano_informacje_male_puchary = 0;
                 ; 0000 073F 
                 ; 0000 0740         break;
                 ; 0000 0741 
                 ; 0000 0742         case 16:
                 _0x29F:
0005e7 31e0      	CPI  R30,LOW(0x10)
0005e8 e0a0      	LDI  R26,HIGH(0x10)
0005e9 07fa      	CPC  R31,R26
0005ea f1b9      	BREQ _0x339
                 ; 0000 0743              tryb_male_puchary = 2;
                 ; 0000 0744              kamien = 75;
                 ; 0000 0745              PORTE.0 = 0;
                 ; 0000 0746               PORTE.1 = 0;
                 ; 0000 0747               PORTE.2 = 0;
                 ; 0000 0748               PORTE.3 = 0;
                 ; 0000 0749               PORTE.4 = 1;
                 ; 0000 074A               PORTE.5 = 1;
                 ; 0000 074B 
                 ; 0000 074C              //speed_normal = 10;
                 ; 0000 074D              speed_normal = 8;
                 ; 0000 074E              licznik_impulsow_male_puchary = 0;
                 ; 0000 074F              przeslano_informacje_male_puchary = 0;
                 ; 0000 0750         break;
                 ; 0000 0751 
                 ; 0000 0752         case 17:
0005eb 31e1      	CPI  R30,LOW(0x11)
0005ec e0a0      	LDI  R26,HIGH(0x11)
0005ed 07fa      	CPC  R31,R26
0005ee f429      	BRNE _0x2B9
                 ; 0000 0753              tryb_male_puchary = 2;
0005ef 940e 090b 	CALL SUBOPT_0x33
                 ; 0000 0754              kamien = 50;
0005f1 940e 090e 	CALL SUBOPT_0x34
                 ; 0000 0755              PORTE.0 = 0;
                 ; 0000 0756               PORTE.1 = 1;
                 ; 0000 0757               PORTE.2 = 0;
                 ; 0000 0758               PORTE.3 = 0;
                 ; 0000 0759               PORTE.4 = 0;
                 ; 0000 075A               PORTE.5 = 0;
                 ; 0000 075B 
                 ; 0000 075C              speed_normal = 8;
0005f3 c03c      	RJMP _0x337
                 ; 0000 075D              licznik_impulsow_male_puchary = 0;
                 ; 0000 075E              przeslano_informacje_male_puchary = 0;
                 ; 0000 075F         break;
                 ; 0000 0760 
                 ; 0000 0761         case 18:
                 _0x2B9:
0005f4 31e2      	CPI  R30,LOW(0x12)
0005f5 e0a0      	LDI  R26,HIGH(0x12)
0005f6 07fa      	CPC  R31,R26
0005f7 f429      	BRNE _0x2C6
                 ; 0000 0762              tryb_male_puchary = 2;
0005f8 940e 090b 	CALL SUBOPT_0x33
                 ; 0000 0763              kamien = 55;
0005fa 940e 091b 	CALL SUBOPT_0x35
                 ; 0000 0764              PORTE.0 = 0;
                 ; 0000 0765               PORTE.1 = 0;
                 ; 0000 0766               PORTE.2 = 1;
                 ; 0000 0767               PORTE.3 = 0;
                 ; 0000 0768               PORTE.4 = 0;
                 ; 0000 0769               PORTE.5 = 0;
                 ; 0000 076A 
                 ; 0000 076B              speed_normal = 8;
0005fc c033      	RJMP _0x337
                 ; 0000 076C              licznik_impulsow_male_puchary = 0;
                 ; 0000 076D              przeslano_informacje_male_puchary = 0;
                 ; 0000 076E         break;
                 ; 0000 076F 
                 ; 0000 0770         case 19:
                 _0x2C6:
0005fd 31e3      	CPI  R30,LOW(0x13)
0005fe e0a0      	LDI  R26,HIGH(0x13)
0005ff 07fa      	CPC  R31,R26
000600 f429      	BRNE _0x2D3
                 ; 0000 0771              tryb_male_puchary = 2;
000601 940e 090b 	CALL SUBOPT_0x33
                 ; 0000 0772              kamien = 60;
000603 940e 0928 	CALL SUBOPT_0x36
                 ; 0000 0773              PORTE.0 = 0;
                 ; 0000 0774               PORTE.1 = 0;
                 ; 0000 0775               PORTE.2 = 0;
                 ; 0000 0776               PORTE.3 = 1;
                 ; 0000 0777               PORTE.4 = 0;
                 ; 0000 0778               PORTE.5 = 0;
                 ; 0000 0779 
                 ; 0000 077A              speed_normal = 8;
000605 c02a      	RJMP _0x337
                 ; 0000 077B              licznik_impulsow_male_puchary = 0;
                 ; 0000 077C              przeslano_informacje_male_puchary = 0;
                 ; 0000 077D         break;
                 ; 0000 077E 
                 ; 0000 077F         case 20:
                 _0x2D3:
000606 31e4      	CPI  R30,LOW(0x14)
000607 e0a0      	LDI  R26,HIGH(0x14)
000608 07fa      	CPC  R31,R26
000609 f439      	BRNE _0x2E0
                 ; 0000 0780              tryb_male_puchary = 2;
00060a 940e 090b 	CALL SUBOPT_0x33
                 ; 0000 0781              kamien = 65;
00060c 940e 0935 	CALL SUBOPT_0x37
                 ; 0000 0782              PORTE.0 = 0;
                 ; 0000 0783               PORTE.1 = 0;
                 ; 0000 0784               PORTE.2 = 0;
                 ; 0000 0785               PORTE.3 = 0;
                 ; 0000 0786               PORTE.4 = 1;
00060e 9a1c      	SBI  0x3,4
                 ; 0000 0787               PORTE.5 = 0;
00060f 981d      	CBI  0x3,5
                 ; 0000 0788 
                 ; 0000 0789              speed_normal = 8;
000610 c01f      	RJMP _0x337
                 ; 0000 078A              licznik_impulsow_male_puchary = 0;
                 ; 0000 078B              przeslano_informacje_male_puchary = 0;
                 ; 0000 078C         break;
                 ; 0000 078D 
                 ; 0000 078E         case 21:
                 _0x2E0:
000611 31e5      	CPI  R30,LOW(0x15)
000612 e0a0      	LDI  R26,HIGH(0x15)
000613 07fa      	CPC  R31,R26
000614 f449      	BRNE _0x2ED
                 ; 0000 078F              tryb_male_puchary = 2;
000615 940e 090b 	CALL SUBOPT_0x33
                 ; 0000 0790              PORTE.0 = 0;
000617 940e 0906 	CALL SUBOPT_0x32
                 ; 0000 0791               PORTE.1 = 0;
                 ; 0000 0792               PORTE.2 = 0;
                 ; 0000 0793               PORTE.3 = 0;
                 ; 0000 0794               PORTE.4 = 0;
000619 981c      	CBI  0x3,4
                 ; 0000 0795               PORTE.5 = 1;
00061a 9a1d      	SBI  0x3,5
                 ; 0000 0796              kamien = 70;
00061b 940e 093c 	CALL SUBOPT_0x38
                 ; 0000 0797              speed_normal = 8;
00061d c012      	RJMP _0x337
                 ; 0000 0798              licznik_impulsow_male_puchary = 0;
                 ; 0000 0799              przeslano_informacje_male_puchary = 0;
                 ; 0000 079A         break;
                 ; 0000 079B 
                 ; 0000 079C         case 22:
                 _0x2ED:
00061e 31e6      	CPI  R30,LOW(0x16)
00061f e0a0      	LDI  R26,HIGH(0x16)
000620 07fa      	CPC  R31,R26
000621 f4f1      	BRNE _0x25C
                 ; 0000 079D              tryb_male_puchary = 2;
                 _0x339:
000622 e0e2      	LDI  R30,LOW(2)
000623 e0f0      	LDI  R31,HIGH(2)
000624 940e 0901 	CALL SUBOPT_0x31
                 ; 0000 079E              kamien = 75;
000626 e4eb      	LDI  R30,LOW(75)
000627 e0f0      	LDI  R31,HIGH(75)
000628 93e0 0576 	STS  _kamien,R30
00062a 93f0 0577 	STS  _kamien+1,R31
                 ; 0000 079F              PORTE.0 = 0;
00062c 940e 0906 	CALL SUBOPT_0x32
                 ; 0000 07A0               PORTE.1 = 0;
                 ; 0000 07A1               PORTE.2 = 0;
                 ; 0000 07A2               PORTE.3 = 0;
                 ; 0000 07A3               PORTE.4 = 1;
00062e 9a1c      	SBI  0x3,4
                 ; 0000 07A4               PORTE.5 = 1;
                 _0x338:
00062f 9a1d      	SBI  0x3,5
                 ; 0000 07A5              speed_normal = 8;
                 _0x337:
000630 e0e8      	LDI  R30,LOW(8)
000631 e0f0      	LDI  R31,HIGH(8)
000632 93e0 0578 	STS  _speed_normal,R30
000634 93f0 0579 	STS  _speed_normal+1,R31
                 ; 0000 07A6              licznik_impulsow_male_puchary = 0;
000636 e0e0      	LDI  R30,LOW(0)
000637 93e0 057e 	STS  _licznik_impulsow_male_puchary,R30
000639 93e0 057f 	STS  _licznik_impulsow_male_puchary+1,R30
                 ; 0000 07A7              przeslano_informacje_male_puchary = 0;
                 _0x336:
00063b e0e0      	LDI  R30,LOW(0)
00063c 93e0 0584 	STS  _przeslano_informacje_male_puchary,R30
00063e 93e0 0585 	STS  _przeslano_informacje_male_puchary+1,R30
                 ; 0000 07A8         break;
                 ; 0000 07A9 
                 ; 0000 07AA 
                 ; 0000 07AB 
                 ; 0000 07AC 
                 ; 0000 07AD         }
                 _0x25C:
                 ; 0000 07AE     }
                 ; 0000 07AF 
                 ; 0000 07B0 /*
                 ; 0000 07B1 if(PINC.7 == 0)
                 ; 0000 07B2     PORTB.7 = 1;
                 ; 0000 07B3 else
                 ; 0000 07B4     PORTB.7 = 0;
                 ; 0000 07B5 
                 ; 0000 07B6 if(PINC.6 == 0)
                 ; 0000 07B7     PORTB.6 = 1;
                 ; 0000 07B8 else
                 ; 0000 07B9     PORTB.6 = 0;
                 ; 0000 07BA 
                 ; 0000 07BB if(PINC.5 == 0)
                 ; 0000 07BC     PORTB.5 = 1;
                 ; 0000 07BD else
                 ; 0000 07BE     PORTB.5 = 0;
                 ; 0000 07BF 
                 ; 0000 07C0 if(PINC.4 == 0)
                 ; 0000 07C1     PORTB.4 = 1;
                 ; 0000 07C2 else
                 ; 0000 07C3     PORTB.4 = 0;
                 ; 0000 07C4 
                 ; 0000 07C5 if(PINC.3 == 0)
                 ; 0000 07C6     PORTB.3 = 1;
                 ; 0000 07C7 else
                 ; 0000 07C8     PORTB.3 = 0;
                 ; 0000 07C9 
                 ; 0000 07CA if(PINC.2 == 0)
                 ; 0000 07CB     PORTB.2 = 1;
                 ; 0000 07CC else
                 ; 0000 07CD     PORTB.2 = 0;
                 ; 0000 07CE 
                 ; 0000 07CF if(PINC.1 == 0)
                 ; 0000 07D0     PORTB.1 = 1;
                 ; 0000 07D1 else
                 ; 0000 07D2     PORTB.1 = 0;
                 ; 0000 07D3 
                 ; 0000 07D4 if(PINC.0 == 0)
                 ; 0000 07D5     PORTB.0 = 1;
                 ; 0000 07D6 else
                 ; 0000 07D7     PORTB.0 = 0;
                 ; 0000 07D8 */
                 ; 0000 07D9 
                 ; 0000 07DA 
                 ; 0000 07DB 
                 ; 0000 07DC }
                 _0x259:
000640 9508      	RET
                 ;
                 ;
                 ;void main(void)
                 ; 0000 07E0 {
                 _main:
                 ; 0000 07E1 // Declare your local variables here
                 ; 0000 07E2 
                 ; 0000 07E3 // Input/Output Ports initialization
                 ; 0000 07E4 // Port A initialization
                 ; 0000 07E5 // Func7=In Func6=In Func5=In Func4=In Func3=In Func2=In Func1=In Func0=In
                 ; 0000 07E6 // State7=T State6=T State5=T State4=T State3=T State2=T State1=T State0=T
                 ; 0000 07E7 PORTA=0x00;
000641 e0e0      	LDI  R30,LOW(0)
000642 bbeb      	OUT  0x1B,R30
                 ; 0000 07E8 DDRA=0x00;
000643 bbea      	OUT  0x1A,R30
                 ; 0000 07E9 
                 ; 0000 07EA // Port B initialization
                 ; 0000 07EB // Func7=Out Func6=Out Func5=Out Func4=Out Func3=Out Func2=Out Func1=Out Func0=Out
                 ; 0000 07EC // State7=0 State6=0 State5=0 State4=0 State3=0 State2=0 State1=0 State0=0
                 ; 0000 07ED PORTB=0x00;
000644 bbe8      	OUT  0x18,R30
                 ; 0000 07EE DDRB=0xFF;
000645 efef      	LDI  R30,LOW(255)
000646 bbe7      	OUT  0x17,R30
                 ; 0000 07EF 
                 ; 0000 07F0 // Port C initialization
                 ; 0000 07F1 // Func7=Out Func6=Out Func5=Out Func4=Out Func3=Out Func2=Out Func1=Out Func0=Out
                 ; 0000 07F2 // State7=0 State6=0 State5=0 State4=0 State3=0 State2=0 State1=0 State0=0
                 ; 0000 07F3 PORTC=0x00;
000647 e0e0      	LDI  R30,LOW(0)
000648 bbe5      	OUT  0x15,R30
                 ; 0000 07F4 DDRC=0xFF;
000649 efef      	LDI  R30,LOW(255)
00064a bbe4      	OUT  0x14,R30
                 ; 0000 07F5 
                 ; 0000 07F6 // Port D initialization
                 ; 0000 07F7 // Func7=Out Func6=Out Func5=Out Func4=Out Func3=Out Func2=Out Func1=Out Func0=Out
                 ; 0000 07F8 // State7=0 State6=0 State5=0 State4=0 State3=0 State2=0 State1=0 State0=0
                 ; 0000 07F9 PORTD=0x00;
00064b e0e0      	LDI  R30,LOW(0)
00064c bbe2      	OUT  0x12,R30
                 ; 0000 07FA DDRD=0xFF;
00064d efef      	LDI  R30,LOW(255)
00064e bbe1      	OUT  0x11,R30
                 ; 0000 07FB 
                 ; 0000 07FC // Port E initialization
                 ; 0000 07FD // Func7=Out Func6=Out Func5=Out Func4=Out Func3=In Func2=In Func1=In Func0=In
                 ; 0000 07FE // State7=0 State6=0 State5=0 State4=0 State3=T State2=T State1=T State0=T      //stary przy starych malych pucharach
                 ; 0000 07FF //PORTE=0x00;
                 ; 0000 0800 //DDRE=0xF0;
                 ; 0000 0801 
                 ; 0000 0802 // Port E initialization
                 ; 0000 0803 // Func7=In Func6=In Func5=Out Func4=Out Func3=Out Func2=Out Func1=Out Func0=Out
                 ; 0000 0804 // State7=T State6=T State5=0 State4=0 State3=0 State2=0 State1=0 State0=0
                 ; 0000 0805 PORTE=0x00;
00064f e0e0      	LDI  R30,LOW(0)
000650 b9e3      	OUT  0x3,R30
                 ; 0000 0806 DDRE=0x3F;
000651 e3ef      	LDI  R30,LOW(63)
000652 b9e2      	OUT  0x2,R30
                 ; 0000 0807 
                 ; 0000 0808 // Port F initialization
                 ; 0000 0809 // Func7=In Func6=In Func5=In Func4=In Func3=In Func2=In Func1=In Func0=In
                 ; 0000 080A // State7=T State6=T State5=T State4=T State3=T State2=T State1=T State0=T
                 ; 0000 080B PORTF=0x00;
000653 e0e0      	LDI  R30,LOW(0)
000654 93e0 0062 	STS  98,R30
                 ; 0000 080C DDRF=0x00;
000656 93e0 0061 	STS  97,R30
                 ; 0000 080D 
                 ; 0000 080E // Port G initialization
                 ; 0000 080F // Func4=Out Func3=Out Func2=Out Func1=Out Func0=Out
                 ; 0000 0810 // State4=0 State3=0 State2=0 State1=0 State0=0
                 ; 0000 0811 PORTG=0x00;
000658 93e0 0065 	STS  101,R30
                 ; 0000 0812 DDRG=0x1F;
00065a e1ef      	LDI  R30,LOW(31)
00065b 93e0 0064 	STS  100,R30
                 ; 0000 0813 
                 ; 0000 0814 // Timer/Counter 0 initialization
                 ; 0000 0815 // Clock source: System Clock
                 ; 0000 0816 // Clock value: 15,625 kHz
                 ; 0000 0817 // Mode: Normal top=0xFF
                 ; 0000 0818 // OC0 output: Disconnected
                 ; 0000 0819 ASSR=0x00;
00065d e0e0      	LDI  R30,LOW(0)
00065e bfe0      	OUT  0x30,R30
                 ; 0000 081A TCCR0=0x07;
00065f e0e7      	LDI  R30,LOW(7)
000660 bfe3      	OUT  0x33,R30
                 ; 0000 081B TCNT0=0x00;
000661 e0e0      	LDI  R30,LOW(0)
000662 bfe2      	OUT  0x32,R30
                 ; 0000 081C OCR0=0x00;
000663 bfe1      	OUT  0x31,R30
                 ; 0000 081D 
                 ; 0000 081E // Timer/Counter 1 initialization
                 ; 0000 081F // Clock source: System Clock
                 ; 0000 0820 // Clock value: Timer1 Stopped
                 ; 0000 0821 // Mode: Normal top=0xFFFF
                 ; 0000 0822 // OC1A output: Discon.
                 ; 0000 0823 // OC1B output: Discon.
                 ; 0000 0824 // OC1C output: Discon.
                 ; 0000 0825 // Noise Canceler: Off
                 ; 0000 0826 // Input Capture on Falling Edge
                 ; 0000 0827 // Timer1 Overflow Interrupt: Off
                 ; 0000 0828 // Input Capture Interrupt: Off
                 ; 0000 0829 // Compare A Match Interrupt: Off
                 ; 0000 082A // Compare B Match Interrupt: Off
                 ; 0000 082B // Compare C Match Interrupt: Off
                 ; 0000 082C TCCR1A=0x00;
000664 bdef      	OUT  0x2F,R30
                 ; 0000 082D TCCR1B=0x00;
000665 bdee      	OUT  0x2E,R30
                 ; 0000 082E TCNT1H=0x00;
000666 bded      	OUT  0x2D,R30
                 ; 0000 082F TCNT1L=0x00;
000667 bdec      	OUT  0x2C,R30
                 ; 0000 0830 ICR1H=0x00;
000668 bde7      	OUT  0x27,R30
                 ; 0000 0831 ICR1L=0x00;
000669 bde6      	OUT  0x26,R30
                 ; 0000 0832 OCR1AH=0x00;
00066a bdeb      	OUT  0x2B,R30
                 ; 0000 0833 OCR1AL=0x00;
00066b bdea      	OUT  0x2A,R30
                 ; 0000 0834 OCR1BH=0x00;
00066c bde9      	OUT  0x29,R30
                 ; 0000 0835 OCR1BL=0x00;
00066d bde8      	OUT  0x28,R30
                 ; 0000 0836 OCR1CH=0x00;
00066e 93e0 0079 	STS  121,R30
                 ; 0000 0837 OCR1CL=0x00;
000670 93e0 0078 	STS  120,R30
                 ; 0000 0838 
                 ; 0000 0839 // Timer/Counter 2 initialization
                 ; 0000 083A // Clock source: System Clock
                 ; 0000 083B // Clock value: Timer2 Stopped
                 ; 0000 083C // Mode: Normal top=0xFF
                 ; 0000 083D // OC2 output: Disconnected
                 ; 0000 083E //TCCR2=0x00;
                 ; 0000 083F //TCNT2=0x00;
                 ; 0000 0840 //OCR2=0x00;
                 ; 0000 0841 
                 ; 0000 0842 // Timer/Counter 2 initialization
                 ; 0000 0843 // Clock source: System Clock
                 ; 0000 0844 // Clock value: 250,000 kHz
                 ; 0000 0845 // Mode: Normal top=0xFF
                 ; 0000 0846 // OC2 output: Disconnected
                 ; 0000 0847 //TCCR2=0x03;
                 ; 0000 0848 //TCNT2=0x00;
                 ; 0000 0849 //OCR2=0x00;
                 ; 0000 084A 
                 ; 0000 084B 
                 ; 0000 084C // Timer/Counter 2 initialization
                 ; 0000 084D // Clock source: System Clock
                 ; 0000 084E // Clock value: 2000,000 kHz
                 ; 0000 084F // Mode: Normal top=0xFF
                 ; 0000 0850 // OC2 output: Disconnected
                 ; 0000 0851 //TCCR2=0x02;
                 ; 0000 0852 //TCNT2=0x00;
                 ; 0000 0853 //OCR2=0x00;
                 ; 0000 0854 
                 ; 0000 0855 // Timer/Counter 2 initialization
                 ; 0000 0856 // Clock source: System Clock
                 ; 0000 0857 // Clock value: 16000,000 kHz
                 ; 0000 0858 // Mode: Normal top=0xFF
                 ; 0000 0859 // OC2 output: Disconnected
                 ; 0000 085A TCCR2=0x01;
000672 e0e1      	LDI  R30,LOW(1)
000673 bde5      	OUT  0x25,R30
                 ; 0000 085B TCNT2=0x00;
000674 e0e0      	LDI  R30,LOW(0)
000675 bde4      	OUT  0x24,R30
                 ; 0000 085C OCR2=0x00;
000676 bde3      	OUT  0x23,R30
                 ; 0000 085D 
                 ; 0000 085E 
                 ; 0000 085F 
                 ; 0000 0860 // Timer/Counter 3 initialization
                 ; 0000 0861 // Clock source: System Clock
                 ; 0000 0862 // Clock value: Timer3 Stopped
                 ; 0000 0863 // Mode: Normal top=0xFFFF
                 ; 0000 0864 // OC3A output: Discon.
                 ; 0000 0865 // OC3B output: Discon.
                 ; 0000 0866 // OC3C output: Discon.
                 ; 0000 0867 // Noise Canceler: Off
                 ; 0000 0868 // Input Capture on Falling Edge
                 ; 0000 0869 // Timer3 Overflow Interrupt: Off
                 ; 0000 086A // Input Capture Interrupt: Off
                 ; 0000 086B // Compare A Match Interrupt: Off
                 ; 0000 086C // Compare B Match Interrupt: Off
                 ; 0000 086D // Compare C Match Interrupt: Off
                 ; 0000 086E TCCR3A=0x00;
000677 93e0 008b 	STS  139,R30
                 ; 0000 086F TCCR3B=0x00;
000679 93e0 008a 	STS  138,R30
                 ; 0000 0870 TCNT3H=0x00;
00067b 93e0 0089 	STS  137,R30
                 ; 0000 0871 TCNT3L=0x00;
00067d 93e0 0088 	STS  136,R30
                 ; 0000 0872 ICR3H=0x00;
00067f 93e0 0081 	STS  129,R30
                 ; 0000 0873 ICR3L=0x00;
000681 93e0 0080 	STS  128,R30
                 ; 0000 0874 OCR3AH=0x00;
000683 93e0 0087 	STS  135,R30
                 ; 0000 0875 OCR3AL=0x00;
000685 93e0 0086 	STS  134,R30
                 ; 0000 0876 OCR3BH=0x00;
000687 93e0 0085 	STS  133,R30
                 ; 0000 0877 OCR3BL=0x00;
000689 93e0 0084 	STS  132,R30
                 ; 0000 0878 OCR3CH=0x00;
00068b 93e0 0083 	STS  131,R30
                 ; 0000 0879 OCR3CL=0x00;
00068d 93e0 0082 	STS  130,R30
                 ; 0000 087A 
                 ; 0000 087B // External Interrupt(s) initialization
                 ; 0000 087C // INT0: Off
                 ; 0000 087D // INT1: Off
                 ; 0000 087E // INT2: Off
                 ; 0000 087F // INT3: Off
                 ; 0000 0880 // INT4: Off
                 ; 0000 0881 // INT5: Off
                 ; 0000 0882 // INT6: Off
                 ; 0000 0883 // INT7: Off
                 ; 0000 0884 EICRA=0x00;
00068f 93e0 006a 	STS  106,R30
                 ; 0000 0885 EICRB=0x00;
000691 bfea      	OUT  0x3A,R30
                 ; 0000 0886 EIMSK=0x00;
000692 bfe9      	OUT  0x39,R30
                 ; 0000 0887 
                 ; 0000 0888 // Timer(s)/Counter(s) Interrupt(s) initialization
                 ; 0000 0889 //TIMSK=0x01;
                 ; 0000 088A 
                 ; 0000 088B // Timer(s)/Counter(s) Interrupt(s) initialization
                 ; 0000 088C TIMSK=0x41;
000693 e4e1      	LDI  R30,LOW(65)
000694 bfe7      	OUT  0x37,R30
                 ; 0000 088D 
                 ; 0000 088E 
                 ; 0000 088F 
                 ; 0000 0890 
                 ; 0000 0891 ETIMSK=0x00;
000695 e0e0      	LDI  R30,LOW(0)
000696 93e0 007d 	STS  125,R30
                 ; 0000 0892 
                 ; 0000 0893 
                 ; 0000 0894 /*
                 ; 0000 0895 // USART0 initialization
                 ; 0000 0896 // Communication Parameters: 8 Data, 1 Stop, No Parity
                 ; 0000 0897 // USART0 Receiver: On
                 ; 0000 0898 // USART0 Transmitter: On
                 ; 0000 0899 // USART0 Mode: Asynchronous
                 ; 0000 089A // USART0 Baud Rate: 2400
                 ; 0000 089B UCSR0A=(0<<RXC0) | (0<<TXC0) | (0<<UDRE0) | (0<<FE0) | (0<<DOR0) | (0<<UPE0) | (0<<U2X0) | (0<<MPCM0);
                 ; 0000 089C UCSR0B=(0<<RXCIE0) | (0<<TXCIE0) | (0<<UDRIE0) | (1<<RXEN0) | (1<<TXEN0) | (0<<UCSZ02) | (0<<RXB80) | (0<<TXB80);
                 ; 0000 089D UCSR0C=(0<<UMSEL0) | (0<<UPM01) | (0<<UPM00) | (0<<USBS0) | (1<<UCSZ01) | (1<<UCSZ00) | (0<<UCPOL0);
                 ; 0000 089E UBRR0H=0x01;
                 ; 0000 089F UBRR0L=0xA0;
                 ; 0000 08A0 */
                 ; 0000 08A1 
                 ; 0000 08A2 
                 ; 0000 08A3 /*
                 ; 0000 08A4 // USART0 initialization
                 ; 0000 08A5 // Communication Parameters: 8 Data, 1 Stop, No Parity
                 ; 0000 08A6 // USART0 Receiver: On
                 ; 0000 08A7 // USART0 Transmitter: On
                 ; 0000 08A8 // USART0 Mode: Asynchronous
                 ; 0000 08A9 // USART0 Baud Rate: 9600
                 ; 0000 08AA UCSR0A=(0<<RXC0) | (0<<TXC0) | (0<<UDRE0) | (0<<FE0) | (0<<DOR0) | (0<<UPE0) | (0<<U2X0) | (0<<MPCM0);
                 ; 0000 08AB UCSR0B=(0<<RXCIE0) | (0<<TXCIE0) | (0<<UDRIE0) | (1<<RXEN0) | (1<<TXEN0) | (0<<UCSZ02) | (0<<RXB80) | (0<<TXB80);
                 ; 0000 08AC UCSR0C=(0<<UMSEL0) | (0<<UPM01) | (0<<UPM00) | (0<<USBS0) | (1<<UCSZ01) | (1<<UCSZ00) | (0<<UCPOL0);
                 ; 0000 08AD UBRR0H=0x00;
                 ; 0000 08AE UBRR0L=0x67;
                 ; 0000 08AF 
                 ; 0000 08B0 */
                 ; 0000 08B1 // USART0 initialization
                 ; 0000 08B2 // USART0 disabled
                 ; 0000 08B3 UCSR0B=(0<<RXCIE0) | (0<<TXCIE0) | (0<<UDRIE0) | (0<<RXEN0) | (0<<TXEN0) | (0<<UCSZ02) | (0<<RXB80) | (0<<TXB80);
000698 b9ea      	OUT  0xA,R30
                 ; 0000 08B4 
                 ; 0000 08B5 
                 ; 0000 08B6 // USART1 initialization
                 ; 0000 08B7 // USART1 disabled
                 ; 0000 08B8 UCSR1B=(0<<RXCIE1) | (0<<TXCIE1) | (0<<UDRIE1) | (0<<RXEN1) | (0<<TXEN1) | (0<<UCSZ12) | (0<<RXB81) | (0<<TXB81);
000699 93e0 009a 	STS  154,R30
                 ; 0000 08B9 
                 ; 0000 08BA // USART1 initialization
                 ; 0000 08BB // Communication Parameters: 8 Data, 1 Stop, No Parity
                 ; 0000 08BC // USART1 Receiver: On
                 ; 0000 08BD // USART1 Transmitter: On
                 ; 0000 08BE // USART1 Mode: Asynchronous
                 ; 0000 08BF // USART1 Baud Rate: 9600
                 ; 0000 08C0 //UCSR1A=(0<<RXC1) | (0<<TXC1) | (0<<UDRE1) | (0<<FE1) | (0<<DOR1) | (0<<UPE1) | (0<<U2X1) | (0<<MPCM1);
                 ; 0000 08C1 //UCSR1B=(0<<RXCIE1) | (0<<TXCIE1) | (0<<UDRIE1) | (1<<RXEN1) | (1<<TXEN1) | (0<<UCSZ12) | (0<<RXB81) | (0<<TXB81);
                 ; 0000 08C2 //UCSR1C=(0<<UMSEL1) | (0<<UPM11) | (0<<UPM10) | (0<<USBS1) | (1<<UCSZ11) | (1<<UCSZ10) | (0<<UCPOL1);
                 ; 0000 08C3 //UBRR1H=0x00;
                 ; 0000 08C4 //UBRR1L=0x67;
                 ; 0000 08C5 
                 ; 0000 08C6 
                 ; 0000 08C7 // Analog Comparator initialization
                 ; 0000 08C8 // Analog Comparator: Off
                 ; 0000 08C9 // Analog Comparator Input Capture by Timer/Counter 1: Off
                 ; 0000 08CA ACSR=0x80;
00069b e8e0      	LDI  R30,LOW(128)
00069c b9e8      	OUT  0x8,R30
                 ; 0000 08CB SFIOR=0x00;
00069d e0e0      	LDI  R30,LOW(0)
00069e bde0      	OUT  0x20,R30
                 ; 0000 08CC 
                 ; 0000 08CD // ADC initialization
                 ; 0000 08CE // ADC disabled
                 ; 0000 08CF ADCSRA=0x00;
00069f b9e6      	OUT  0x6,R30
                 ; 0000 08D0 
                 ; 0000 08D1 // SPI initialization
                 ; 0000 08D2 // SPI disabled
                 ; 0000 08D3 SPCR=0x00;
0006a0 b9ed      	OUT  0xD,R30
                 ; 0000 08D4 
                 ; 0000 08D5 // TWI initialization
                 ; 0000 08D6 // TWI disabled
                 ; 0000 08D7 TWCR=0x00;
0006a1 93e0 0074 	STS  116,R30
                 ; 0000 08D8 
                 ; 0000 08D9 
                 ; 0000 08DA // Alphanumeric LCD initialization
                 ; 0000 08DB // Connections specified in the
                 ; 0000 08DC // Project|Configure|C Compiler|Libraries|Alphanumeric LCD menu:
                 ; 0000 08DD // RS - PORTG Bit 4
                 ; 0000 08DE // RD - PORTD Bit 6
                 ; 0000 08DF // EN - PORTD Bit 7
                 ; 0000 08E0 // D4 - PORTG Bit 0
                 ; 0000 08E1 // D5 - PORTG Bit 1
                 ; 0000 08E2 // D6 - PORTG Bit 2
                 ; 0000 08E3 // D7 - PORTG Bit 3
                 ; 0000 08E4 // Characters/line: 16
                 ; 0000 08E5 //lcd_init(16);
                 ; 0000 08E6 //BEZ WYSWIETLACZ
                 ; 0000 08E7 
                 ; 0000 08E8 //WE
                 ; 0000 08E9 //PINA.0    czujnik widzenia nakrêtki
                 ; 0000 08EA //PINA.1    uszkodzonie na karcie - Pan Bogdan zwar³
                 ; 0000 08EB //PINA.2    czujnik widzenia kamienia
                 ; 0000 08EC //PINA.3    sygnal odpytania od procesora glownego
                 ; 0000 08ED //PINA.4    czujnik do silownika kolejkujacego nakretki - lampka nie chodzi
                 ; 0000 08EE //PINA.5    czujnik czy jest klej
                 ; 0000 08EF //PINA.6    czujnik czy jest gotowy do pracy dozownik kleju
                 ; 0000 08F0 //PINA.7    pedal montera 3 - informacja ze zwolnil zacisk grzybka i jednoczesnie ze nakretka pobrana
                 ; 0000 08F1 
                 ; 0000 08F2 //PINF.0    uszkodzone
                 ; 0000 08F3 //PINF.1    uszkodzona karta
                 ; 0000 08F4 //PINF.2
                 ; 0000 08F5 //PINF.3
                 ; 0000 08F6 //PINF.4    czujnik dolny nakretek ten cienki magnetyczny
                 ; 0000 08F7 //PINF.5    ze MAster dal zgode na zacisniecie szczek
                 ; 0000 08F8 //PINF.6    do komunikacji z male puchary - NOWY KABEL
                 ; 0000 08F9 //PINF.7    do komunikacji z male puchary sygnal przecinka - NOWY KABEL
                 ; 0000 08FA 
                 ; 0000 08FB //PINE.0    czujnik 1 indukcyjnych pozycjonujacey wieze
                 ; 0000 08FC //PINE.1    czujnik 1 indukcyjnych pozycjonujacey wieze
                 ; 0000 08FD //PINE.2    peda³ 2    //zmieniam na pine.6
                 ; 0000 08FE //PINE.3    czujnik na silowniku otwierania wiezyczki tym nowym
                 ; 0000 08FF 
                 ; 0000 0900 //WNIOSKI:
                 ; 0000 0901 //C ZMIENIC NA F
                 ; 0000 0902 //DO C PODPIAC NOWA WYSPE
                 ; 0000 0903 //DO E PODPISAC KARTE 4 + SILNIK KROK
                 ; 0000 0904 
                 ; 0000 0905 
                 ; 0000 0906 //WY
                 ; 0000 0907 //PORTB.0   orientator nakretek
                 ; 0000 0908 //PORTB.1   za³¹czenie 220V na dozownik kleju
                 ; 0000 0909 //PORTB.2
                 ; 0000 090A //PORTB.3   psikanie
                 ; 0000 090B //PORTB.4   cisnienia na dozownik kleju
                 ; 0000 090C //PORTB.5   wibrator nowy
                 ; 0000 090D //PORTB.6   SYGAN POTWIERDZENIA DO MASTER
                 ; 0000 090E //PORTB.7   podawanie kleju
                 ; 0000 090F 
                 ; 0000 0910 //PORTD.0
                 ; 0000 0911 //PORTD.1
                 ; 0000 0912 //PORTD.2   silownik podawania kleju
                 ; 0000 0913 //PORTD.3   silownik otwierania lancy
                 ; 0000 0914 //PORTD.4   silownik wykonujacy drgania
                 ; 0000 0915 //PORTD.5   silownik kolejkujacy nakrêtki na zjezdzalni
                 ; 0000 0916 //PORTD.6   tacka pobierajaca nakretki
                 ; 0000 0917 //PORTD.7   chwytanie kamienia
                 ; 0000 0918 
                 ; 0000 0919 
                 ; 0000 091A //PORTC.0   // silownik obrotowy os pionowa
                 ; 0000 091B //PORTC.1  //silownik obrotowy os pozioma w gore czyli nie ma kolizji
                 ; 0000 091C //PORTC.2  //zamykanie wiezyczki 1
                 ; 0000 091D //PORTC.3  //zamykanie wiezyczki 2
                 ; 0000 091E //PORTC.4
                 ; 0000 091F //PORTC.5
                 ; 0000 0920 //PORTC.6
                 ; 0000 0921 //PORTC.7  //zamykanie wiezyczki 2
                 ; 0000 0922 
                 ; 0000 0923 //WPROWADZAM MODYFIKACJE POD MALE PUCHARY
                 ; 0000 0924 //PORTE.4 - DIR du¿y silnik
                 ; 0000 0925 //PORTE.5 - CLK
                 ; 0000 0926 //PORTE.7 - enable (1 uruchamia)
                 ; 0000 0927 
                 ; 0000 0928 //PROCESY
                 ; 0000 0929 //proces_0 - podawanie nakretki monterowi
                 ; 0000 092A //proces_1 - chwytanie kamienia
                 ; 0000 092B 
                 ; 0000 092C 
                 ; 0000 092D //////////////////////////////////////////
                 ; 0000 092E ////obsluga_startowa_dozownika_kleju();    //wywalam bo modul male puchary
                 ; 0000 092F //////////////////////////////////////////
                 ; 0000 0930 
                 ; 0000 0931 /*
                 ; 0000 0932 delay_ms(2000);
                 ; 0000 0933 delay_ms(2000);
                 ; 0000 0934 
                 ; 0000 0935 PORTC.2 = 0;  //stan otwart wejsciowy wie¿a 1
                 ; 0000 0936 PORTC.3 = 1;  //stan otwarcia wejsciowy wie¿a 2
                 ; 0000 0937 PORTC.7 = 0;  //stan otwarcia wejsciowy wie¿a 2
                 ; 0000 0938 //(aby zamknac: PORTC.3 = 0; PORTC.7 = 1;)
                 ; 0000 0939 
                 ; 0000 093A PORTC.5 = 0;  //schowaj silownik otwierajacy wieze - ustawienie wstepne
                 ; 0000 093B PORTC.6 = 1;
                 ; 0000 093C delay_ms(2000);
                 ; 0000 093D delay_ms(2000);
                 ; 0000 093E 
                 ; 0000 093F 
                 ; 0000 0940 PORTC.5 = 1;     //wysun silownik
                 ; 0000 0941 PORTC.6 = 0;
                 ; 0000 0942 
                 ; 0000 0943 delay_ms(2000);
                 ; 0000 0944 delay_ms(2000);
                 ; 0000 0945 PORTC.5 = 0;  //schowaj silownik
                 ; 0000 0946 PORTC.6 = 1;
                 ; 0000 0947 
                 ; 0000 0948 
                 ; 0000 0949 delay_ms(2000);
                 ; 0000 094A delay_ms(2000);
                 ; 0000 094B */
                 ; 0000 094C 
                 ; 0000 094D 
                 ; 0000 094E PORTC.5 = 0;  //schowaj silownik otwierajacy wieze
0006a3 98ad      	CBI  0x15,5
                 ; 0000 094F PORTC.6 = 1;
0006a4 9aae      	SBI  0x15,6
                 ; 0000 0950 
                 ; 0000 0951 PORTC.3 = 1;  //stan otwarcia wejsciowy wie¿a 2
0006a5 9aab      	SBI  0x15,3
                 ; 0000 0952 PORTC.7 = 0;  //stan otwarcia wejsciowy wie¿a 2
0006a6 98af      	CBI  0x15,7
                 ; 0000 0953 
                 ; 0000 0954 
                 ; 0000 0955 pomocnicza = 7;
                +
0006a7 e0e7     +LDI R30 , LOW ( 0x7 )
0006a8 e0f0     +LDI R31 , HIGH ( 0x7 )
0006a9 e060     +LDI R22 , BYTE3 ( 0x7 )
0006aa e070     +LDI R23 , BYTE4 ( 0x7 )
                 	__GETD1N 0x7
0006ab 93e0 0548 	STS  _pomocnicza,R30
0006ad 93f0 0549 	STS  _pomocnicza+1,R31
0006af 9360 054a 	STS  _pomocnicza+2,R22
0006b1 9370 054b 	STS  _pomocnicza+3,R23
                 ; 0000 0956 stala_czasowa = 62;
                +
0006b3 e3ee     +LDI R30 , LOW ( 0x3E )
0006b4 e0f0     +LDI R31 , HIGH ( 0x3E )
0006b5 e060     +LDI R22 , BYTE3 ( 0x3E )
0006b6 e070     +LDI R23 , BYTE4 ( 0x3E )
                 	__GETD1N 0x3E
0006b7 93e0 054c 	STS  _stala_czasowa,R30
0006b9 93f0 054d 	STS  _stala_czasowa+1,R31
0006bb 9360 054e 	STS  _stala_czasowa+2,R22
0006bd 9370 054f 	STS  _stala_czasowa+3,R23
                 ; 0000 0957 czas_monterow = pomocnicza * stala_czasowa;
0006bf 91a0 0548 	LDS  R26,_pomocnicza
0006c1 91b0 0549 	LDS  R27,_pomocnicza+1
0006c3 9180 054a 	LDS  R24,_pomocnicza+2
0006c5 9190 054b 	LDS  R25,_pomocnicza+3
0006c7 940e 0990 	CALL __MULD12
0006c9 93e0 0544 	STS  _czas_monterow,R30
0006cb 93f0 0545 	STS  _czas_monterow+1,R31
0006cd 9360 0546 	STS  _czas_monterow+2,R22
0006cf 9370 0547 	STS  _czas_monterow+3,R23
                 ; 0000 0958 start = 0;
0006d1 2444      	CLR  R4
0006d2 2455      	CLR  R5
                 ; 0000 0959 PORTD.2 = 1;  //igla wysunieta z klejem czyli wysuniety silownik
0006d3 9a92      	SBI  0x12,2
                 ; 0000 095A nakretka = 1; //silownik z dysza kleju do gory
0006d4 e0e1      	LDI  R30,LOW(1)
0006d5 e0f0      	LDI  R31,HIGH(1)
0006d6 014f      	MOVW R8,R30
                 ; 0000 095B licznik_nakretek = 0;
0006d7 2466      	CLR  R6
0006d8 2477      	CLR  R7
                 ; 0000 095C 
                 ; 0000 095D czekaj_komunikacja = 0;
0006d9 24aa      	CLR  R10
0006da 24bb      	CLR  R11
                 ; 0000 095E podaj_nakretke = 0;
0006db 940e 0869 	CALL SUBOPT_0x1C
                 ; 0000 095F wcisnalem_pedal = 0;
                 ; 0000 0960 zezwolenie_na_zacisniecie_szczek_od_master = 0;
0006dd e0e0      	LDI  R30,LOW(0)
0006de 93e0 0554 	STS  _zezwolenie_na_zacisniecie_szczek_od_master,R30
0006e0 93e0 0555 	STS  _zezwolenie_na_zacisniecie_szczek_od_master+1,R30
                 ; 0000 0961 zacisnalem_szczeki = 0;
0006e2 93e0 0556 	STS  _zacisnalem_szczeki,R30
0006e4 93e0 0557 	STS  _zacisnalem_szczeki+1,R30
                 ; 0000 0962 ff = 0;
0006e6 24cc      	CLR  R12
0006e7 24dd      	CLR  R13
                 ; 0000 0963 jest_nakretka_przy_dolnym = 0;
0006e8 93e0 0558 	STS  _jest_nakretka_przy_dolnym,R30
0006ea 93e0 0559 	STS  _jest_nakretka_przy_dolnym+1,R30
                 ; 0000 0964 wlaczam_dodatkowe_wibracje_i_psikanie = 0;
0006ec 93e0 055a 	STS  _wlaczam_dodatkowe_wibracje_i_psikanie,R30
0006ee 93e0 055b 	STS  _wlaczam_dodatkowe_wibracje_i_psikanie+1,R30
                 ; 0000 0965 licznik_drgania = 0;
0006f0 940e 079d 	CALL SUBOPT_0x3
                 ; 0000 0966 wystarczy_zejscia = 0;
0006f2 940e 0846 	CALL SUBOPT_0x17
                 ; 0000 0967 licznik_widzenia_nakretki = 0;
0006f4 e0e0      	LDI  R30,LOW(0)
0006f5 93e0 0562 	STS  _licznik_widzenia_nakretki,R30
0006f7 93e0 0563 	STS  _licznik_widzenia_nakretki+1,R30
                 ; 0000 0968 wcisniete_zakonczone = 0;
0006f9 93e0 0566 	STS  _wcisniete_zakonczone,R30
0006fb 93e0 0567 	STS  _wcisniete_zakonczone+1,R30
                 ; 0000 0969 wielkosc_przesuniecia_kamien = 0;
0006fd 93e0 0574 	STS  _wielkosc_przesuniecia_kamien,R30
0006ff 93e0 0575 	STS  _wielkosc_przesuniecia_kamien+1,R30
                 ; 0000 096A kamien = 0;
000701 93e0 0576 	STS  _kamien,R30
000703 93e0 0577 	STS  _kamien+1,R30
                 ; 0000 096B test_zjezdzalni_nakretek = 0;  //TEST ZJEZDZALNI NAKRETEK
000705 93e0 0582 	STS  _test_zjezdzalni_nakretek,R30
000707 93e0 0583 	STS  _test_zjezdzalni_nakretek+1,R30
                 ; 0000 096C male_puchary_pozwolenie_wyjecia_puchara_monter_3 = 0;
000709 93e0 0586 	STS  _male_puchary_pozwolenie_wyjecia_puchara_monter_3,R30
00070b 93e0 0587 	STS  _male_puchary_pozwolenie_wyjecia_puchara_monter_3+1,R30
                 ; 0000 096D 
                 ; 0000 096E podaj_nakretke = 1;
00070d 940e 08fa 	CALL SUBOPT_0x30
                 ; 0000 096F wcisnalem_pedal = 0;
00070f e0e0      	LDI  R30,LOW(0)
000710 93e0 0552 	STS  _wcisnalem_pedal,R30
000712 93e0 0553 	STS  _wcisnalem_pedal+1,R30
                 ; 0000 0970 zacisnalem_szczeki = 0;
000714 93e0 0556 	STS  _zacisnalem_szczeki,R30
000716 93e0 0557 	STS  _zacisnalem_szczeki+1,R30
                 ; 0000 0971 zezwolenie_od_master = 0;
000718 940e 07b3 	CALL SUBOPT_0x6
                 ; 0000 0972 wcisniete_zakonczone = 2;
00071a e0e2      	LDI  R30,LOW(2)
00071b e0f0      	LDI  R31,HIGH(2)
00071c 93e0 0566 	STS  _wcisniete_zakonczone,R30
00071e 93f0 0567 	STS  _wcisniete_zakonczone+1,R31
                 ; 0000 0973 wieza = 0;
000720 e0e0      	LDI  R30,LOW(0)
000721 93e0 0588 	STS  _wieza,R30
000723 93e0 0589 	STS  _wieza+1,R30
                 ; 0000 0974 
                 ; 0000 0975 pozycja_wiezy = 0;
000725 93e0 056c 	STS  _pozycja_wiezy,R30
000727 93e0 056d 	STS  _pozycja_wiezy+1,R30
                 ; 0000 0976 kkk = 0;
000729 93e0 056e 	STS  _kkk,R30
00072b 93e0 056f 	STS  _kkk+1,R30
                 ; 0000 0977 kkk1 = 0;
00072d 93e0 0570 	STS  _kkk1,R30
00072f 93e0 0571 	STS  _kkk1+1,R30
                 ; 0000 0978 v1 = 60;
000731 e3ec      	LDI  R30,LOW(60)
000732 e0f0      	LDI  R31,HIGH(60)
000733 93e0 0572 	STS  _v1,R30
000735 93f0 0573 	STS  _v1+1,R31
                 ; 0000 0979 speed_normal = 8;  //8 to totalny maks , 09.08.2018 bylo 10, zmieniam na 12, bo wtedy jest stabilnie
000737 e0e8      	LDI  R30,LOW(8)
000738 e0f0      	LDI  R31,HIGH(8)
000739 93e0 0578 	STS  _speed_normal,R30
00073b 93f0 0579 	STS  _speed_normal+1,R31
                 ; 0000 097A tryb_male_puchary = 0;
00073d e0e0      	LDI  R30,LOW(0)
00073e 93e0 0580 	STS  _tryb_male_puchary,R30
000740 93e0 0581 	STS  _tryb_male_puchary+1,R30
                 ; 0000 097B jedz_wieza_cykl_znacznik = 0;
000742 93e0 058a 	STS  _jedz_wieza_cykl_znacznik,R30
000744 93e0 058b 	STS  _jedz_wieza_cykl_znacznik+1,R30
                 ; 0000 097C 
                 ; 0000 097D PORTC.0 = 1;  // silownik obrotowy os pionowa
000746 9aa8      	SBI  0x15,0
                 ; 0000 097E PORTC.1 = 1;  //silownik obrotowy os pozioma w gore czyli nie ma kolizji
000747 9aa9      	SBI  0x15,1
                 ; 0000 097F PORTB.5 = 1;  //wibrator nowy
000748 9ac5      	SBI  0x18,5
                 ; 0000 0980 
                 ; 0000 0981 delay_ms(1000);
000749 940e 0943 	CALL SUBOPT_0x39
                 ; 0000 0982 delay_ms(1000);
00074b 940e 0943 	CALL SUBOPT_0x39
                 ; 0000 0983 
                 ; 0000 0984 //////////////////////////////////////////////////////////////
                 ; 0000 0985 //wypozucjonuj_wieze_wolno();
                 ; 0000 0986 
                 ; 0000 0987 //#asm("sei")
                 ; 0000 0988 //while(1)
                 ; 0000 0989 //    jedz_wieza();
                 ; 0000 098A 
                 ; 0000 098B ////////////////////////////////////////////
                 ; 0000 098C 
                 ; 0000 098D while(tryb_male_puchary == 0)
                 _0x317:
00074d 91e0 0580 	LDS  R30,_tryb_male_puchary
00074f 91f0 0581 	LDS  R31,_tryb_male_puchary+1
000751 9730      	SBIW R30,0
000752 f411      	BRNE _0x319
                 ; 0000 098E      komunikacja_male_puchary();
000753 ddf8      	RCALL _komunikacja_male_puchary
000754 cff8      	RJMP _0x317
                 _0x319:
                 ; 0000 0993 while(PINE.7 == 0)
                 _0x31A:
000755 990f      	SBIC 0x1,7
000756 c002      	RJMP _0x31C
                 ; 0000 0994    {
                 ; 0000 0995    PORTE.0 = 1;    //zadanie wypozycjonowania
000757 9a18      	SBI  0x3,0
                 ; 0000 0996    }
000758 cffc      	RJMP _0x31A
                 _0x31C:
                 ; 0000 0997 PORTE.0 = 0;
000759 9818      	CBI  0x3,0
                 ; 0000 0998 PORTB.5 = 0;  //wibrator nowy stop
00075a 98c5      	CBI  0x18,5
                 ; 0000 0999 
                 ; 0000 099A // Global enable interrupts
                 ; 0000 099B #asm("sei")
00075b 9478      	sei
                 ; 0000 099C 
                 ; 0000 099D //while(1)
                 ; 0000 099E //    jedz_wieza();
                 ; 0000 099F 
                 ; 0000 09A0 
                 ; 0000 09A1 while (1)
                 _0x323:
                 ; 0000 09A2       {
                 ; 0000 09A3 
                 ; 0000 09A4       procesy();
00075c dd6e      	RCALL _procesy
                 ; 0000 09A5 
                 ; 0000 09A6 
                 ; 0000 09A7       //if(proces[3] != 4)
                 ; 0000 09A8       //  {
                 ; 0000 09A9         zerowanie_procesow();
00075d dda9      	RCALL _zerowanie_procesow
                 ; 0000 09AA         kontrola_orientatora_nakretek_nowa_zjezdzalnia();
00075e d9a9      	RCALL _kontrola_orientatora_nakretek_nowa_zjezdzalnia
                 ; 0000 09AB         komunikacja_bez_rs232();
00075f d97b      	RCALL _komunikacja_bez_rs232
                 ; 0000 09AC         komunikacja_male_puchary();
000760 ddeb      	RCALL _komunikacja_male_puchary
                 ; 0000 09AD       //  }
                 ; 0000 09AE 
                 ; 0000 09AF       while(jedz_wieza_cykl_znacznik == 1 & tryb_male_puchary == 2)
                 _0x326:
000761 91a0 058a 	LDS  R26,_jedz_wieza_cykl_znacznik
000763 91b0 058b 	LDS  R27,_jedz_wieza_cykl_znacznik+1
000765 940e 0803 	CALL SUBOPT_0xD
000767 2e0e      	MOV  R0,R30
000768 940e 07a7 	CALL SUBOPT_0x4
00076a 940e 0878 	CALL SUBOPT_0x1E
00076c 21e0      	AND  R30,R0
00076d f091      	BREQ _0x328
                 ; 0000 09B0           {
                 ; 0000 09B1           //jedz_wieza_cykl();
                 ; 0000 09B2           jedz_wieza_cykl_nowy_procesor();
00076e d99f      	RCALL _jedz_wieza_cykl_nowy_procesor
                 ; 0000 09B3           if(skonczony_proces[0] == 0)
00076f 91e0 0530 	LDS  R30,_skonczony_proces
000771 91f0 0531 	LDS  R31,_skonczony_proces+1
000773 9730      	SBIW R30,0
000774 f411      	BRNE _0x329
                 ; 0000 09B4                 skonczony_proces[0] = proces_0();
000775 940e 08ca 	CALL SUBOPT_0x29
                 ; 0000 09B5           if(skonczony_proces[3] == 0)
                 _0x329:
                +
000777 91e0 0536+LDS R30 , _skonczony_proces + ( 6 )
000779 91f0 0537+LDS R31 , _skonczony_proces + ( 6 ) + 1
                 	__GETW1MN _skonczony_proces,6
00077b 9730      	SBIW R30,0
00077c f411      	BRNE _0x32A
                 ; 0000 09B6                 skonczony_proces[3] = proces_3();
00077d 940e 08dc 	CALL SUBOPT_0x2C
                 ; 0000 09B7           }
                 _0x32A:
00077f cfe1      	RJMP _0x326
                 _0x328:
                 ; 0000 09B8 
                 ; 0000 09B9       }
000780 cfdb      	RJMP _0x323
                 ; 0000 09BA //kontrola_czujnika_dolnego_nakretek();
                 ; 0000 09BB //kontrola_orientatora_nakretek();
                 ; 0000 09BC //obsluga_dozownika_kleju_i_komunikacja();
                 ; 0000 09BD //drgania();
                 ; 0000 09BE //obsluga_probna_pobierania_nakretek();
                 ; 0000 09BF }
                 _0x32B:
000781 cfff      	RJMP _0x32B
                 ;
                 ;
                 	#ifndef __SLEEP_DEFINED__
                 	#endif
                 
                 	.CSEG
                 
                 	.CSEG
                 
                 	.CSEG
                 
                 	.DSEG
                 
                 	.CSEG
                 
                 	.CSEG
                 
                 	.CSEG
                 
                 	.DSEG
                 _sek0:
000500           	.BYTE 0x4
                 _sek1:
000504           	.BYTE 0x4
                 _sek2:
000508           	.BYTE 0x4
                 _sek3:
00050c           	.BYTE 0x4
                 _sek4:
000510           	.BYTE 0x4
                 _ulamki_sekund_0:
000514           	.BYTE 0x4
                 _ulamki_sekund_1:
000518           	.BYTE 0x4
                 _proces:
00051c           	.BYTE 0x14
                 _skonczony_proces:
000530           	.BYTE 0x14
                 _czas_monterow:
000544           	.BYTE 0x4
                 _pomocnicza:
000548           	.BYTE 0x4
                 _stala_czasowa:
00054c           	.BYTE 0x4
                 _podaj_nakretke:
000550           	.BYTE 0x2
                 _wcisnalem_pedal:
000552           	.BYTE 0x2
                 _zezwolenie_na_zacisniecie_szczek_od_master:
000554           	.BYTE 0x2
                 _zacisnalem_szczeki:
000556           	.BYTE 0x2
                 _jest_nakretka_przy_dolnym:
000558           	.BYTE 0x2
                 _wlaczam_dodatkowe_wibracje_i_psikanie:
00055a           	.BYTE 0x2
                 _licznik_drgania:
00055c           	.BYTE 0x4
                 _wystarczy_zejscia:
000560           	.BYTE 0x2
                 _licznik_widzenia_nakretki:
000562           	.BYTE 0x2
                 _ilosc_prob_wybicia_zakretki_do_gory:
000564           	.BYTE 0x2
                 _wcisniete_zakonczone:
000566           	.BYTE 0x2
                 _zezwolenie_od_master:
000568           	.BYTE 0x2
                 _basia1:
00056a           	.BYTE 0x2
                 _pozycja_wiezy:
00056c           	.BYTE 0x2
                 _kkk:
00056e           	.BYTE 0x2
                 _kkk1:
000570           	.BYTE 0x2
                 _v1:
000572           	.BYTE 0x2
                 _wielkosc_przesuniecia_kamien:
000574           	.BYTE 0x2
                 _kamien:
000576           	.BYTE 0x2
                 _speed_normal:
000578           	.BYTE 0x2
                 _bufor_bledu:
00057a           	.BYTE 0x2
                 _zliczylem_male_puchary:
00057c           	.BYTE 0x2
                 _licznik_impulsow_male_puchary:
00057e           	.BYTE 0x2
                 _tryb_male_puchary:
000580           	.BYTE 0x2
                 _test_zjezdzalni_nakretek:
000582           	.BYTE 0x2
                 _przeslano_informacje_male_puchary:
000584           	.BYTE 0x2
                 _male_puchary_pozwolenie_wyjecia_puchara_monter_3:
000586           	.BYTE 0x2
                 _wieza:
000588           	.BYTE 0x2
                 _jedz_wieza_cykl_znacznik:
00058a           	.BYTE 0x2
                 _sek5:
00058c           	.BYTE 0x4
                 _wyzerowalem_sek5:
000590           	.BYTE 0x2
                 __seed_G102:
000592           	.BYTE 0x4
                 
                 	.CSEG
                 ;OPTIMIZER ADDED SUBROUTINE, CALLED 2 TIMES, CODE SIZE REDUCTION:3 WORDS
                 SUBOPT_0x0:
000782 936a      	ST   -Y,R22
000783 937a      	ST   -Y,R23
000784 93aa      	ST   -Y,R26
000785 93ba      	ST   -Y,R27
000786 93ea      	ST   -Y,R30
000787 93fa      	ST   -Y,R31
000788 b7ef      	IN   R30,SREG
000789 93ea      	ST   -Y,R30
00078a 9508      	RET
                 
                 ;OPTIMIZER ADDED SUBROUTINE, CALLED 7 TIMES, CODE SIZE REDUCTION:33 WORDS
                 SUBOPT_0x1:
00078b 940e 09a8 	CALL __GETD1P_INC
                +
00078d 5fef     +SUBI R30 , LOW ( - 1 )
00078e 4fff     +SBCI R31 , HIGH ( - 1 )
00078f 4f6f     +SBCI R22 , BYTE3 ( - 1 )
000790 4f7f     +SBCI R23 , BYTE4 ( - 1 )
                 	__SUBD1N -1
000791 940e 09ad 	CALL __PUTDP1_DEC
000793 9508      	RET
                 
                 ;OPTIMIZER ADDED SUBROUTINE, CALLED 2 TIMES, CODE SIZE REDUCTION:3 WORDS
                 SUBOPT_0x2:
000794 91a0 055c 	LDS  R26,_licznik_drgania
000796 91b0 055d 	LDS  R27,_licznik_drgania+1
000798 9180 055e 	LDS  R24,_licznik_drgania+2
00079a 9190 055f 	LDS  R25,_licznik_drgania+3
00079c 9508      	RET
                 
                 ;OPTIMIZER ADDED SUBROUTINE, CALLED 2 TIMES, CODE SIZE REDUCTION:4 WORDS
                 SUBOPT_0x3:
00079d e0e0      	LDI  R30,LOW(0)
00079e 93e0 055c 	STS  _licznik_drgania,R30
0007a0 93e0 055d 	STS  _licznik_drgania+1,R30
0007a2 93e0 055e 	STS  _licznik_drgania+2,R30
0007a4 93e0 055f 	STS  _licznik_drgania+3,R30
0007a6 9508      	RET
                 
                 ;OPTIMIZER ADDED SUBROUTINE, CALLED 7 TIMES, CODE SIZE REDUCTION:9 WORDS
                 SUBOPT_0x4:
0007a7 91a0 0580 	LDS  R26,_tryb_male_puchary
0007a9 91b0 0581 	LDS  R27,_tryb_male_puchary+1
0007ab 9508      	RET
                 
                 ;OPTIMIZER ADDED SUBROUTINE, CALLED 2 TIMES, CODE SIZE REDUCTION:1 WORDS
                 SUBOPT_0x5:
0007ac e0e1      	LDI  R30,LOW(1)
0007ad e0f0      	LDI  R31,HIGH(1)
0007ae 93e0 0568 	STS  _zezwolenie_od_master,R30
0007b0 93f0 0569 	STS  _zezwolenie_od_master+1,R31
0007b2 9508      	RET
                 
                 ;OPTIMIZER ADDED SUBROUTINE, CALLED 3 TIMES, CODE SIZE REDUCTION:3 WORDS
                 SUBOPT_0x6:
0007b3 e0e0      	LDI  R30,LOW(0)
0007b4 93e0 0568 	STS  _zezwolenie_od_master,R30
0007b6 93e0 0569 	STS  _zezwolenie_od_master+1,R30
0007b8 9508      	RET
                 
                 ;OPTIMIZER ADDED SUBROUTINE, CALLED 2 TIMES, CODE SIZE REDUCTION:18 WORDS
                 SUBOPT_0x7:
0007b9 e0a0      	LDI  R26,0
0007ba 99cb      	SBIC 0x19,3
0007bb e0a1      	LDI  R26,1
0007bc e0e0      	LDI  R30,LOW(0)
0007bd 940e 095d 	CALL __EQB12
0007bf 2e0e      	MOV  R0,R30
0007c0 91a0 0566 	LDS  R26,_wcisniete_zakonczone
0007c2 91b0 0567 	LDS  R27,_wcisniete_zakonczone+1
0007c4 e0e1      	LDI  R30,LOW(1)
0007c5 e0f0      	LDI  R31,HIGH(1)
0007c6 940e 0962 	CALL __EQW12
0007c8 220e      	AND  R0,R30
0007c9 e0a0      	LDI  R26,0
0007ca 9907      	SBIC 0x0,7
0007cb e0a1      	LDI  R26,1
0007cc e0e1      	LDI  R30,LOW(1)
0007cd 940e 095d 	CALL __EQB12
0007cf 21e0      	AND  R30,R0
0007d0 9508      	RET
                 
                 ;OPTIMIZER ADDED SUBROUTINE, CALLED 2 TIMES, CODE SIZE REDUCTION:2 WORDS
                 SUBOPT_0x8:
0007d1 9ac6      	SBI  0x18,6
0007d2 e0e2      	LDI  R30,LOW(2)
0007d3 e0f0      	LDI  R31,HIGH(2)
0007d4 93e0 0566 	STS  _wcisniete_zakonczone,R30
0007d6 93f0 0567 	STS  _wcisniete_zakonczone+1,R31
0007d8 9508      	RET
                 
                 ;OPTIMIZER ADDED SUBROUTINE, CALLED 2 TIMES, CODE SIZE REDUCTION:18 WORDS
                 SUBOPT_0x9:
0007d9 e0a0      	LDI  R26,0
0007da 99cb      	SBIC 0x19,3
0007db e0a1      	LDI  R26,1
0007dc e0e1      	LDI  R30,LOW(1)
0007dd 940e 095d 	CALL __EQB12
0007df 2e0e      	MOV  R0,R30
0007e0 91a0 0566 	LDS  R26,_wcisniete_zakonczone
0007e2 91b0 0567 	LDS  R27,_wcisniete_zakonczone+1
0007e4 e0e2      	LDI  R30,LOW(2)
0007e5 e0f0      	LDI  R31,HIGH(2)
0007e6 940e 0962 	CALL __EQW12
0007e8 220e      	AND  R0,R30
0007e9 e0a0      	LDI  R26,0
0007ea 9907      	SBIC 0x0,7
0007eb e0a1      	LDI  R26,1
0007ec e0e1      	LDI  R30,LOW(1)
0007ed 940e 095d 	CALL __EQB12
0007ef 21e0      	AND  R30,R0
0007f0 9508      	RET
                 
                 ;OPTIMIZER ADDED SUBROUTINE, CALLED 2 TIMES, CODE SIZE REDUCTION:2 WORDS
                 SUBOPT_0xA:
                +
0007f1 e0e5     +LDI R30 , LOW ( 0x5 )
0007f2 e0f0     +LDI R31 , HIGH ( 0x5 )
0007f3 e060     +LDI R22 , BYTE3 ( 0x5 )
0007f4 e070     +LDI R23 , BYTE4 ( 0x5 )
                 	__GETD1N 0x5
0007f5 940e 0968 	CALL __GTD12
0007f7 2e0e      	MOV  R0,R30
0007f8 9508      	RET
                 
                 ;OPTIMIZER ADDED SUBROUTINE, CALLED 3 TIMES, CODE SIZE REDUCTION:1 WORDS
                 SUBOPT_0xB:
0007f9 e0e1      	LDI  R30,LOW(1)
0007fa 940e 095d 	CALL __EQB12
0007fc 21e0      	AND  R30,R0
0007fd 9508      	RET
                 
                 ;OPTIMIZER ADDED SUBROUTINE, CALLED 5 TIMES, CODE SIZE REDUCTION:5 WORDS
                 SUBOPT_0xC:
0007fe e0e0      	LDI  R30,LOW(0)
0007ff 940e 095d 	CALL __EQB12
000801 2e0e      	MOV  R0,R30
000802 9508      	RET
                 
                 ;OPTIMIZER ADDED SUBROUTINE, CALLED 13 TIMES, CODE SIZE REDUCTION:21 WORDS
                 SUBOPT_0xD:
000803 e0e1      	LDI  R30,LOW(1)
000804 e0f0      	LDI  R31,HIGH(1)
000805 940e 0962 	CALL __EQW12
000807 9508      	RET
                 
                 ;OPTIMIZER ADDED SUBROUTINE, CALLED 4 TIMES, CODE SIZE REDUCTION:3 WORDS
                 SUBOPT_0xE:
000808 931a      	ST   -Y,R17
000809 930a      	ST   -Y,R16
                +
00080a e000     +LDI R16 , LOW ( 0 )
00080b e010     +LDI R17 , HIGH ( 0 )
                 	__GETWRN 16,17,0
00080c 9508      	RET
                 
                 ;OPTIMIZER ADDED SUBROUTINE, CALLED 15 TIMES, CODE SIZE REDUCTION:95 WORDS
                 SUBOPT_0xF:
00080d e0e0      	LDI  R30,LOW(0)
00080e 93e0 0500 	STS  _sek0,R30
000810 93e0 0501 	STS  _sek0+1,R30
000812 93e0 0502 	STS  _sek0+2,R30
000814 93e0 0503 	STS  _sek0+3,R30
000816 9508      	RET
                 
                 ;OPTIMIZER ADDED SUBROUTINE, CALLED 2 TIMES, CODE SIZE REDUCTION:1 WORDS
                 SUBOPT_0x10:
000817 e0e0      	LDI  R30,LOW(0)
000818 93e0 0564 	STS  _ilosc_prob_wybicia_zakretki_do_gory,R30
00081a 93e0 0565 	STS  _ilosc_prob_wybicia_zakretki_do_gory+1,R30
00081c 9a95      	SBI  0x12,5
00081d 9508      	RET
                 
                 ;OPTIMIZER ADDED SUBROUTINE, CALLED 2 TIMES, CODE SIZE REDUCTION:1 WORDS
                 SUBOPT_0x11:
00081e e0e2      	LDI  R30,LOW(2)
00081f e0f0      	LDI  R31,HIGH(2)
000820 93e0 051c 	STS  _proces,R30
000822 93f0 051d 	STS  _proces+1,R31
000824 9508      	RET
                 
                 ;OPTIMIZER ADDED SUBROUTINE, CALLED 15 TIMES, CODE SIZE REDUCTION:81 WORDS
                 SUBOPT_0x12:
000825 91a0 0500 	LDS  R26,_sek0
000827 91b0 0501 	LDS  R27,_sek0+1
000829 9180 0502 	LDS  R24,_sek0+2
00082b 9190 0503 	LDS  R25,_sek0+3
00082d 9508      	RET
                 
                 ;OPTIMIZER ADDED SUBROUTINE, CALLED 13 TIMES, CODE SIZE REDUCTION:21 WORDS
                 SUBOPT_0x13:
00082e 93e0 051c 	STS  _proces,R30
000830 93f0 051d 	STS  _proces+1,R31
000832 9508      	RET
                 
                 ;OPTIMIZER ADDED SUBROUTINE, CALLED 3 TIMES, CODE SIZE REDUCTION:1 WORDS
                 SUBOPT_0x14:
000833 940e 00be 	CALL _drgania
000835 cfef      	RJMP SUBOPT_0x12
                 
                 ;OPTIMIZER ADDED SUBROUTINE, CALLED 2 TIMES, CODE SIZE REDUCTION:4 WORDS
                 SUBOPT_0x15:
000836 dfee      	RCALL SUBOPT_0x12
                +
000837 31a5     +CPI R26 , LOW ( 0x15 )
000838 e0e0     +LDI R30 , HIGH ( 0x15 )
000839 07be     +CPC R27 , R30
00083a e0e0     +LDI R30 , BYTE3 ( 0x15 )
00083b 078e     +CPC R24 , R30
00083c e0e0     +LDI R30 , BYTE4 ( 0x15 )
00083d 079e     +CPC R25 , R30
                 	__CPD2N 0x15
00083e 9508      	RET
                 
                 ;OPTIMIZER ADDED SUBROUTINE, CALLED 3 TIMES, CODE SIZE REDUCTION:5 WORDS
                 SUBOPT_0x16:
00083f e0e1      	LDI  R30,LOW(1)
000840 e0f0      	LDI  R31,HIGH(1)
000841 93e0 0560 	STS  _wystarczy_zejscia,R30
000843 93f0 0561 	STS  _wystarczy_zejscia+1,R31
000845 9508      	RET
                 
                 ;OPTIMIZER ADDED SUBROUTINE, CALLED 3 TIMES, CODE SIZE REDUCTION:3 WORDS
                 SUBOPT_0x17:
000846 e0e0      	LDI  R30,LOW(0)
000847 93e0 0560 	STS  _wystarczy_zejscia,R30
000849 93e0 0561 	STS  _wystarczy_zejscia+1,R30
00084b 9508      	RET
                 
                 ;OPTIMIZER ADDED SUBROUTINE, CALLED 3 TIMES, CODE SIZE REDUCTION:1 WORDS
                 SUBOPT_0x18:
00084c e0ea      	LDI  R30,LOW(10)
00084d e0f0      	LDI  R31,HIGH(10)
00084e cfdf      	RJMP SUBOPT_0x13
                 
                 ;OPTIMIZER ADDED SUBROUTINE, CALLED 2 TIMES, CODE SIZE REDUCTION:3 WORDS
                 SUBOPT_0x19:
00084f 93e0 0500 	STS  _sek0,R30
000851 93f0 0501 	STS  _sek0+1,R31
000853 9360 0502 	STS  _sek0+2,R22
000855 9370 0503 	STS  _sek0+3,R23
000857 9508      	RET
                 
                 ;OPTIMIZER ADDED SUBROUTINE, CALLED 4 TIMES, CODE SIZE REDUCTION:18 WORDS
                 SUBOPT_0x1A:
000858 dfcc      	RCALL SUBOPT_0x12
                +
000859 33a3     +CPI R26 , LOW ( 0x33 )
00085a e0e0     +LDI R30 , HIGH ( 0x33 )
00085b 07be     +CPC R27 , R30
00085c e0e0     +LDI R30 , BYTE3 ( 0x33 )
00085d 078e     +CPC R24 , R30
00085e e0e0     +LDI R30 , BYTE4 ( 0x33 )
00085f 079e     +CPC R25 , R30
                 	__CPD2N 0x33
000860 9508      	RET
                 
                 ;OPTIMIZER ADDED SUBROUTINE, CALLED 2 TIMES, CODE SIZE REDUCTION:2 WORDS
                 SUBOPT_0x1B:
                +
000861 30a2     +CPI R26 , LOW ( 0x2 )
000862 e0e0     +LDI R30 , HIGH ( 0x2 )
000863 07be     +CPC R27 , R30
000864 e0e0     +LDI R30 , BYTE3 ( 0x2 )
000865 078e     +CPC R24 , R30
000866 e0e0     +LDI R30 , BYTE4 ( 0x2 )
000867 079e     +CPC R25 , R30
                 	__CPD2N 0x2
000868 9508      	RET
                 
                 ;OPTIMIZER ADDED SUBROUTINE, CALLED 2 TIMES, CODE SIZE REDUCTION:5 WORDS
                 SUBOPT_0x1C:
000869 e0e0      	LDI  R30,LOW(0)
00086a 93e0 0550 	STS  _podaj_nakretke,R30
00086c 93e0 0551 	STS  _podaj_nakretke+1,R30
00086e 93e0 0552 	STS  _wcisnalem_pedal,R30
000870 93e0 0553 	STS  _wcisnalem_pedal+1,R30
000872 9508      	RET
                 
                 ;OPTIMIZER ADDED SUBROUTINE, CALLED 3 TIMES, CODE SIZE REDUCTION:1 WORDS
                 SUBOPT_0x1D:
000873 e0a1      	LDI  R26,LOW(1)
000874 e0b0      	LDI  R27,HIGH(1)
000875 83a0      	STD  Z+0,R26
000876 83b1      	STD  Z+1,R27
000877 9508      	RET
                 
                 ;OPTIMIZER ADDED SUBROUTINE, CALLED 5 TIMES, CODE SIZE REDUCTION:5 WORDS
                 SUBOPT_0x1E:
000878 e0e2      	LDI  R30,LOW(2)
000879 e0f0      	LDI  R31,HIGH(2)
00087a 940e 0962 	CALL __EQW12
00087c 9508      	RET
                 
                 ;OPTIMIZER ADDED SUBROUTINE, CALLED 7 TIMES, CODE SIZE REDUCTION:51 WORDS
                 SUBOPT_0x1F:
00087d e0e0      	LDI  R30,LOW(0)
00087e 93e0 0504 	STS  _sek1,R30
000880 93e0 0505 	STS  _sek1+1,R30
000882 93e0 0506 	STS  _sek1+2,R30
000884 93e0 0507 	STS  _sek1+3,R30
                +
000886 e1ee     +LDI R30 , LOW ( _proces + ( 2 ) )
000887 e0f5     +LDI R31 , HIGH ( _proces + ( 2 ) )
                 	__POINTW1MN _proces,2
000888 9508      	RET
                 
                 ;OPTIMIZER ADDED SUBROUTINE, CALLED 6 TIMES, CODE SIZE REDUCTION:7 WORDS
                 SUBOPT_0x20:
000889 e0e1      	LDI  R30,LOW(1)
00088a 940e 095d 	CALL __EQB12
00088c 2e0e      	MOV  R0,R30
00088d 9508      	RET
                 
                 ;OPTIMIZER ADDED SUBROUTINE, CALLED 2 TIMES, CODE SIZE REDUCTION:1 WORDS
                 SUBOPT_0x21:
00088e 91a0 0568 	LDS  R26,_zezwolenie_od_master
000890 91b0 0569 	LDS  R27,_zezwolenie_od_master+1
000892 cf70      	RJMP SUBOPT_0xD
                 
                 ;OPTIMIZER ADDED SUBROUTINE, CALLED 4 TIMES, CODE SIZE REDUCTION:15 WORDS
                 SUBOPT_0x22:
000893 91a0 0504 	LDS  R26,_sek1
000895 91b0 0505 	LDS  R27,_sek1+1
000897 9180 0506 	LDS  R24,_sek1+2
000899 9190 0507 	LDS  R25,_sek1+3
00089b 9508      	RET
                 
                 ;OPTIMIZER ADDED SUBROUTINE, CALLED 2 TIMES, CODE SIZE REDUCTION:1 WORDS
                 SUBOPT_0x23:
00089c e0e1      	LDI  R30,LOW(1)
00089d e0f0      	LDI  R31,HIGH(1)
00089e 93e0 0552 	STS  _wcisnalem_pedal,R30
0008a0 93f0 0553 	STS  _wcisnalem_pedal+1,R31
0008a2 9508      	RET
                 
                 ;OPTIMIZER ADDED SUBROUTINE, CALLED 7 TIMES, CODE SIZE REDUCTION:9 WORDS
                 SUBOPT_0x24:
0008a3 e0a0      	LDI  R26,LOW(0)
0008a4 e0b0      	LDI  R27,HIGH(0)
0008a5 83a0      	STD  Z+0,R26
0008a6 83b1      	STD  Z+1,R27
0008a7 9508      	RET
                 
                 ;OPTIMIZER ADDED SUBROUTINE, CALLED 3 TIMES, CODE SIZE REDUCTION:3 WORDS
                 SUBOPT_0x25:
0008a8 91e0 0588 	LDS  R30,_wieza
0008aa 91f0 0589 	LDS  R31,_wieza+1
0008ac 9730      	SBIW R30,0
0008ad 9508      	RET
                 
                 ;OPTIMIZER ADDED SUBROUTINE, CALLED 6 TIMES, CODE SIZE REDUCTION:42 WORDS
                 SUBOPT_0x26:
0008ae e0e0      	LDI  R30,LOW(0)
0008af 93e0 050c 	STS  _sek3,R30
0008b1 93e0 050d 	STS  _sek3+1,R30
0008b3 93e0 050e 	STS  _sek3+2,R30
0008b5 93e0 050f 	STS  _sek3+3,R30
                +
0008b7 e2e2     +LDI R30 , LOW ( _proces + ( 6 ) )
0008b8 e0f5     +LDI R31 , HIGH ( _proces + ( 6 ) )
                 	__POINTW1MN _proces,6
0008b9 9508      	RET
                 
                 ;OPTIMIZER ADDED SUBROUTINE, CALLED 2 TIMES, CODE SIZE REDUCTION:3 WORDS
                 SUBOPT_0x27:
0008ba 91a0 050c 	LDS  R26,_sek3
0008bc 91b0 050d 	LDS  R27,_sek3+1
0008be 9180 050e 	LDS  R24,_sek3+2
0008c0 9190 050f 	LDS  R25,_sek3+3
0008c2 9508      	RET
                 
                 ;OPTIMIZER ADDED SUBROUTINE, CALLED 3 TIMES, CODE SIZE REDUCTION:5 WORDS
                 SUBOPT_0x28:
0008c3 e0e1      	LDI  R30,LOW(1)
0008c4 e0f0      	LDI  R31,HIGH(1)
0008c5 93e0 0566 	STS  _wcisniete_zakonczone,R30
0008c7 93f0 0567 	STS  _wcisniete_zakonczone+1,R31
0008c9 9508      	RET
                 
                 ;OPTIMIZER ADDED SUBROUTINE, CALLED 2 TIMES, CODE SIZE REDUCTION:1 WORDS
                 SUBOPT_0x29:
0008ca 940e 0154 	CALL _proces_0
0008cc 93e0 0530 	STS  _skonczony_proces,R30
0008ce 93f0 0531 	STS  _skonczony_proces+1,R31
0008d0 9508      	RET
                 
                 ;OPTIMIZER ADDED SUBROUTINE, CALLED 3 TIMES, CODE SIZE REDUCTION:7 WORDS
                 SUBOPT_0x2A:
0008d1 e0a0      	LDI  R26,LOW(0)
0008d2 e0b0      	LDI  R27,HIGH(0)
0008d3 940e 0962 	CALL __EQW12
0008d5 2e0e      	MOV  R0,R30
0008d6 ced0      	RJMP SUBOPT_0x4
                 
                 ;OPTIMIZER ADDED SUBROUTINE, CALLED 4 TIMES, CODE SIZE REDUCTION:3 WORDS
                 SUBOPT_0x2B:
0008d7 e0e0      	LDI  R30,LOW(0)
0008d8 e0f0      	LDI  R31,HIGH(0)
0008d9 940e 0962 	CALL __EQW12
0008db 9508      	RET
                 
                 ;OPTIMIZER ADDED SUBROUTINE, CALLED 2 TIMES, CODE SIZE REDUCTION:1 WORDS
                 SUBOPT_0x2C:
0008dc 940e 03c5 	CALL _proces_3
                +
0008de 93e0 0536+STS _skonczony_proces + ( 6 ) , R30
0008e0 93f0 0537+STS _skonczony_proces + ( 6 ) + 1 , R31
                 	__PUTW1MN _skonczony_proces,6
0008e2 9508      	RET
                 
                 ;OPTIMIZER ADDED SUBROUTINE, CALLED 3 TIMES, CODE SIZE REDUCTION:5 WORDS
                 SUBOPT_0x2D:
0008e3 91a0 0530 	LDS  R26,_skonczony_proces
0008e5 91b0 0531 	LDS  R27,_skonczony_proces+1
0008e7 cf1b      	RJMP SUBOPT_0xD
                 
                 ;OPTIMIZER ADDED SUBROUTINE, CALLED 2 TIMES, CODE SIZE REDUCTION:6 WORDS
                 SUBOPT_0x2E:
0008e8 e0a1      	LDI  R26,LOW(1)
0008e9 e0b0      	LDI  R27,HIGH(1)
0008ea 940e 0962 	CALL __EQW12
0008ec 220e      	AND  R0,R30
0008ed 91a0 0582 	LDS  R26,_test_zjezdzalni_nakretek
0008ef 91b0 0583 	LDS  R27,_test_zjezdzalni_nakretek+1
0008f1 cfe5      	RJMP SUBOPT_0x2B
                 
                 ;OPTIMIZER ADDED SUBROUTINE, CALLED 2 TIMES, CODE SIZE REDUCTION:4 WORDS
                 SUBOPT_0x2F:
0008f2 e0e0      	LDI  R30,LOW(0)
0008f3 93e0 0530 	STS  _skonczony_proces,R30
0008f5 93e0 0531 	STS  _skonczony_proces+1,R30
                +
0008f7 e3e2     +LDI R30 , LOW ( _skonczony_proces + ( 2 ) )
0008f8 e0f5     +LDI R31 , HIGH ( _skonczony_proces + ( 2 ) )
                 	__POINTW1MN _skonczony_proces,2
0008f9 cfa9      	RJMP SUBOPT_0x24
                 
                 ;OPTIMIZER ADDED SUBROUTINE, CALLED 5 TIMES, CODE SIZE REDUCTION:13 WORDS
                 SUBOPT_0x30:
0008fa e0e1      	LDI  R30,LOW(1)
0008fb e0f0      	LDI  R31,HIGH(1)
0008fc 93e0 0550 	STS  _podaj_nakretke,R30
0008fe 93f0 0551 	STS  _podaj_nakretke+1,R31
000900 9508      	RET
                 
                 ;OPTIMIZER ADDED SUBROUTINE, CALLED 12 TIMES, CODE SIZE REDUCTION:19 WORDS
                 SUBOPT_0x31:
000901 93e0 0580 	STS  _tryb_male_puchary,R30
000903 93f0 0581 	STS  _tryb_male_puchary+1,R31
000905 9508      	RET
                 
                 ;OPTIMIZER ADDED SUBROUTINE, CALLED 6 TIMES, CODE SIZE REDUCTION:7 WORDS
                 SUBOPT_0x32:
000906 9818      	CBI  0x3,0
000907 9819      	CBI  0x3,1
000908 981a      	CBI  0x3,2
000909 981b      	CBI  0x3,3
00090a 9508      	RET
                 
                 ;OPTIMIZER ADDED SUBROUTINE, CALLED 10 TIMES, CODE SIZE REDUCTION:15 WORDS
                 SUBOPT_0x33:
00090b e0e2      	LDI  R30,LOW(2)
00090c e0f0      	LDI  R31,HIGH(2)
00090d cff3      	RJMP SUBOPT_0x31
                 
                 ;OPTIMIZER ADDED SUBROUTINE, CALLED 2 TIMES, CODE SIZE REDUCTION:7 WORDS
                 SUBOPT_0x34:
00090e e3e2      	LDI  R30,LOW(50)
00090f e0f0      	LDI  R31,HIGH(50)
000910 93e0 0576 	STS  _kamien,R30
000912 93f0 0577 	STS  _kamien+1,R31
000914 9818      	CBI  0x3,0
000915 9a19      	SBI  0x3,1
000916 981a      	CBI  0x3,2
000917 981b      	CBI  0x3,3
000918 981c      	CBI  0x3,4
000919 981d      	CBI  0x3,5
00091a 9508      	RET
                 
                 ;OPTIMIZER ADDED SUBROUTINE, CALLED 2 TIMES, CODE SIZE REDUCTION:7 WORDS
                 SUBOPT_0x35:
00091b e3e7      	LDI  R30,LOW(55)
00091c e0f0      	LDI  R31,HIGH(55)
00091d 93e0 0576 	STS  _kamien,R30
00091f 93f0 0577 	STS  _kamien+1,R31
000921 9818      	CBI  0x3,0
000922 9819      	CBI  0x3,1
000923 9a1a      	SBI  0x3,2
000924 981b      	CBI  0x3,3
000925 981c      	CBI  0x3,4
000926 981d      	CBI  0x3,5
000927 9508      	RET
                 
                 ;OPTIMIZER ADDED SUBROUTINE, CALLED 2 TIMES, CODE SIZE REDUCTION:7 WORDS
                 SUBOPT_0x36:
000928 e3ec      	LDI  R30,LOW(60)
000929 e0f0      	LDI  R31,HIGH(60)
00092a 93e0 0576 	STS  _kamien,R30
00092c 93f0 0577 	STS  _kamien+1,R31
00092e 9818      	CBI  0x3,0
00092f 9819      	CBI  0x3,1
000930 981a      	CBI  0x3,2
000931 9a1b      	SBI  0x3,3
000932 981c      	CBI  0x3,4
000933 981d      	CBI  0x3,5
000934 9508      	RET
                 
                 ;OPTIMIZER ADDED SUBROUTINE, CALLED 2 TIMES, CODE SIZE REDUCTION:3 WORDS
                 SUBOPT_0x37:
000935 e4e1      	LDI  R30,LOW(65)
000936 e0f0      	LDI  R31,HIGH(65)
000937 93e0 0576 	STS  _kamien,R30
000939 93f0 0577 	STS  _kamien+1,R31
00093b cfca      	RJMP SUBOPT_0x32
                 
                 ;OPTIMIZER ADDED SUBROUTINE, CALLED 2 TIMES, CODE SIZE REDUCTION:1 WORDS
                 SUBOPT_0x38:
00093c e4e6      	LDI  R30,LOW(70)
00093d e0f0      	LDI  R31,HIGH(70)
00093e 93e0 0576 	STS  _kamien,R30
000940 93f0 0577 	STS  _kamien+1,R31
000942 9508      	RET
                 
                 ;OPTIMIZER ADDED SUBROUTINE, CALLED 2 TIMES, CODE SIZE REDUCTION:1 WORDS
                 SUBOPT_0x39:
000943 eee8      	LDI  R30,LOW(1000)
000944 e0f3      	LDI  R31,HIGH(1000)
000945 93fa      	ST   -Y,R31
000946 93ea      	ST   -Y,R30
000947 940c 0949 	JMP  _delay_ms
                 
                 
                 	.CSEG
                 _delay_ms:
000949 91e9      	ld   r30,y+
00094a 91f9      	ld   r31,y+
00094b 9630      	adiw r30,0
00094c f039      	breq __delay_ms1
                 __delay_ms0:
                +
00094d ea80     +LDI R24 , LOW ( 0xFA0 )
00094e e09f     +LDI R25 , HIGH ( 0xFA0 )
                +__DELAY_USW_LOOP :
00094f 9701     +SBIW R24 , 1
000950 f7f1     +BRNE __DELAY_USW_LOOP
                 	__DELAY_USW 0xFA0
000951 95a8      	wdr
000952 9731      	sbiw r30,1
000953 f7c9      	brne __delay_ms0
                 __delay_ms1:
000954 9508      	ret
                 
                 __ANEGD1:
000955 95f0      	COM  R31
000956 9560      	COM  R22
000957 9570      	COM  R23
000958 95e1      	NEG  R30
000959 4fff      	SBCI R31,-1
00095a 4f6f      	SBCI R22,-1
00095b 4f7f      	SBCI R23,-1
00095c 9508      	RET
                 
                 __EQB12:
00095d 17ea      	CP   R30,R26
00095e e0e1      	LDI  R30,1
00095f f009      	BREQ __EQB12T
000960 27ee      	CLR  R30
                 __EQB12T:
000961 9508      	RET
                 
                 __EQW12:
000962 17ea      	CP   R30,R26
000963 07fb      	CPC  R31,R27
000964 e0e1      	LDI  R30,1
000965 f009      	BREQ __EQW12T
000966 27ee      	CLR  R30
                 __EQW12T:
000967 9508      	RET
                 
                 __GTD12:
000968 17ea      	CP   R30,R26
000969 07fb      	CPC  R31,R27
00096a 0768      	CPC  R22,R24
00096b 0779      	CPC  R23,R25
00096c e0e1      	LDI  R30,1
00096d f00c      	BRLT __GTD12T
00096e 27ee      	CLR  R30
                 __GTD12T:
00096f 9508      	RET
                 
                 __MULD12U:
000970 9f7a      	MUL  R23,R26
000971 2d70      	MOV  R23,R0
000972 9f6b      	MUL  R22,R27
000973 0d70      	ADD  R23,R0
000974 9ff8      	MUL  R31,R24
000975 0d70      	ADD  R23,R0
000976 9fe9      	MUL  R30,R25
000977 0d70      	ADD  R23,R0
000978 9f6a      	MUL  R22,R26
000979 2d60      	MOV  R22,R0
00097a 0d71      	ADD  R23,R1
00097b 9ffb      	MUL  R31,R27
00097c 0d60      	ADD  R22,R0
00097d 1d71      	ADC  R23,R1
00097e 9fe8      	MUL  R30,R24
00097f 0d60      	ADD  R22,R0
000980 1d71      	ADC  R23,R1
000981 2788      	CLR  R24
000982 9ffa      	MUL  R31,R26
000983 2df0      	MOV  R31,R0
000984 0d61      	ADD  R22,R1
000985 1f78      	ADC  R23,R24
000986 9feb      	MUL  R30,R27
000987 0df0      	ADD  R31,R0
000988 1d61      	ADC  R22,R1
000989 1f78      	ADC  R23,R24
00098a 9fea      	MUL  R30,R26
00098b 2de0      	MOV  R30,R0
00098c 0df1      	ADD  R31,R1
00098d 1f68      	ADC  R22,R24
00098e 1f78      	ADC  R23,R24
00098f 9508      	RET
                 
                 __MULD12:
000990 d004      	RCALL __CHKSIGND
000991 dfde      	RCALL __MULD12U
000992 f40e      	BRTC __MULD121
000993 dfc1      	RCALL __ANEGD1
                 __MULD121:
000994 9508      	RET
                 
                 __CHKSIGND:
000995 94e8      	CLT
000996 ff77      	SBRS R23,7
000997 c002      	RJMP __CHKSD1
000998 dfbc      	RCALL __ANEGD1
000999 9468      	SET
                 __CHKSD1:
00099a ff97      	SBRS R25,7
00099b c00b      	RJMP __CHKSD2
00099c 2400      	CLR  R0
00099d 95a0      	COM  R26
00099e 95b0      	COM  R27
00099f 9580      	COM  R24
0009a0 9590      	COM  R25
0009a1 9611      	ADIW R26,1
0009a2 1d80      	ADC  R24,R0
0009a3 1d90      	ADC  R25,R0
0009a4 f800      	BLD  R0,0
0009a5 9403      	INC  R0
0009a6 fa00      	BST  R0,0
                 __CHKSD2:
0009a7 9508      	RET
                 
                 __GETD1P_INC:
0009a8 91ed      	LD   R30,X+
0009a9 91fd      	LD   R31,X+
0009aa 916d      	LD   R22,X+
0009ab 917d      	LD   R23,X+
0009ac 9508      	RET
                 
                 __PUTDP1_DEC:
0009ad 937e      	ST   -X,R23
0009ae 936e      	ST   -X,R22
0009af 93fe      	ST   -X,R31
0009b0 93ee      	ST   -X,R30
0009b1 9508      	RET
                 
                 __CPD02:
0009b2 2400      	CLR  R0
0009b3 160a      	CP   R0,R26
0009b4 060b      	CPC  R0,R27
0009b5 0608      	CPC  R0,R24
0009b6 0609      	CPC  R0,R25
0009b7 9508      	RET
                 
                 ;END OF CODE MARKER
                 __END_OF_CODE:


RESOURCE USE INFORMATION
------------------------

Notice:
The register and instruction counts are symbol table hit counts,
and hence implicitly used resources are not counted, eg, the
'lpm' instruction without operands implicitly uses r0 and z,
none of which are counted.

x,y,z are separate entities in the symbol table and are
counted separately from r26..r31 here.

.dseg memory usage only counts static data declared with .byte

ATmega128 register use summary:
r0 :  66 r1 :   7 r2 :   0 r3 :   0 r4 :   1 r5 :   1 r6 :   1 r7 :   1 
r8 :   1 r9 :   0 r10:   1 r11:   1 r12:   1 r13:   1 r14:   0 r15:   0 
r16:   8 r17:   7 r18:   0 r19:   0 r20:   0 r21:   0 r22:  33 r23:  35 
r24:  42 r25:  30 r26: 228 r27:  96 r28:   1 r29:   1 r30: 573 r31: 194 
x  :  19 y  :  22 z  :  35 
Registers used: 26 out of 35 (74.3%)

ATmega128 instruction use summary:
.lds  :   0 .lds.l:   0 .sts  :   0 .sts.l:   0 adc   :   9 add   :   9 
adiw  :   4 and   :  28 andi  :   0 asr   :   0 bclr  :   0 bld   :   1 
brbc  :   0 brbs  :   0 brcc  :   0 brcs  :   0 break :   0 breq  :  30 
brge  :   1 brhc  :   0 brhs  :   0 brid  :   0 brie  :   0 brlo  :   0 
brlt  :  19 brmi  :   0 brne  :  70 brpl  :   0 brsh  :   0 brtc  :   1 
brts  :   0 brvc  :   0 brvs  :   0 bset  :   0 bst   :   1 call  : 237 
cbi   :  60 cbr   :   0 clc   :   0 clh   :   0 cli   :   1 cln   :   0 
clr   :  16 cls   :   0 clt   :   1 clv   :   0 clz   :   0 com   :   7 
cp    :   4 cpc   :  92 cpi   :  57 cpse  :   0 dec   :   1 des   :   0 
elpm  :   0 eor   :   0 fmul  :   0 fmuls :   0 fmulsu:   0 icall :   0 
ijmp  :   0 in    :   1 inc   :   1 jmp   :  38 ld    :  19 ldd   :   0 
ldi   : 418 lds   : 110 lpm   :   7 lsl   :   0 lsr   :   0 mov   :  16 
movw  :   5 mul   :  10 muls  :   0 mulsu :   0 neg   :   1 nop   :   0 
or    :   1 ori   :   0 out   :  44 pop   :   0 push  :   0 rcall :  18 
ret   :  68 reti  :   1 rjmp  :  95 rol   :   0 ror   :   0 sbc   :   0 
sbci  :   9 sbi   :  43 sbic  :  31 sbis  :   4 sbiw  :  24 sbr   :   0 
sbrc  :   0 sbrs  :   2 sec   :   0 seh   :   0 sei   :   1 sen   :   0 
ser   :   0 ses   :   0 set   :   1 sev   :   0 sez   :   0 sleep :   0 
spm   :   0 st    :  22 std   :  28 sts   : 207 sub   :   0 subi  :   2 
swap  :   0 tst   :   0 wdr   :   1 
Instructions used: 51 out of 117 (43.6%)

ATmega128 memory use summary [bytes]:
Segment   Begin    End      Code   Data   Used    Size   Use%
---------------------------------------------------------------
[.cseg] 0x000000 0x001370   4938     38   4976  131072   3.8%
[.dseg] 0x000100 0x000596      0    150    150    4351   3.4%
[.eseg] 0x000000 0x000000      0      0      0    4096   0.0%

Assembly complete, 0 errors, 7 warnings
